1           STATEMENT #1
            LIST ELEMENT '*'                                                        00120000
              FROM ENVIRONMENT 'BCBS01'                                             00130000
                  SYSTEM '*' SUBSYSTEM '*' TYPE 'COBOL' STAGE '2'                   00140099
              OPTIONS SHOW TEXT                                                     00150000
                                      WHERE TEXT EQ 'ITCA0013'                      00160099
                                      WHERE TEXT EQ 'ITCB9000'                      00170099
                                      WHERE TEXT EQ 'ITCP9068'                      00180099
                                      WHERE TEXT EQ 'ITCP9078'                      00190099
                                      WHERE TEXT EQ 'ITCP9102'                      00200099
                                      WHERE TEXT EQ 'ITCP9164'                      00210099
                                      WHERE TEXT EQ 'ITCP9166'                      00220099
                                      WHERE TEXT EQ 'ITCP9180'                      00230099
                                      WHERE TEXT EQ 'ITCP9242'                      00240099
                                      WHERE TEXT EQ 'ITCP9246'                      00250099
                                      WHERE TEXT EQ 'ITCP9248'                      00260099
                                      WHERE TEXT EQ 'ITCP9249'                      00270099
                                      WHERE TEXT EQ 'ITCP9258'                      00280099
                                      WHERE TEXT EQ 'ITCP9259'                      00290099
                                      WHERE TEXT EQ 'ITCP9286'                      00300099
                                      WHERE TEXT EQ 'ITCP9287'                      00310099
                                      WHERE TEXT EQ 'ITCP9358'                      00320099
                                      WHERE TEXT EQ 'ITCP9526'                      00330099
                                      WHERE TEXT EQ 'ITCP9528'                      00340099
                                      WHERE TEXT EQ 'ITCP9556'                      00350099
                                      WHERE TEXT EQ 'ITCP9558'                      00360099
                                      WHERE TEXT EQ 'ITCP9616'                      00370099
                                      WHERE TEXT EQ 'ITCP9700'                      00380099
                                      WHERE TEXT EQ 'ITCP9702'                      00390099
                                      WHERE TEXT EQ 'ITCP9704'                      00400099
                                      WHERE TEXT EQ 'ITCP9708'                      00410099
                                      WHERE TEXT EQ 'ITCP9718'                      00420099
                                      WHERE TEXT EQ 'ITCP9728'                      00430099
                                      WHERE TEXT EQ 'ITCP9730'                      00440099
                                      WHERE TEXT EQ 'ITCP9732'                      00450099
                                      WHERE TEXT EQ 'ITPCA002'                      00460099
                                      WHERE TEXT EQ 'ITPCA003'                      00470099
                                      WHERE TEXT EQ 'IUCP2002'                      00480099
                                      WHERE TEXT EQ 'IUCP9018'                      00490099
                                      WHERE TEXT EQ 'IUCP9038'                      00500099
                                      WHERE TEXT EQ 'IUCP9092'                      00510099
                                      WHERE TEXT EQ 'IUCP9104'                      00520099
                                      WHERE TEXT EQ 'IUCP9108'                      00530099
                                      WHERE TEXT EQ 'IUCP9112'                      00540099
                                      WHERE TEXT EQ 'IUCP9118'                      00550099
                                      WHERE TEXT EQ 'IUCP9120'                      00560099
                                      WHERE TEXT EQ 'IUCP9122'                      00570099
                                      WHERE TEXT EQ 'IUCP9124'                      00580099
                                      WHERE TEXT EQ 'IUCP9132'                      00590099
                                      WHERE TEXT EQ 'IUCP9134'                      00600099
                                      WHERE TEXT EQ 'IUCP9150'                      00610099
                                      WHERE TEXT EQ 'IUCP9152'                      00620099
                                      WHERE TEXT EQ 'IUCP9164'                      00630099
 CA Endevor SCM Version 18.1.00        Copyright (C) 1986-2019 Broadcom. All Rights Reserved.      24MAY22 10:48:16     PAGE     2
                                      E N D E V O R   S Y N T A X   R E Q U E S T   R E P O R T
 REQUESTED BY: AN0MKOI


                                      WHERE TEXT EQ 'IUCP9180'                      00640099
                                      WHERE TEXT EQ 'IUCV9040'                      00650099
1                                     WHERE TEXT EQ 'IUCV9042'                      00660099
                                      WHERE TEXT EQ 'IUCV9114'                      00670099
                                      WHERE TEXT EQ 'IULP9102'                      00680099
                                      WHERE TEXT EQ 'IULP9112'                      00690099
                                      WHERE TEXT EQ 'IULP9140'                      00700099
                                      WHERE TEXT EQ 'IULP9142'                      00710099
                                      WHERE TEXT EQ 'IULP9144'                      00720099
                                      WHERE TEXT EQ 'IULP9146'                      00730099
                                      WHERE TEXT EQ 'IULP9147'                      00740099
                                      WHERE TEXT EQ 'IULP9149'                      00750099
                                      WHERE TEXT EQ 'IULP9188'                      00760099
                                      WHERE TEXT EQ 'IULP9200'                      00770099
                                      WHERE TEXT EQ 'IULP9212'                      00780099
                                      WHERE TEXT EQ 'IULP9214'                      00790099
                                      WHERE TEXT EQ 'IULP9216'                      00800099
                                      WHERE TEXT EQ 'IULP9218'                      00810099
                                      WHERE TEXT EQ 'IULP9220'                      00820099
                                      WHERE TEXT EQ 'IULP9222'                      00830099
                                      WHERE TEXT EQ 'IULP9224'                      00840099
                                      WHERE TEXT EQ 'IULP9226'                      00850099
                                      WHERE TEXT EQ 'IULP9228'                      00860099
                                      WHERE TEXT EQ 'IULP9230'                      00870099
                                      WHERE TEXT EQ 'IULP9240'                      00880099
                                      WHERE TEXT EQ 'IULP9242'                      00890099
                                      WHERE TEXT EQ 'IULP9260'                      00900099
                                      WHERE TEXT EQ 'IULP9274'                      00910099
                                      WHERE TEXT EQ 'IULP9276'                      00920099
                                      WHERE TEXT EQ 'IULP9278'                      00930099
                                      WHERE TEXT EQ 'IULP9280'                      00940099
                                      WHERE TEXT EQ 'IULP9282'                      00950099
                                      WHERE TEXT EQ 'IULP9284'                      00960099
                                      WHERE TEXT EQ 'IULP9286'                      00970099
                                      WHERE TEXT EQ 'IULP9288'                      00980099
                                      WHERE TEXT EQ 'IULP9290'                      00990099
                                      WHERE TEXT EQ 'IULP9292'                      01000099
                                      WHERE TEXT EQ 'IULP9294'                      01010099
                                      WHERE TEXT EQ 'IULP9304'                      01020099
                                      WHERE TEXT EQ 'IULP9308'                      01030099
                                      WHERE TEXT EQ 'IULP9346'                      01040099
                                      WHERE TEXT EQ 'IULP9350'                      01050099
                                      WHERE TEXT EQ 'IULP9354'                      01060099
                                      WHERE TEXT EQ 'IULP9356'                      01070099
                                      WHERE TEXT EQ 'IULP9358'                      01080099
                                      WHERE TEXT EQ 'IULP9362'                      01090099
                                      WHERE TEXT EQ 'IULP9364'                      01100099
                                      WHERE TEXT EQ 'IULP9366'                      01110099
                                      WHERE TEXT EQ 'IULP9368'                      01120099
                                      WHERE TEXT EQ 'IULP9370'                      01130099
                                      WHERE TEXT EQ 'IULP9490'                      01140099
                                      WHERE TEXT EQ 'IUCP9172'                      01150099
                                      WHERE TEXT EQ 'IULP9148'                      01160099
                                      WHERE TEXT EQ 'ITCP4426'                      01170099
                                      WHERE TEXT EQ 'ITDBR0U1'                      01180099
 CA Endevor SCM Version 18.1.00        Copyright (C) 1986-2019 Broadcom. All Rights Reserved.      24MAY22 10:48:16     PAGE     3
                                      E N D E V O R   S Y N T A X   R E Q U E S T   R E P O R T
 REQUESTED BY: AN0MKOI


                                      WHERE TEXT EQ 'ITDRTE00'                      01190099
                                      WHERE TEXT EQ 'IUCV9044'                      01200099
1             BUILD ACTION LIST                                                     01210000
              .                                                                     01220000

1ENVIRONMENT  BCBS01    SYSTEM  CHIPS     SUBSYSTEM  CHIPS
 TYPE  COBOL     STAGE NUMBER 2 .
0    ELEMENT   RP153A00
          767:       *    05  IULP9102-PGM                  PIC X(08)
          768:       *                                      VALUE 'IULP9102'.
         2342: X          MOVE 'IULP9102' TO SIAPC-MODULE-NAME (2).
         6817:       *  THE LINE LEVEL (L2) CALLS TO IULP9102 (ALIM/HPA/BCA)
         2983:       *  THE FINALIZATION (L3) CALL TO IULP9102 (ALIM/HPA/BCA).
         3563:            CALL 'IULP9102' USING SIAPC-PROCESS-CONTROL-AREA
1ENVIRONMENT  BCBS01    SYSTEM  FEPMAYBE  SUBSYSTEM  FEPMAYBE
 TYPE  COBOL     STAGE NUMBER 2 .
0    ELEMENT   HI37PROD
           22: 00022 *                 COPY OF ITCP9078                           *    HI37PROD
           49: 00049 *#$ CC323626     COPY OF ITCP9078 - CHANGES MADE TO BREAK ON *    HI37PROD
0    ELEMENT   HI38PROD
           22: 00022 *                 COPY OF ITCP9078                           *    HI38PROD
           49: 00049 *#$ CC323626     COPY OF ITCP9078 - CHANGES MADE TO BREAK ON      HI38PROD
0    ELEMENT   ITCP1172
          185: 00185 * CHECK FUNCTION CODES FROM INVOKING MODULE ITCP9242.......       ITCP1172
0    ELEMENT   ITCP2010
           44: 00044 *                            CODE DATABASE) ON CALL TO ITCP9102. *ITCP2010
          119: 00119      05  WS-MODULE-ITCP9102           PIC X(8)  VALUE 'ITCP9102'. ITCP2010
          315: 00315      MOVE WS-MODULE-ITCP9102       TO SIAPC-MODULE-NAME (2)       ITCP2010
          325: 00325      CALL WS-MODULE-ITCP9102 USING WS-PROCESS-CONTROL             ITCP2010
0    ELEMENT   ITCP2078
          159: 00159       MOVE 'ITCP9078'              TO  WS-CALL-PROGRAM,           ITCP2078
0    ELEMENT   ITCP2172
          203: 00203 * CHECK FUNCTION CODES FROM INVOKING MODULE ITCP9242.......       ITCP2172
0    ELEMENT   ITCP9066
           22: 00022 *                 (ITCP9068) TO DO THE ACTUAL COMPARISON TO      *ITCP9066
           88: 00088      88  WS-MODULE-ITCP9068     VALUE 'ITCP9068'.                 ITCP9066
          573: 00573      PERFORM 9060-CALL-ITCP9068 THRU 9060-EXIT                    ITCP9066
          917: 00917      PERFORM 9060-CALL-ITCP9068 THRU 9060-EXIT                    ITCP9066
         2540: 02540  9060-CALL-ITCP9068.                                              ITCP9066
         2542: 02542      SET WS-MODULE-ITCP9068          TO TRUE                      ITCP9066
         2567: 02567      PERFORM 9060-CALL-ITCP9068           THRU 9060-EXIT          ITCP9066
0    ELEMENT   ITCP9068
            3: 00003  PROGRAM-ID.        ITCP9068.                                     PD LV021
           15: 00015 *   MODULE:       ITCP9068                                       *ITCP9068
          369: 00369      VALUE 'ITCP9068-W O R K I N G  S T O R A G E STARTS HERE '.  ITCP9068
          371: 00371  01  WS-MODULE-ID                  PIC X(08) VALUE 'ITCP9068'.    ITCP9068
          378: 00378             'ITCP9068 - SF COMPARE I/O'.                          ITCP9068
          515: 00515 * ADJUSTMENT COMPARE REPORT    = ITCP9068                 **      ITCP9068
          522: 00522      05  WS-RPT-ID                  PIC X(08) VALUE 'ITCP9068'.   ITCP9068
          808: 00808      '******** W O R K I N G  S T O R A G E ENDS FOR ITCP9068 *'. ITCP9068
          834: 00834  0000-ITCP9068-STARTS.                                            ITCP9068
0    ELEMENT   ITCP9078
            3: 00003  PROGRAM-ID.  ITCP9078.                                           PD LV010
           13: 00013 *   MODULE:       ITCP9078                                       *ITCP9078
          186: 00186                    VALUE 'BEGIN ITCP9078  WORKING-STORAGE'.       ITCP9078
          316: 00316                  'END OF ITCP9078  WORKING-STORAGE'.              ITCP9078
          365: 00365        MOVE 'ITCP9078'  TO WS-PROG-NAME.                          ITCP9078
          367: 00367        MOVE 'ITCP9078'  TO SIAPC-MODULE-NAME (2).                 ITCP9078
0    ELEMENT   ITCP9102
            4: 00004  PROGRAM-ID.  ITCP9102.                                           ITCP9102
           15: 00015 *   MODULE:       ITCP9102                                       *ITCP9102
          176: 00176 *                            TO PARAMETERS FOR CALLING ITCP9526, *ITCP9102
          177: 00177 *                            ITCP9528, ITCP9556 AND ITCP9558.    *ITCP9102
          547: 00547 *            ITCPP002, ITCPE004, ITCPE005, ITCP9110, ITCP9526,   *ITCP9102
1         548: 00548 *            ITCP9528, ITCP9556 AND ITCP9558 MODULES.            *ITCP9102
          808: 00808  77  PAN-LVL PICTURE X(25) VALUE 'ITCP9102 LVL 001 06/11/04'.     ITCP9102
          811: 00811      '**** ITCP9102 WORKING-STORAGE STARTS HERE ****'.            ITCP9102
          814: 00814      05  WS-MODULE-ID                 PIC X(8)  VALUE 'ITCP9102'. ITCP9102
          821: 00821             'ITCP9102 -BATCH PROCESS MAIN'.                       ITCP9102
         1164: 01164          88  WS-MODULE-ITCP9526                 VALUE 'ITCP9526'. ITCP9102
         1165: 01165          88  WS-MODULE-ITCP9528                 VALUE 'ITCP9528'. ITCP9102
         1166: 01166          88  WS-MODULE-ITCP9556                 VALUE 'ITCP9556'. ITCP9102
         1167: 01167          88  WS-MODULE-ITCP9558                 VALUE 'ITCP9558'. ITCP9102
         1990: 01990      '**** ITCP9102 WORKING-STORAGE ENDS HERE ****'.              ITCP9102
         5663: 05663 ****  ITCP9528 - INSTITUTIONAL LEVEL 2 EDIT MODULE            *** ITCP9102
         5783: 05783         SET WS-MODULE-ITCP9528       TO TRUE                      ITCP9102
         5799: 05799 ****  ITCP9526 - PROFESSIONAL LEVEL 2 EDIT MODULE             *** ITCP9102
         5921: 05921         SET WS-MODULE-ITCP9526       TO TRUE                      ITCP9102
         5951: 05951 ****  ITCP9556 - INSTITUTIONAL LEVEL 3 EDIT MODULE            ****ITCP9102
         5953: 05953         SET WS-MODULE-ITCP9556       TO TRUE                      ITCP9102
         5969: 05969 ****  ITCP9558 - PROFESSIONAL LEVEL 3 EDIT MODULE             ****ITCP9102
         5971: 05971         SET WS-MODULE-ITCP9558       TO TRUE                      ITCP9102
         7996: 07996      DISPLAY '*** ITCP9102 PROCESSING TERMINATED ***'             ITCP9102
0    ELEMENT   ITCP9104
           22: 00022 *                 AND IS CALLED BY MODULE 'ITCP9102'.  THIS      *ITCP9104
0    ELEMENT   ITCP9112
          722: 00722          'INVALID FUNCTION PASSED FROM ITCP9102'.                 ITCP9112
0    ELEMENT   ITCP9164
            3: 00003  PROGRAM-ID. ITCP9164.                                            PD LV009
           14: 00014 * MODULE:    ITCP9164                                             ITCP9164
          169: 00169  77  PAN-LVL PICTURE X(25) VALUE 'ITCP9164 LVL 001 01/07/05'.     ITCP9164
          170: 00170  77  PAN-LVL PICTURE X(25) VALUE 'ITCP9164 LVL 002 06/10/04'.     ITCP9164
          171: 00171  77  PAN-LVL PICTURE X(25) VALUE 'ITCP9164 LVL 001 10/17/03'.     ITCP9164
          172: 00172  77  PAN-LVL PICTURE X(25) VALUE 'ITCP9164 LVL 006 07/02/02'.     ITCP9164
          173: 00173  77  PAN-LVL PICTURE X(25) VALUE 'ITCP9164 LVL 016 05/11/01'.     ITCP9164
          174: 00174  77  PAN-LVL PICTURE X(25) VALUE 'ITCP9164 LVL 002 04/11/01'.     ITCP9164
          176: 00176      05 WS-MODULE-ID PIC X(8) VALUE 'ITCP9164'.                   ITCP9164
          181: 00181         10 WS-PROG-NAME PIC X(9)  VALUE 'ITCP9164-'.              ITCP9164
          190: 00190      05 WS-MODULE-ITCP9166           PIC X(8) VALUE 'ITCP9166'.   ITCP9164
         1832: 01832      MOVE WS-MODULE-ITCP9166      TO                              ITCP9164
         1839: 01839      CALL WS-MODULE-ITCP9166 USING LS-ITSIAPC-RECORD,             ITCP9164
0    ELEMENT   ITCP9166
            2: 00002  PROGRAM-ID.                     ITCP9166.                        ITCP9166
           11: 00011 *   MODULE:       ITCP9166                                       *ITCP9166
           20: 00020 *                 IS POPULATED BY ITCP9242(UPF) AND RETURNED TO  *ITCP9166
           21: 00021 *                 CALLER OF ITCP9166.                            *ITCP9166
           57: 00057         VALUE '****  ITCP9166 WORKING-STORAGE STARTS HERE  ****'. ITCP9166
           59: 00059         10 WS-PROG-NAME              PIC X(09) VALUE 'ITCP9166 '. ITCP9166
          404: 00404      PERFORM J100-SETUP-FOR-CALL-ITCP9358.                        ITCP9166
          493: 00493      PERFORM J200-SETUP-FOR-CALL-ITCP9242.                        ITCP9166
          522: 00522      PERFORM J200-SETUP-FOR-CALL-ITCP9242.                        ITCP9166
          621: 00621  J100-SETUP-FOR-CALL-ITCP9358.                                    ITCP9166
          624: 00624      MOVE       CWSPN-ITCP9358-NAME             TO                ITCP9166
          636: 00636      MOVE       CWSPN-ITCP9358-NAME             TO                ITCP9166
          638: 00638      PERFORM    T100-CALL-ITCP9358.                               ITCP9166
          643: 00643  J200-SETUP-FOR-CALL-ITCP9242.                                    ITCP9166
          646: 00646      MOVE       CWSPN-ITCP9242-NAME        TO                     ITCP9166
          654: 00654      MOVE       CWSPN-ITCP9242-NAME        TO                     ITCP9166
          662: 00662      PERFORM    T200-CALL-ITCP9242.                               ITCP9166
          667: 00667  T100-CALL-ITCP9358.                                              ITCP9166
1         675: 00675  T200-CALL-ITCP9242.                                              ITCP9166
0    ELEMENT   ITCP9174
          161: 00161 *                                  CALLING ITCP9178 AND ITCP9180.*ITCP9174
          490: 00490 *   STATEMENT.  THE UPF CALCULATOR MODULE (ITCP9242) WILL BE     *ITCP9174
          493: 00493 *   PROGRAM ITCP9164 WILL BE CALLED TO DO EXTENDED BALANCING AND *ITCP9174
          540: 00540 *   PARAMETER LIST BEING PASSED TO ITCP9164.                     *ITCP9174
          810: 00810      05  WS-ITCP9242                PIC X(8) VALUE 'ITCP9242'.    ITCP9174
          811: 00811      05  WS-ITCP9164                PIC X(8) VALUE 'ITCP9164'.    ITCP9174
          814: 00814      05  WS-DISP-EDIT-DATA-FIELDS   PIC X(8) VALUE 'ITCP9180'.    ITCP9174
         1341: 01341 *     HOLD AREA FOR VOID PASSING AREA FOR THE EDIT PGM-ITCP9180   ITCP9174
         4814: 04814 *************ITCP9242 (UPF CALCULATOR MODULE)   ******************ITCP9174
         7573: 07573 ********'ITCP9242' (UPF CALCULATOR MODULE   )*********************ITCP9174
         7578: 07578      MOVE WS-ITCP9242           TO WS-CALL-PROGRAM                ITCP9174
         7803: 07803 **********ITCP9180 (DATA FIELDS EDIT)************************     ITCP9174
         8264: 08264 *****ITCP9164 (EXTENDED BALANCING AND UPF CALCULATIONS)******     ITCP9174
         8277: 08277             MOVE WS-ITCP9164 TO WS-CALL-PROGRAM                   ITCP9174
0    ELEMENT   ITCP9178
          139: 00139 *                                  FROM PROGRAM ITCP9180 AND     *ITCP9178
0    ELEMENT   ITCP9180
            3: 00003  PROGRAM-ID.    ITCP9180.                                         PD LV040
           10: 00010 *   MODULE:       ITCP9180                                       *ITCP9180
         1063: 01063  77  PAN-LVL PICTURE X(25) VALUE 'ITCP9180 LVL 002 03/07/03'.     ITCP9180
         1066: 01066      '****** ITCP9180 WORKING-STORAGE STARTS HERE ******'.        ITCP9180
         1086: 01086  01  WS-MODULE-ID        PIC X(08)  VALUE 'ITCP9180'.             ITCP9180
         1147: 01147      05  WS-PROG-NAME          PIC X(8)  VALUE 'ITCP9180'.        ITCP9180
         1947: 01947      VALUE '** ITCP9180 WORKING-STORAGE ENDS HERE **'.            ITCP9180
0    ELEMENT   ITCP9242
            3: 00003  PROGRAM-ID.                     ITCP9242.                        PD LV012
           12: 00012 *   MODULE:       ITCP9242                                       *ITCP9242
           27: 00027 *                                ITCP9260 TO ITCP9286.           *ITCP9242
           44: 00044 *                                DATE IS PASSED TO ITCP9242      *ITCP9242
           47: 00047 *                                ITCP9248 FOR USE IN PRORATION   *ITCP9242
          101: 00101      VALUE 'ITCP9242 VERSION 04.8 RELEASED 12/12/03'.             ITCP9242
          670: 00670 **** THE PARAMETER FILE MAY BE OPENED BEFORE UPF (ITCP9242) IS    ITCP9242
          671: 00671 **** INVOKED. ITCP9242 WILL LEAVE THE PARAMETER FILE IN THE SAME  ITCP9242
          710: 00710 **** THE FORMATS FILE MAY BE OPENED BEFORE UPF (ITCP9242) IS      ITCP9242
          711: 00711 **** INVOKED. ITCP9242 WILL LEAVE THE FORMATS FILE IN THE SAME    ITCP9242
          801: 00801      PERFORM J300-SETUP-FOR-CALL-ITCP9246.                        ITCP9242
          815: 00815      PERFORM J400-SETUP-FOR-CALL-ITCP9248.                        ITCP9242
          843: 00843      PERFORM J700-SETUP-FOR-CALL-ITCP9258.                        ITCP9242
         1310: 01310  J300-SETUP-FOR-CALL-ITCP9246.                                    ITCP9242
         1315: 01315      MOVE CWSPN-ITCP9246-NAME TO WS-REQUESTED-MODULE.             ITCP9242
         1320: 01320 *****MOVE CWSPN-ITCP9246-NAME TO                                  ITCP9242
         1327: 01327      PERFORM T300-CALL-ITCP9246.                                  ITCP9242
         1334: 01334  J400-SETUP-FOR-CALL-ITCP9248.                                    ITCP9242
         1339: 01339      MOVE CWSPN-ITCP9248-NAME TO WS-REQUESTED-MODULE.             ITCP9242
         1344: 01344 *****MOVE CWSPN-ITCP9248-NAME TO                                  ITCP9242
         1351: 01351      PERFORM T400-CALL-ITCP9248.                                  ITCP9242
         1454: 01454  J700-SETUP-FOR-CALL-ITCP9258.                                    ITCP9242
         1459: 01459      MOVE CWSPN-ITCP9258-NAME TO WS-REQUESTED-MODULE.             ITCP9242
         1464: 01464 *****MOVE CWSPN-ITCP9258-NAME TO                                  ITCP9242
         1471: 01471      PERFORM T700-CALL-ITCP9258.                                  ITCP9242
         1669: 01669  T300-CALL-ITCP9246.                                              ITCP9242
         1681: 01681  T400-CALL-ITCP9248.                                              ITCP9242
         1744: 01744  T700-CALL-ITCP9258.                                              ITCP9242
         1783: 01783      IF WS-REQUESTED-MODULE = CWSPN-ITCP9242-NAME                 ITCP9242
1        1784: 01784          MOVE CWSEC-SEVERE-SYS-ERR-ITCP9242 TO WS-RSN-CD.         ITCP9242
         1786: 01786      IF WS-REQUESTED-MODULE = CWSPN-ITCP9246-NAME                 ITCP9242
         1787: 01787          MOVE CWSEC-SEVERE-SYS-ERR-ITCP9246 TO WS-RSN-CD.         ITCP9242
         1789: 01789      IF WS-REQUESTED-MODULE = CWSPN-ITCP9248-NAME                 ITCP9242
         1790: 01790          MOVE CWSEC-SEVERE-SYS-ERR-ITCP9248 TO WS-RSN-CD.         ITCP9242
         1795: 01795      IF WS-REQUESTED-MODULE = CWSPN-ITCP9258-NAME                 ITCP9242
         1796: 01796          MOVE CWSEC-SEVERE-SYS-ERR-ITCP9258 TO WS-RSN-CD.         ITCP9242
         1798: 01798      IF WS-REQUESTED-MODULE = CWSPN-ITCP9286-NAME                 ITCP9242
         1799: 01799          MOVE CWSEC-SEVERE-SYS-ERR-ITCP9286 TO WS-RSN-CD.         ITCP9242
         1925: 01925      IF  SIAPC-MODULE-NAME (3) = CWSPN-ITCP9242-NAME              ITCP9242
         1934: 01934      IF  SIAPC-MODULE-NAME (2) = CWSPN-ITCP9700-NAME              ITCP9242
         1935: 01935          MOVE CWSPN-ITCP9242-NAME TO                              ITCP9242
         1945: 01945          MOVE CWSPN-ITCP9242-NAME TO                              ITCP9242
0    ELEMENT   ITCP9246
            3: 00003  PROGRAM-ID.                     ITCP9246.                        PD LV015
           12: 00012 *   MODULE:       ITCP9246                                       *ITCP9246
          100: 00100  77  PAN-LVL PICTURE X(25) VALUE 'ITCP9246 LVL 001 08/05/04'.     ITCP9246
          104: 00104      VALUE 'ITCP9246 VERSION 04.9 RELEASED 08/20/04'.             ITCP9246
0    ELEMENT   ITCP9248
            3: 00003  PROGRAM-ID.                     ITCP9248.                        PD LV016
           12: 00012 *   MODULE:       ITCP9248                                       *ITCP9248
           83: 00083      VALUE 'ITCP9248 VERSION 03.4 RELEASED 06/30/00'.             ITCP9248
0    ELEMENT   ITCP9258
            3: 00003  PROGRAM-ID.                     ITCP9258.                        PD LV011
           12: 00012 *   MODULE:       ITCP9258                                      * ITCP9258
           30: 00030 *                                 ITCP9286 TO ITCP9286.         * ITCP9258
           40: 00040 *                                 TO ITCP9286                   * ITCP9258
           98: 00098      VALUE 'ITCP9258 VERSION 05.7 RELEASED 08/02/00'.             ITCP9258
         1774: 01774      MOVE       CWSPN-ITCP9286-NAME             TO                ITCP9258
         1780: 01780      MOVE       CWSPN-ITCP9286-NAME             TO                ITCP9258
         1783: 01783      PERFORM    T100-CALL-MODULE-ITCP9286.                        ITCP9258
         3337: 03337  T100-CALL-MODULE-ITCP9286.                                       ITCP9258
0    ELEMENT   ITCP9286
            3: 00003  PROGRAM-ID.                     ITCP9286.                        PD LV009
           12: 00012 *   MODULE:       ITCP9286                                      * ITCP9286
           32: 00032 *                                 ITCP9260 TO ITCP9286.         * ITCP9286
           86: 00086      VALUE 'ITCP9286 VERSION 05.5 RELEASED 06/11/04'.             ITCP9286
0    ELEMENT   ITCP9356
          294: 00294          PERFORM J300-SETUP-FOR-CALL-ITCP9358.                    ITCP9356
          350: 00350  J300-SETUP-FOR-CALL-ITCP9358.                                    ITCP9356
          354: 00354      MOVE       CWSPN-ITCP9358-NAME             TO                ITCP9356
          366: 00366      MOVE       CWSPN-ITCP9358-NAME             TO                ITCP9356
          369: 00369      PERFORM    T300-CALL-ITCP9358.                               ITCP9356
          429: 00429  T300-CALL-ITCP9358.                                              ITCP9356
0    ELEMENT   ITCP9358
            3: 00003  PROGRAM-ID.                     ITCP9358.                        PD LV011
           12: 00012 *   MODULE:       ITCP9358                                       *ITCP9358
           75: 00075  77  PAN-LVL PICTURE X(25) VALUE 'ITCP9358 LVL 001 10/16/03'.     ITCP9358
           76: 00076  77  PAN-LVL PICTURE X(25) VALUE 'ITCP9358 LVL 001 06/06/02'.     ITCP9358
           77: 00077  77  PAN-LVL PICTURE X(25) VALUE 'ITCP9358 LVL 001 04/02/02'.     ITCP9358
           81: 00081      VALUE 'ITCP9358 VERSION 02.1 RELEASED 12/10/04'.             ITCP9358
0    ELEMENT   ITCP9526
            4: 00004  PROGRAM-ID.    ITCP9526.                                         ITCP9526
1          15: 00015 *   MODULE:       ITCP9526                                       *ITCP9526
          770: 00770 *            ITCP9102 SETS ERROR PRL76 WHEN ECR INDICATOR = 'H'. *ITCP9526
          773: 00773 *            ITCP9102 SETS ERROR PRL76 WHEN ECR INDICATOR = 'H'. *ITCP9526
         1058: 01058  77  PAN-LVL PICTURE X(25) VALUE 'ITCP9526 LVL 002 02/28/03'.     ITCP9526
         1061: 01061      'ITCP9526-W O R K I N G  S T O R A G E STARTS HERE *******'. ITCP9526
         1063: 01063  01  WS-MODULE-ID                     PIC X(8)  VALUE 'ITCP9526'. ITCP9526
         1240: 01240              'INVALID FUNCTION PASSED FROM ITCP9102         '.    ITCP9526
         1259: 01259      '      ITCP9526 WORKING STORAGE ENDS HERE      '.            ITCP9526
         1364: 01364         MOVE 'ITCP9526-'        TO WS-PGM-NAME                    ITCP9526
         6125: 06125      DISPLAY '*** ITCP9526 PROCESSING TERMINATED ***'             ITCP9526
         6152: 06152 **** END OF ITCP9526 ****                                         ITCP9526
0    ELEMENT   ITCP9528
            4: 00004  PROGRAM-ID.    ITCP9528.                                         ITCP9528
           15: 00015 *   MODULE:       ITCP9528                                       *ITCP9528
          687: 00687 *            ITCP9102 SETS ERROR IRL1J WHEN ECR INDICATOR = 'H'. *ITCP9528
          690: 00690 *            ITCP9102 SETS ERROR IRL1J WHEN ECR INDICATOR = 'H'. *ITCP9528
          963: 00963  77  PAN-LVL PICTURE X(25) VALUE 'ITCP9528 LVL 001 06/11/04'.     ITCP9528
          966: 00966      'ITCP9528-W O R K I N G  S T O R A G E STARTS HERE *******'. ITCP9528
          968: 00968  01  WS-MODULE-ID                     PIC X(8)  VALUE 'ITCP9528'. ITCP9528
         1152: 01152              'INVALID FUNCTION PASSED FROM ITCP9102         '.    ITCP9528
         1185: 01185      '      ITCP9528 WORKING STORAGE ENDS HERE      '.            ITCP9528
         1308: 01308         MOVE 'ITCP9528-'          TO  WS-PGM-NAME                 ITCP9528
         5734: 05734      DISPLAY '*** ITCP9528 PROCESSING TERMINATED ***'             ITCP9528
0    ELEMENT   ITCP9556
            4: 00004  PROGRAM-ID.    ITCP9556.                                         ITCP9556
           15: 00015 *   MODULE:   ITCP9556                                           *ITCP9556
          876: 00876 *            RATE) WAS AFFECTED BY CHANGE IN ITCP9102 TO USE     *ITCP9556
         1020: 01020      '**** ITCP9556 WORKING-STORAGE STARTS HERE ****'.            ITCP9556
         1022: 01022  01  WS-MODULE-ID                     PIC X(8)  VALUE 'ITCP9556'. ITCP9556
         1459: 01459          'INVALID FUNCTION PASSED FROM ITCP9102         '.        ITCP9556
         1483: 01483      '**** ITCP9556 WORKING-STORAGE ENDS HERE ****'.              ITCP9556
         1656: 01656         MOVE 'ITCP9556-'           TO  WS-PGM-NAME                ITCP9556
         8042: 08042      DISPLAY '*** ITCP9556 PROCESSING TERMINATED ***'             ITCP9556
0    ELEMENT   ITCP9558
            4: 00004  PROGRAM-ID.    ITCP9558.                                         ITCP9558
           15: 00015 *   MODULE:   ITCP9558                                           *ITCP9558
          945: 00945      '**** ITCP9558 WORKING-STORAGE STARTS HERE ****'.            ITCP9558
          947: 00947  01  WS-MODULE-ID                     PIC X(8)  VALUE 'ITCP9558'. ITCP9558
         1303: 01303          'INVALID FUNCTION PASSED FROM ITCP9102         '.        ITCP9558
         1316: 01316      '**** ITCP9558 WORKING-STORAGE ENDS HERE ****'.              ITCP9558
         1450: 01450         MOVE 'ITCP9558-'         TO WS-PGM-NAME                   ITCP9558
         6388: 06388      DISPLAY '*** ITCP9558 PROCESSING TERMINATED ***'             ITCP9558
0    ELEMENT   ITCP9614
           44: 00044 *                            RECORD TO ITCP9616.                 *ITCP9614
           46: 00046 *                            CR00-0046: CALL ITCP9616 AT END OF  *ITCP9614
          217: 00217      05  WS-MODULE-ITCP9616       PIC X(08) VALUE 'ITCP9616'.     ITCP9614
          638: 00638         CALL WS-MODULE-ITCP9616 USING                             ITCP9614
          800: 00800      CALL WS-MODULE-ITCP9616 USING                                ITCP9614
0    ELEMENT   ITCP9616
            3: 00003  PROGRAM-ID.    ITCP9616.                                         PD LV013
           13: 00013 *   MODULE:       ITCP9616                                       *ITCP9616
          418: 00418  77  PAN-LVL PICTURE X(25) VALUE 'ITCP9616 LVL 015 06/25/02'.     ITCP9616
          419: 00419  77  PAN-LVL PICTURE X(25) VALUE 'ITCP9616 LVL 004 03/09/01'.     ITCP9616
          423: 00423      'ITCP9616-W O R K I N G  S T O R A G E STARTS HERE *******'. ITCP9616
          425: 00425  01  WS-MODULE-ID                 PIC X(08) VALUE 'ITCP9616'.     ITCP9616
1        1051: 01051         MOVE 'ITCP9616-'        TO WS-PGM-NAME                    ITCP9616
0    ELEMENT   ITCP9700
            3: 00003  PROGRAM-ID.                     ITCP9700.                        PD LV005
           12: 00012 *   MODULE:       ITCP9700                                       *ITCP9700
           56: 00056  77  PAN-LVL PICTURE X(25) VALUE 'ITCP9700 LVL 001 03/30/02'.     ITCP9700
           62: 00062      VALUE 'ITCP9700 VERSION 01.4 RELEASED 12/12/03'.             ITCP9700
          687: 00687      PERFORM J100-SETUP-FOR-CALL-ITCP9242.                        ITCP9700
          694: 00694      PERFORM J900-SETUP-FOR-CALL-ITCP9702.                        ITCP9700
          937: 00937  J100-SETUP-FOR-CALL-ITCP9242.                                    ITCP9700
          942: 00942      MOVE CWSPN-ITCP9242-NAME    TO WS-REQUESTED-MODULE.          ITCP9700
          947: 00947 *****MOVE CWSPN-ITCP9242-NAME TO                                  ITCP9700
          954: 00954      PERFORM T100-CALL-ITCP9242.                                  ITCP9700
         1094: 01094  J900-SETUP-FOR-CALL-ITCP9702.                                    ITCP9700
         1100: 01100      MOVE CWSPN-ITCP9702-NAME    TO WS-REQUESTED-MODULE.          ITCP9700
         1105: 01105 *****MOVE CWSPN-ITCP9702-NAME TO                                  ITCP9700
         1112: 01112      PERFORM T900-CALL-ITCP9702.                                  ITCP9700
         1216: 01216  T100-CALL-ITCP9242.                                              ITCP9700
         1364: 01364  T900-CALL-ITCP9702.                                              ITCP9700
         1432: 01432      IF WS-REQUESTED-MODULE = CWSPN-ITCP9242-NAME                 ITCP9700
         1433: 01433          MOVE CWSEC-SEVERE-SYS-ERR-ITCP9242 TO WS-RSN-CD.         ITCP9700
         1435: 01435      IF WS-REQUESTED-MODULE = CWSPN-ITCP9246-NAME                 ITCP9700
         1436: 01436          MOVE CWSEC-SEVERE-SYS-ERR-ITCP9246 TO WS-RSN-CD.         ITCP9700
         1438: 01438      IF WS-REQUESTED-MODULE = CWSPN-ITCP9248-NAME                 ITCP9700
         1439: 01439          MOVE CWSEC-SEVERE-SYS-ERR-ITCP9248 TO WS-RSN-CD.         ITCP9700
         1468: 01468      IF WS-REQUESTED-MODULE = CWSPN-ITCP9702-NAME                 ITCP9700
         1469: 01469          MOVE CWSEC-SEVERE-SYS-ERR-ITCP9702 TO WS-RSN-CD.         ITCP9700
         1471: 01471      IF WS-REQUESTED-MODULE = CWSPN-ITCP9704-NAME                 ITCP9700
         1472: 01472          MOVE CWSEC-SEVERE-SYS-ERR-ITCP9704 TO WS-RSN-CD.         ITCP9700
         1477: 01477      IF WS-REQUESTED-MODULE = CWSPN-ITCP9708-NAME                 ITCP9700
         1478: 01478          MOVE CWSEC-SEVERE-SYS-ERR-ITCP9708 TO WS-RSN-CD.         ITCP9700
         1492: 01492      IF WS-REQUESTED-MODULE = CWSPN-ITCP9718-NAME                 ITCP9700
         1493: 01493          MOVE CWSEC-SEVERE-SYS-ERR-ITCP9718 TO WS-RSN-CD.         ITCP9700
         1605: 01605 *********CWSPN-ITCP9700-NAME                                      ITCP9700
         1609: 01609 ******** MOVE CWSPN-ITCP9700-NAME TO                              ITCP9700
         1612: 01612      IF  SIAPC-MODULE-NAME (3) = CWSPN-ITCP9242-NAME              ITCP9700
         1621: 01621      IF  SIAPC-MODULE-NAME (2) = CWSPN-ITCP9700-NAME              ITCP9700
         1630: 01630          MOVE CWSPN-ITCP9700-NAME TO                              ITCP9700
0    ELEMENT   ITCP9702
            3: 00003  PROGRAM-ID.                     ITCP9702.                        PD LV005
           12: 00012 *   MODULE:       ITCP9702                                       *ITCP9702
           54: 00054  77  PAN-LVL PICTURE X(25) VALUE 'ITCP9702 LVL 002 01/11/02'.     ITCP9702
           60: 00060      VALUE 'ITCP9702 VERSION 01.2 RELEASED 12/12/04'.             ITCP9702
          656: 00656 *********CALL ITCP9704                                            ITCP9702
          733: 00733 **** THE PARAMETER FILE MAY BE OPENED BEFORE UPF (ITCP9242) IS    ITCP9702
          734: 00734 **** INVOKED. ITCP9242 WILL LEAVE THE PARAMETER FILE IN THE SAME  ITCP9702
          766: 00766          PERFORM J400-SETUP-FOR-CALL-ITCP9704.                    ITCP9702
          823: 00823      PERFORM J400-SETUP-FOR-CALL-ITCP9704.                        ITCP9702
         1368: 01368  J400-SETUP-FOR-CALL-ITCP9704.                                    ITCP9702
         1373: 01373      MOVE CWSPN-ITCP9704-NAME TO WS-REQUESTED-MODULE.             ITCP9702
         1378: 01378 *****MOVE CWSPN-ITCP9704-NAME TO                                  ITCP9702
         1384: 01384      PERFORM T400-CALL-ITCP9704.                                  ITCP9702
         1809: 01809  T400-CALL-ITCP9704.                                              ITCP9702
         2004: 02004      IF WS-REQUESTED-MODULE = CWSPN-ITCP9704-NAME                 ITCP9702
         2005: 02005          MOVE CWSEC-SEVERE-SYS-ERR-ITCP9704 TO WS-RSN-CD.         ITCP9702
         2020: 02020      IF WS-REQUESTED-MODULE = CWSPN-ITCP9718-NAME                 ITCP9702
         2021: 02021          MOVE CWSEC-SEVERE-SYS-ERR-ITCP9718 TO WS-RSN-CD.         ITCP9702
         2162: 02162          CWSPN-ITCP9702-NAME                                      ITCP9702
         2168: 02168          MOVE CWSPN-ITCP9702-NAME TO                              ITCP9702
1    ELEMENT   ITCP9704
            3: 00003  PROGRAM-ID.                     ITCP9704.                        PD LV005
           12: 00012 *   MODULE:       ITCP9704                                       *ITCP9704
           53: 00053  77  PAN-LVL PICTURE X(25) VALUE 'ITCP9704 LVL 003 01/13/02'.     ITCP9704
           59: 00059      VALUE 'ITCP9704 VERSION 01.2 RELEASED 12/12/03'.             ITCP9704
          715: 00715 **** THE FORMATS FILE MAY BE OPENED BEFORE UPF (ITCP9242) IS      ITCP9704
          716: 00716 **** INVOKED. ITCP9242 WILL LEAVE THE FORMATS FILE IN THE SAME    ITCP9704
          788: 00788      PERFORM J300-SETUP-FOR-CALL-ITCP9246.                        ITCP9704
          824: 00824      PERFORM J400-SETUP-FOR-CALL-ITCP9248.                        ITCP9704
          841: 00841      PERFORM J700-SETUP-FOR-CALL-ITCP9708.                        ITCP9704
         1188: 01188  J300-SETUP-FOR-CALL-ITCP9246.                                    ITCP9704
         1193: 01193      MOVE CWSPN-ITCP9246-NAME TO WS-REQUESTED-MODULE.             ITCP9704
         1198: 01198 *****MOVE CWSPN-ITCP9246-NAME TO                                  ITCP9704
         1204: 01204      PERFORM T300-CALL-ITCP9246.                                  ITCP9704
         1244: 01244  J400-SETUP-FOR-CALL-ITCP9248.                                    ITCP9704
         1256: 01256      MOVE CWSPN-ITCP9248-NAME TO WS-REQUESTED-MODULE.             ITCP9704
         1261: 01261 *****MOVE CWSPN-ITCP9248-NAME TO                                  ITCP9704
         1267: 01267      PERFORM T400-CALL-ITCP9248.                                  ITCP9704
         1279: 01279  J700-SETUP-FOR-CALL-ITCP9708.                                    ITCP9704
         1284: 01284      MOVE CWSPN-ITCP9708-NAME TO WS-REQUESTED-MODULE.             ITCP9704
         1289: 01289 *****MOVE CWSPN-ITCP9708-NAME TO                                  ITCP9704
         1295: 01295      PERFORM T700-CALL-ITCP9708.                                  ITCP9704
         1751: 01751  T300-CALL-ITCP9246.                                              ITCP9704
         1775: 01775  T400-CALL-ITCP9248.                                              ITCP9704
         1788: 01788  T700-CALL-ITCP9708.                                              ITCP9704
         1817: 01817      IF WS-REQUESTED-MODULE = CWSPN-ITCP9246-NAME                 ITCP9704
         1818: 01818          MOVE CWSEC-SEVERE-SYS-ERR-ITCP9246 TO WS-RSN-CD.         ITCP9704
         1820: 01820      IF WS-REQUESTED-MODULE = CWSPN-ITCP9248-NAME                 ITCP9704
         1821: 01821          MOVE CWSEC-SEVERE-SYS-ERR-ITCP9248 TO WS-RSN-CD.         ITCP9704
         1835: 01835      IF WS-REQUESTED-MODULE = CWSPN-ITCP9708-NAME                 ITCP9704
         1836: 01836          MOVE CWSEC-SEVERE-SYS-ERR-ITCP9708 TO WS-RSN-CD.         ITCP9704
         1914: 01914          CWSPN-ITCP9704-NAME                                      ITCP9704
         1918: 01918          MOVE CWSPN-ITCP9704-NAME TO                              ITCP9704
0    ELEMENT   ITCP9708
            3: 00003  PROGRAM-ID.                     ITCP9708.                        PD LV004
           12: 00012 *   MODULE:       ITCP9708                                       *ITCP9708
           48: 00048  77  PAN-LVL PICTURE X(25) VALUE 'ITCP9708 LVL 002 01/11/02'.     ITCP9708
           54: 00054      VALUE 'ITCP9708 VERSION 01.1 RELEASED 01/18/02'.             ITCP9708
0    ELEMENT   ITCP9712
          475: 00475 *********CALL ITCP9718                                            ITCP9712
          514: 00514      PERFORM J200-SETUP-FOR-CALL-ITCP9718.                        ITCP9712
          731: 00731  J200-SETUP-FOR-CALL-ITCP9718.                                    ITCP9712
          736: 00736      MOVE CWSPN-ITCP9718-NAME TO WS-REQUESTED-MODULE.             ITCP9712
          741: 00741 *****MOVE CWSPN-ITCP9718-NAME TO                                  ITCP9712
          747: 00747      PERFORM T200-CALL-ITCP9718.                                  ITCP9712
          860: 00860  T200-CALL-ITCP9718.                                              ITCP9712
          864: 00864 *******WHICH CALLS ITCP9242                                       ITCP9712
          923: 00923      IF WS-REQUESTED-MODULE = CWSPN-ITCP9718-NAME                 ITCP9712
          924: 00924          MOVE CWSEC-SEVERE-SYS-ERR-ITCP9718 TO WS-RSN-CD.         ITCP9712
0    ELEMENT   ITCP9718
            3: 00003  PROGRAM-ID.                     ITCP9718.                        PD LV005
           12: 00012 *   MODULE:       ITCP9718                                       *ITCP9718
           52: 00052  77  PAN-LVL PICTURE X(25) VALUE 'ITCP9718 LVL 001 01/11/02'.     ITCP9718
           58: 00058      VALUE 'ITCP9718 VERSION 01.2 RELEASED 12/12/03'.             ITCP9718
          485: 00485 *********CALL ITCP9242                                            ITCP9718
          522: 00522      PERFORM J200-SETUP-FOR-CALL-ITCP9242.                        ITCP9718
          769: 00769  J200-SETUP-FOR-CALL-ITCP9242.                                    ITCP9718
1         774: 00774      MOVE CWSPN-ITCP9242-NAME TO WS-REQUESTED-MODULE.             ITCP9718
          779: 00779 *****MOVE CWSPN-ITCP9242-NAME TO                                  ITCP9718
          785: 00785      PERFORM T200-CALL-ITCP9242.                                  ITCP9718
         1027: 01027  T200-CALL-ITCP9242.                                              ITCP9718
         1096: 01096      IF WS-REQUESTED-MODULE = CWSPN-ITCP9242-NAME                 ITCP9718
         1097: 01097          MOVE CWSEC-SEVERE-SYS-ERR-ITCP9242 TO WS-RSN-CD.         ITCP9718
         1121: 01121          CWSPN-ITCP9718-NAME                                      ITCP9718
         1125: 01125          MOVE CWSPN-ITCP9718-NAME TO                              ITCP9718
0    ELEMENT   ITCP9896
          443: 00443 *                 INST LEVEL THREE EDIT MODULE, ITCP9556.        *ITCP9896
0    ELEMENT   ITCP9898
          417: 00417 *                 PROF LEVEL THREE EDIT MODULE, ITCP9558.        *ITCP9898
0    ELEMENT   IUCP1004
           71: 00071 *                                 PARAMETERS TO IUCP9134         *IUCP1004
         1848: 01848         PERFORM S1083-SET-UP-FOR-IUCP9134                         IUCP1004
         2421: 02421      PERFORM       S1070-SET-UP-FOR-ITCP9358.                     IUCP1004
         2516: 02516          PERFORM S1082-SET-UP-FOR-IUCP9134.                       IUCP1004
         4082: 04082         OR  CWSNM-IUCP9134-NAME                                   IUCP1004
         4086: 04086         OR  CWSNM-ITCP9358-NAME                                   IUCP1004
         4261: 04261          CWSNM-IUCP9134-NAME                                      IUCP1004
         4262: 04262          PERFORM T330-CALL-TO-IUCP9134                            IUCP1004
         4273: 04273      IF  WS-INVOKED-MODULE EQUAL CWSNM-ITCP9358-NAME              IUCP1004
         4274: 04274          PERFORM T265-CALL-TO-ITCP9358                            IUCP1004
         4649: 04649  S1070-SET-UP-FOR-ITCP9358.                                       IUCP1004
         4657: 04657      MOVE    CWSNM-ITCP9358-NAME                       TO         IUCP1004
         4715: 04715  S1082-SET-UP-FOR-IUCP9134.                                       IUCP1004
         4723: 04723      MOVE    CWSNM-IUCP9134-NAME                       TO         IUCP1004
         4730: 04730  S1083-SET-UP-FOR-IUCP9134.                                       IUCP1004
         4738: 04738      MOVE    CWSNM-IUCP9134-NAME                       TO         IUCP1004
         5800: 05800  T265-CALL-TO-ITCP9358.                                           IUCP1004
         5918: 05918  T330-CALL-TO-IUCP9134.                                           IUCP1004
0    ELEMENT   IUCP2002
            2: 00002  PROGRAM-ID.                       IUCP2002.                      IUCP2002
           10: 00010 *   MODULE:       IUCP2002                                       *IUCP2002
           90: 00090      VALUE 'IUCP2002 VERSION 09.1 RELEASED 08/20/04'.             IUCP2002
          467: 00467      DISPLAY '***** IUCP2002 RECORD COUNTS *****'.                IUCP2002
          673: 00673      MOVE CWSNM-IUCP2002-NAME     TO  SIAPC-MODULE-NAME (1).      IUCP2002
0    ELEMENT   IUCP9038
            2: 00002  PROGRAM-ID.                     IUCP9038.                        IUCP9038
            9: 00009 *   MODULE:       IUCP9038                                       *IUCP9038
           56: 00056      SELECT REPORT-FILE             ASSIGN TO UT-S-IUCP9038.      IUCP9038
           85: 00085      VALUE 'IUCP9038 VERSION 05.0 RELEASED 06/30/04'.             IUCP9038
          263: 00263                                       'IUCP9038-01'.              IUCP9038
          265: 00265                                       'IUCP9038-01'.              IUCP9038
          268: 00268                                       'IUCP9038-02'.              IUCP9038
          271: 00271                                       'IUCP9038-03'.              IUCP9038
          274: 00274                                       'IUCP9038-04'.              IUCP9038
          277: 00277                                       'IUCP9038-05'.              IUCP9038
          280: 00280                                       'IUCP9038-07'.              IUCP9038
0    ELEMENT   IUCP9092
            3: 00003  PROGRAM-ID.                      IUCP9092.                       PD LV002
           11: 00011 *   MODULE:       IUCP9092                                       *IUCP9092
          285: 00285      'IUCP9092 VERSION 17.0 RELEASED 12/23/04'.                   IUCP9092
          636: 00636      05  WS-DF-COMPARE-MAIN          PIC X(08) VALUE 'IUCP9092'.  IUCP9092
1        2306: 02306      '***  IUCP9092 WORKING-STORAGE ENDS HERE  ***'.              IUCP9092
0    ELEMENT   IUCP9102
           39: 00039 *                                 PARM WHEN INVOKING IUCP9112.   *IUCP9102
           43: 00043 *                                 IUCP9112                       *IUCP9102
          156: 00156 *                                 CALL OF IUCP9108.              *IUCP9102
          158: 00158 *                                 CALL OF IUCP9108.              *IUCP9102
          169: 00169 *                                 FROM CALL OF IUCP9108.         *IUCP9102
          178: 00178 *                                 IUCP9112.                      *IUCP9102
          278: 00278 *                               - RESTRUCTURED TO CALL IUCP9150  *IUCP9102
          280: 00280 *                                 HPA AND TO CALL IUCP9152 FOR   *IUCP9102
          284: 00284 *                                 IUCP9102 TO IUCP9150 AND       *IUCP9102
          285: 00285 *                                 IUCP9152.                      *IUCP9102
          710: 00710      PERFORM  J160-SETUP-FOR-CALL-IUCP9150.                       IUCP9102
          723: 00723      PERFORM  J170-SETUP-FOR-CALL-IUCP9152.                       IUCP9102
          874: 00874      PERFORM  J110-SETUP-FOR-CALL-IUCP9124.                       IUCP9102
          929: 00929      PERFORM    J140-SETUP-FOR-CALL-ITCP9700.                     IUCP9102
         1016: 01016      PERFORM J110-SETUP-FOR-CALL-IUCP9124.                        IUCP9102
         1095: 01095  J110-SETUP-FOR-CALL-IUCP9124.                                    IUCP9102
         1100: 01100      MOVE     CWSNM-IUCP9124-NAME          TO                     IUCP9102
         1199: 01199  J140-SETUP-FOR-CALL-ITCP9700.                                    IUCP9102
         1204: 01204      MOVE       CWSNM-ITCP9700-NAME        TO                     IUCP9102
         1317: 01317  J160-SETUP-FOR-CALL-IUCP9150.                                    IUCP9102
         1322: 01322      MOVE       CWSNM-IUCP9150-NAME        TO                     IUCP9102
         1325: 01325      MOVE       CWSNM-IUCP9150-NAME        TO                     IUCP9102
         1331: 01331      MOVE       CWSNM-IUCP9150-NAME        TO                     IUCP9102
         1334: 01334      PERFORM    T200-CALL-IUCP9150.                               IUCP9102
         1341: 01341  J170-SETUP-FOR-CALL-IUCP9152.                                    IUCP9102
         1346: 01346      MOVE       CWSNM-IUCP9152-NAME        TO                     IUCP9102
         1349: 01349      MOVE       CWSNM-IUCP9152-NAME        TO                     IUCP9102
         1355: 01355      MOVE       CWSNM-IUCP9152-NAME        TO                     IUCP9102
         1358: 01358      PERFORM    T300-CALL-IUCP9152.                               IUCP9102
         1487: 01487  T200-CALL-IUCP9150.                                              IUCP9102
         1535: 01535  T300-CALL-IUCP9152.                                              IUCP9102
0    ELEMENT   IUCP9104
            3: 00003  PROGRAM-ID.                     IUCP9104.                        PD LV001
           11: 00011 *   MODULE:       IUCP9104                                       *IUCP9104
           35: 00035 *                               - ADDED A CALL TO ITCP9248 TO    *IUCP9104
           77: 00077      VALUE 'IUCP9104 VERSION 08.1 RELEASED 02/08/02'.             IUCP9104
          275: 00275      '******    IUCP9104 WORKING-STORAGE ENDS HERE      *******'. IUCP9104
          883: 00883      MOVE     CWSNM-ITCP9248-NAME          TO                     IUCP9104
          890: 00890      MOVE     CWSNM-ITCP9248-NAME          TO                     IUCP9104
          893: 00893      PERFORM  TA-CALL-ITCP9248.                                   IUCP9104
         1018: 01018  TA-CALL-ITCP9248.                                                IUCP9104
0    ELEMENT   IUCP9108
            3: 00003  PROGRAM-ID.                       IUCP9108.                      PD LV001
           11: 00011 *   MODULE:       IUCP9108                                       *IUCP9108
           85: 00085      VALUE 'IUCP9108 VERSION 08.0 RELEASED 07/31/00'.             IUCP9108
          117: 00117          'INVALID FUNCTION - IUCP9108'.                           IUCP9108
0    ELEMENT   IUCP9112
            2: 00002  PROGRAM-ID.                       IUCP9112.                      IUCP9112
           10: 00010 *   MODULE:       IUCP9112                                       *IUCP9112
           69: 00069 *                                 ITCP9248.                      *IUCP9112
          152: 00152      VALUE 'IUCP9112 VERSION 19.0 RELEASED 01/12/04'.             IUCP9112
         1071: 01071      MOVE     CWSNM-ITCP9248-NAME          TO                     IUCP9112
         1078: 01078      MOVE     CWSNM-ITCP9248-NAME          TO                     IUCP9112
         1081: 01081      PERFORM  T100-CALL-ITCP9248.                                 IUCP9112
1        1822: 01822  T100-CALL-ITCP9248.                                              IUCP9112
0    ELEMENT   IUCP9116
          669: 00669      PERFORM JA-SET-UP-CALL-IUCP9118                              IUCP9116
          679: 00679      PERFORM JB-SET-UP-CALL-IUCP9120                              IUCP9116
          689: 00689      PERFORM JC-SET-UP-CALL-IUCP9122                              IUCP9116
          799: 00799  JA-SET-UP-CALL-IUCP9118.                                         IUCP9116
          801: 00801      MOVE CWSNM-IUCP9118-NAME TO WS-REQUESTED-MODULE              IUCP9116
          805: 00805      MOVE CWSNM-IUCP9118-NAME TO                                  IUCP9116
          810: 00810  JB-SET-UP-CALL-IUCP9120.                                         IUCP9116
          812: 00812      MOVE CWSNM-IUCP9120-NAME TO WS-REQUESTED-MODULE              IUCP9116
          816: 00816      MOVE CWSNM-IUCP9120-NAME TO                                  IUCP9116
          821: 00821  JC-SET-UP-CALL-IUCP9122.                                         IUCP9116
          823: 00823      MOVE CWSNM-IUCP9122-NAME TO WS-REQUESTED-MODULE              IUCP9116
          827: 00827      MOVE CWSNM-IUCP9122-NAME TO                                  IUCP9116
0    ELEMENT   IUCP9118
            2: 00002  PROGRAM-ID.                       IUCP9118.                      IUCP9118
           10: 00010 *   MODULE:       IUCP9118                                       *IUCP9118
          224: 00224      VALUE 'IUCP9118 VERSION 23.0 RELEASED 12/23/04'.             IUCP9118
0    ELEMENT   IUCP9120
            2: 00002  PROGRAM-ID.                     IUCP9120.                        IUCP9120
           10: 00010 *   MODULE:       IUCP9120                                       *IUCP9120
          220: 00220      VALUE 'IUCP9120 VERSION 21.0 RELEASED 06/30/04'.             IUCP9120
0    ELEMENT   IUCP9122
            2: 00002  PROGRAM-ID.                     IUCP9122.                        IUCP9122
           10: 00010 *   MODULE:       IUCP9122                                       *IUCP9122
          143: 00143      VALUE 'IUCP9122 VERSION 19.0 RELEASED 12/23/04'.             IUCP9122
0    ELEMENT   IUCP9124
            2: 00002  PROGRAM-ID.                     IUCP9124.                        IUCP9124
           10: 00010 *   MODULE:       IUCP9124                                       *IUCP9124
          230: 00230      VALUE 'IUCP9124 VERSION 26.0 RELEASED 12/23/04'.             IUCP9124
          428: 00428          '------ IUCP9124 TERMINATED ABNORMALLY ------ '.         IUCP9124
          470: 00470      '***  IUCP9124 WORKING-STORAGE ENDS HERE  ***'.              IUCP9124
0    ELEMENT   IUCP9132
            2: 00002  PROGRAM-ID.                    IUCP9132.                         IUCP9132
           10: 00010 *   MODULE:       IUCP9132                                       *IUCP9132
          274: 00274      VALUE 'IUCP9132 VERSION 21.0 RELEASED 12/23/04'.             IUCP9132
0    ELEMENT   IUCP9134
            2: 00002  PROGRAM-ID.                     IUCP9134.                        IUCP9134
           10: 00010 *   MODULE:       IUCP9134                                       *IUCP9134
           81: 00081      'IUCP9134 VERSION 11.0 RELEASED 01/12/04'.                   IUCP9134
0    ELEMENT   IUCP9150
            2: 00002  PROGRAM-ID.                     IUCP9150.                        IUCP9150
           10: 00010 *   MODULE:       IUCP9150                                       *IUCP9150
          146: 00146      VALUE 'IUCP9150 VERSION 07.1 RELEASED 02/25/05'.             IUCP9150
         1825: 01825      PERFORM  J060-SETUP-FOR-CALL-IUCP9132.                       IUCP9150
         1849: 01849      PERFORM  J060-SETUP-FOR-CALL-IUCP9132.                       IUCP9150
         1910: 01910      PERFORM  J090-SETUP-FOR-CALL-IUCP9104.                       IUCP9150
         2041: 02041      PERFORM J080-SETUP-FOR-CALL-ITCP9700.                        IUCP9150
         2077: 02077      MOVE       CWSNM-ITCP9248-NAME        TO                     IUCP9150
         2081: 02081      PERFORM  J150-SETUP-FOR-CALL-ITCP9248.                       IUCP9150
         2119: 02119          PERFORM  J140-SETUP-FOR-CALL-IUCP9112                    IUCP9150
         2124: 02124          PERFORM  J260-SETUP-FOR-CALL-IUCP9164.                   IUCP9150
1        2323: 02323      PERFORM  J230-SETUP-FOR-CALL-IUCP9134.                       IUCP9150
         3383: 03383      PERFORM    J120-SETUP-FOR-CALL-IUCP9108.                     IUCP9150
         3451: 03451  F260-SEVERE-LOG-SETUP-IUCP9150.                                  IUCP9150
         4003: 04003      MOVE       CWSNM-IUCP9150-NAME        TO                     IUCP9150
         4089: 04089      PERFORM  J020-SETUP-FOR-CALL-IUCP9124.                       IUCP9150
         4331: 04331  J020-SETUP-FOR-CALL-IUCP9124.                                    IUCP9150
         4336: 04336      MOVE     CWSNM-IUCP9124-NAME          TO                     IUCP9150
         4480: 04480  J060-SETUP-FOR-CALL-IUCP9132.                                    IUCP9150
         4485: 04485      MOVE       CWSNM-IUCP9132-NAME        TO                     IUCP9150
         4550: 04550  J080-SETUP-FOR-CALL-ITCP9700.                                    IUCP9150
         4555: 04555      MOVE       CWSNM-ITCP9700-NAME        TO                     IUCP9150
         4621: 04621  J090-SETUP-FOR-CALL-IUCP9104.                                    IUCP9150
         4626: 04626      MOVE       CWSNM-IUCP9104-NAME        TO                     IUCP9150
         4736: 04736  J120-SETUP-FOR-CALL-IUCP9108.                                    IUCP9150
         4741: 04741      MOVE       CWSNM-IUCP9108-NAME        TO                     IUCP9150
         4812: 04812  J140-SETUP-FOR-CALL-IUCP9112.                                    IUCP9150
         4817: 04817      MOVE       CWSNM-IUCP9112-NAME        TO                     IUCP9150
         4873: 04873  J150-SETUP-FOR-CALL-ITCP9248.                                    IUCP9150
         4882: 04882      MOVE       CWSNM-ITCP9248-NAME        TO                     IUCP9150
         5102: 05102  J230-SETUP-FOR-CALL-IUCP9134.                                    IUCP9150
         5107: 05107      MOVE       CWSNM-IUCP9134-NAME        TO                     IUCP9150
         5213: 05213  J260-SETUP-FOR-CALL-IUCP9164.                                    IUCP9150
         5218: 05218      MOVE       CWSNM-IUCP9164-NAME        TO                     IUCP9150
         5808: 05808                 CWSNM-IUCP9150-NAME                               IUCP9150
         5809: 05809          MOVE   CWSEC-SEVERE-SYS-ERR-IUCP9150   TO                IUCP9150
         5813: 05813                 CWSNM-IUCP9152-NAME                               IUCP9150
         5814: 05814          MOVE   CWSEC-SEVERE-SYS-ERR-IUCP9152   TO                IUCP9150
         5833: 05833                 CWSNM-IUCP9104-NAME                               IUCP9150
         5834: 05834          MOVE   CWSEC-SEVERE-SYS-ERR-IUCP9104   TO                IUCP9150
         5843: 05843                 CWSNM-IUCP9108-NAME                               IUCP9150
         5844: 05844          MOVE   CWSEC-SEVERE-SYS-ERR-IUCP9108   TO                IUCP9150
         5853: 05853                 CWSNM-IUCP9112-NAME                               IUCP9150
         5854: 05854          MOVE   CWSEC-SEVERE-SYS-ERR-IUCP9112   TO                IUCP9150
         5868: 05868                 CWSNM-IUCP9118-NAME                               IUCP9150
         5869: 05869          MOVE   CWSEC-SEVERE-SYS-ERR-IUCP9118   TO                IUCP9150
         5873: 05873                 CWSNM-IUCP9120-NAME                               IUCP9150
         5874: 05874          MOVE   CWSEC-SEVERE-SYS-ERR-IUCP9120   TO                IUCP9150
         5878: 05878                 CWSNM-IUCP9122-NAME                               IUCP9150
         5879: 05879          MOVE   CWSEC-SEVERE-SYS-ERR-IUCP9122   TO                IUCP9150
         5883: 05883                 CWSNM-IUCP9124-NAME                               IUCP9150
         5884: 05884          MOVE   CWSEC-SEVERE-SYS-ERR-IUCP9124   TO                IUCP9150
         5893: 05893                 CWSNM-IUCP9132-NAME                               IUCP9150
         5894: 05894          MOVE   CWSEC-SEVERE-SYS-ERR-IUCP9132   TO                IUCP9150
         5978: 05978                 CWSNM-ITCP9700-NAME                               IUCP9150
         5979: 05979          MOVE   CWSEC-SEVERE-SYS-ERR-ITCP9700   TO                IUCP9150
         6224: 06224          MOVE CWSNM-IUCP9150-NAME                    TO           IUCP9150
         6238: 06238          MOVE CWSNM-IUCP9150-NAME                    TO           IUCP9150
         6252: 06252          MOVE CWSNM-IUCP9150-NAME                    TO           IUCP9150
         6266: 06266          MOVE CWSNM-IUCP9150-NAME                    TO           IUCP9150
         6284: 06284          MOVE CWSNM-IUCP9150-NAME                    TO           IUCP9150
         7081: 07081      MOVE       CWSEC-SEVERE-SYS-ERR-IUCP9150 TO                  IUCP9150
         7087: 07087      PERFORM    F260-SEVERE-LOG-SETUP-IUCP9150.                   IUCP9150
0    ELEMENT   IUCP9152
            2: 00002  PROGRAM-ID.                     IUCP9152.                        IUCP9152
           10: 00010 *   MODULE:       IUCP9152                                       *IUCP9152
           34: 00034 *                                 IUCP9122.                      *IUCP9152
          164: 00164      VALUE 'IUCP9152 VERSION 07.1 RELEASED 02/25/05'.             IUCP9152
         2234: 02234      PERFORM    N500-SETUP-FOR-CALL-IUCP9124.                     IUCP9152
         2297: 02297      PERFORM  J050-SETUP-FOR-CALL-IUCP9132.                       IUCP9152
1        2337: 02337      PERFORM  J050-SETUP-FOR-CALL-IUCP9132.                       IUCP9152
         2541: 02541      PERFORM J070-SETUP-FOR-CALL-ITCP9700.                        IUCP9152
         2605: 02605          PERFORM  J120-SETUP-FOR-CALL-IUCP9112                    IUCP9152
         2610: 02610          PERFORM  J230-SETUP-FOR-CALL-IUCP9164.                   IUCP9152
         2775: 02775      PERFORM  J210-SETUP-FOR-CALL-IUCP9134.                       IUCP9152
         3622: 03622      PERFORM    J110-SETUP-FOR-CALL-IUCP9108.                     IUCP9152
         4231: 04231  F180-SEVERE-LOG-SETUP-IUCP9152.                                  IUCP9152
         5045: 05045      MOVE       CWSNM-ITCP9248-NAME        TO                     IUCP9152
         5049: 05049      PERFORM    J130-SETUP-FOR-CALL-ITCP9248.                     IUCP9152
         5220: 05220  J050-SETUP-FOR-CALL-IUCP9132.                                    IUCP9152
         5225: 05225      MOVE       CWSNM-IUCP9132-NAME        TO                     IUCP9152
         5290: 05290  J070-SETUP-FOR-CALL-ITCP9700.                                    IUCP9152
         5295: 05295      MOVE       CWSNM-ITCP9700-NAME        TO                     IUCP9152
         5474: 05474  J110-SETUP-FOR-CALL-IUCP9108.                                    IUCP9152
         5479: 05479      MOVE       CWSNM-IUCP9108-NAME        TO                     IUCP9152
         5509: 05509  J120-SETUP-FOR-CALL-IUCP9112.                                    IUCP9152
         5514: 05514      MOVE       CWSNM-IUCP9112-NAME        TO                     IUCP9152
         5570: 05570  J130-SETUP-FOR-CALL-ITCP9248.                                    IUCP9152
         5579: 05579      MOVE       CWSNM-ITCP9248-NAME        TO                     IUCP9152
         5817: 05817  J210-SETUP-FOR-CALL-IUCP9134.                                    IUCP9152
         5822: 05822      MOVE       CWSNM-IUCP9134-NAME        TO                     IUCP9152
         5899: 05899  J230-SETUP-FOR-CALL-IUCP9164.                                    IUCP9152
         5904: 05904      MOVE       CWSNM-IUCP9164-NAME        TO                     IUCP9152
         6145: 06145      MOVE       CWSNM-IUCP9152-NAME        TO                     IUCP9152
         6182: 06182      PERFORM  N500-SETUP-FOR-CALL-IUCP9124.                       IUCP9152
         6366: 06366  N500-SETUP-FOR-CALL-IUCP9124.                                    IUCP9152
         6371: 06371      MOVE     CWSNM-IUCP9124-NAME          TO                     IUCP9152
         6826: 06826                 CWSNM-IUCP9152-NAME                               IUCP9152
         6827: 06827          MOVE   CWSEC-SEVERE-SYS-ERR-IUCP9152   TO                IUCP9152
         6831: 06831                 CWSNM-IUCP9104-NAME                               IUCP9152
         6832: 06832          MOVE   CWSEC-SEVERE-SYS-ERR-IUCP9104   TO                IUCP9152
         6841: 06841                 CWSNM-IUCP9108-NAME                               IUCP9152
         6842: 06842          MOVE   CWSEC-SEVERE-SYS-ERR-IUCP9108   TO                IUCP9152
         6851: 06851                 CWSNM-IUCP9112-NAME                               IUCP9152
         6852: 06852          MOVE   CWSEC-SEVERE-SYS-ERR-IUCP9112   TO                IUCP9152
         6866: 06866                 CWSNM-IUCP9118-NAME                               IUCP9152
         6867: 06867          MOVE   CWSEC-SEVERE-SYS-ERR-IUCP9118   TO                IUCP9152
         6871: 06871                 CWSNM-IUCP9120-NAME                               IUCP9152
         6872: 06872          MOVE   CWSEC-SEVERE-SYS-ERR-IUCP9120   TO                IUCP9152
         6876: 06876                 CWSNM-IUCP9122-NAME                               IUCP9152
         6877: 06877          MOVE   CWSEC-SEVERE-SYS-ERR-IUCP9122   TO                IUCP9152
         6881: 06881                 CWSNM-IUCP9124-NAME                               IUCP9152
         6882: 06882          MOVE   CWSEC-SEVERE-SYS-ERR-IUCP9124   TO                IUCP9152
         6891: 06891                 CWSNM-IUCP9132-NAME                               IUCP9152
         6892: 06892          MOVE   CWSEC-SEVERE-SYS-ERR-IUCP9132   TO                IUCP9152
         6976: 06976                 CWSNM-ITCP9700-NAME                               IUCP9152
         6977: 06977          MOVE   CWSEC-SEVERE-SYS-ERR-ITCP9700   TO                IUCP9152
         7169: 07169          MOVE CWSNM-IUCP9152-NAME                    TO           IUCP9152
         7183: 07183          MOVE CWSNM-IUCP9152-NAME                    TO           IUCP9152
         7197: 07197          MOVE CWSNM-IUCP9152-NAME                    TO           IUCP9152
         7211: 07211          MOVE CWSNM-IUCP9152-NAME                    TO           IUCP9152
         7229: 07229          MOVE CWSNM-IUCP9152-NAME                    TO           IUCP9152
         8053: 08053      MOVE       CWSEC-SEVERE-SYS-ERR-IUCP9152 TO                  IUCP9152
         8056: 08056      PERFORM    F180-SEVERE-LOG-SETUP-IUCP9152.                   IUCP9152
0    ELEMENT   IUCP9160
           25: 00025 *                                 WHEN CALLING IUCP9132.         *IUCP9160
          412: 00412         CWSNM-ITCP9248-NAME                                       IUCP9160
          413: 00413          PERFORM J030-SETUP-FOR-CALL-ITCP9248                     IUCP9160
          428: 00428         CWSNM-ITCP9700-NAME                                       IUCP9160
1         429: 00429          PERFORM J060-SETUP-FOR-CALL-ITCP9700                     IUCP9160
          444: 00444         CWSNM-IUCP9104-NAME                                       IUCP9160
          445: 00445          PERFORM J100-SETUP-FOR-CALL-IUCP9104                     IUCP9160
          452: 00452         CWSNM-IUCP9108-NAME                                       IUCP9160
          453: 00453          PERFORM J120-SETUP-FOR-CALL-IUCP9108                     IUCP9160
          460: 00460         CWSNM-IUCP9112-NAME                                       IUCP9160
          461: 00461          PERFORM J140-SETUP-FOR-CALL-IUCP9112                     IUCP9160
          472: 00472         CWSNM-IUCP9124-NAME                                       IUCP9160
          473: 00473          PERFORM J170-SETUP-FOR-CALL-IUCP9124                     IUCP9160
          480: 00480         CWSNM-IUCP9132-NAME                                       IUCP9160
          481: 00481          PERFORM J190-SETUP-FOR-CALL-IUCP9132                     IUCP9160
          484: 00484         CWSNM-IUCP9134-NAME                                       IUCP9160
          485: 00485          PERFORM J200-SETUP-FOR-CALL-IUCP9134                     IUCP9160
          500: 00500         CWSNM-IUCP9164-NAME                                       IUCP9160
          501: 00501          PERFORM J260-SETUP-FOR-CALL-IUCP9164                     IUCP9160
          552: 00552  J030-SETUP-FOR-CALL-ITCP9248.                                    IUCP9160
          557: 00557      MOVE       CWSNM-ITCP9248-NAME        TO                     IUCP9160
          563: 00563      MOVE       CWSNM-ITCP9248-NAME        TO                     IUCP9160
          581: 00581      PERFORM    T030-CALL-ITCP9248.                               IUCP9160
          659: 00659  J060-SETUP-FOR-CALL-ITCP9700.                                    IUCP9160
          664: 00664      MOVE       CWSNM-ITCP9700-NAME        TO                     IUCP9160
          670: 00670      MOVE       CWSNM-ITCP9700-NAME        TO                     IUCP9160
          694: 00694      PERFORM    T060-CALL-ITCP9700.                               IUCP9160
          807: 00807  J100-SETUP-FOR-CALL-IUCP9104.                                    IUCP9160
          812: 00812      MOVE       CWSNM-IUCP9104-NAME        TO                     IUCP9160
          818: 00818      MOVE       CWSNM-IUCP9104-NAME        TO                     IUCP9160
          839: 00839      PERFORM    T100-CALL-IUCP9104.                               IUCP9160
          868: 00868  J120-SETUP-FOR-CALL-IUCP9108.                                    IUCP9160
          873: 00873      MOVE       CWSNM-IUCP9108-NAME        TO                     IUCP9160
          879: 00879      MOVE       CWSNM-IUCP9108-NAME        TO                     IUCP9160
          888: 00888      PERFORM    T120-CALL-IUCP9108.                               IUCP9160
          926: 00926  J140-SETUP-FOR-CALL-IUCP9112.                                    IUCP9160
          931: 00931      MOVE       CWSNM-IUCP9112-NAME        TO                     IUCP9160
          937: 00937      MOVE       CWSNM-IUCP9112-NAME        TO                     IUCP9160
          972: 00972      PERFORM    T140-CALL-IUCP9112.                               IUCP9160
         1051: 01051  J170-SETUP-FOR-CALL-IUCP9124.                                    IUCP9160
         1056: 01056      MOVE     CWSNM-IUCP9124-NAME          TO                     IUCP9160
         1062: 01062      MOVE     CWSNM-IUCP9124-NAME          TO                     IUCP9160
         1083: 01083      PERFORM T170-CALL-IUCP9124.                                  IUCP9160
         1109: 01109  J190-SETUP-FOR-CALL-IUCP9132.                                    IUCP9160
         1114: 01114      MOVE       CWSNM-IUCP9132-NAME        TO                     IUCP9160
         1120: 01120      MOVE       CWSNM-IUCP9132-NAME        TO                     IUCP9160
         1135: 01135      PERFORM    T190-CALL-IUCP9132.                               IUCP9160
         1141: 01141  J200-SETUP-FOR-CALL-IUCP9134.                                    IUCP9160
         1146: 01146      MOVE       CWSNM-IUCP9134-NAME        TO                     IUCP9160
         1152: 01152      MOVE       CWSNM-IUCP9134-NAME        TO                     IUCP9160
         1155: 01155      PERFORM    T200-CALL-IUCP9134.                               IUCP9160
         1227: 01227  J260-SETUP-FOR-CALL-IUCP9164.                                    IUCP9160
         1232: 01232      MOVE       CWSNM-IUCP9164-NAME        TO                     IUCP9160
         1238: 01238      MOVE       CWSNM-IUCP9164-NAME        TO                     IUCP9160
         1241: 01241      PERFORM    T260-CALL-IUCP9164.                               IUCP9160
         1289: 01289  T030-CALL-ITCP9248.                                              IUCP9160
         1331: 01331  T060-CALL-ITCP9700.                                              IUCP9160
         1418: 01418  T100-CALL-IUCP9104.                                              IUCP9160
         1441: 01441  T120-CALL-IUCP9108.                                              IUCP9160
         1462: 01462  T140-CALL-IUCP9112.                                              IUCP9160
         1547: 01547  T170-CALL-IUCP9124.                                              IUCP9160
         1579: 01579  T190-CALL-IUCP9132.                                              IUCP9160
         1596: 01596  T200-CALL-IUCP9134.                                              IUCP9160
         1695: 01695  T260-CALL-IUCP9164.                                              IUCP9160
1    ELEMENT   IUCP9164
            2: 00002  PROGRAM-ID.                       IUCP9164.                      IUCP9164
           10: 00010 *   MODULE:       IUCP9164                                       *IUCP9164
           72: 00072      VALUE 'IUCP9164 VERSION 04.0 RELEASED 01/12/04'.             IUCP9164
          901: 00901      MOVE     CWSNM-ITCP9248-NAME          TO                     IUCP9164
          908: 00908      MOVE     CWSNM-ITCP9248-NAME          TO                     IUCP9164
          911: 00911      PERFORM  T100-CALL-ITCP9248.                                 IUCP9164
         2106: 02106  T100-CALL-ITCP9248.                                              IUCP9164
0    ELEMENT   IUCP9170
           98: 00098         PERFORM B100-CALL-IUCP9172.                               IUCP9170
          102: 00102  B100-CALL-IUCP9172.                                              IUCP9170
          109: 00109      MOVE       CWSNM-IUCP9172-NAME        TO                     IUCP9170
          112: 00112      CALL CWSNM-IUCP9172-NAME  USING ITSIAPC                      IUCP9170
0    ELEMENT   IUCP9172
            2: 00002  PROGRAM-ID.                 IUCP9172.                            IUCP9172
           10: 00010 *   MODULE:       IUCP9172                                       *IUCP9172
           40: 00040        VALUE 'IUCP9172 VERSION 01.0 RELEASED 12/23/04'.           IUCP9172
         1670: 01670      MOVE CWSEC-SEVERE-SYS-ERR-IUCP9172  TO                       IUCP9172
0    ELEMENT   IUCP9356
          469: 00469                  PERFORM J300-SETUP-FOR-CALL-ITCP9358.            IUCP9356
          902: 00902  J300-SETUP-FOR-CALL-ITCP9358.                                    IUCP9356
          907: 00907      MOVE       CWSPN-ITCP9358-NAME             TO                IUCP9356
          919: 00919      MOVE       CWSPN-ITCP9358-NAME             TO                IUCP9356
          922: 00922      PERFORM    T300-CALL-ITCP9358.                               IUCP9356
         1036: 01036  T300-CALL-ITCP9358.                                              IUCP9356
1ENVIRONMENT  BCBS01    SYSTEM  ITS       SUBSYSTEM  ALIM
 TYPE  COBOL     STAGE NUMBER 2 .
0    ELEMENT   IULP9038
          346:                                             'IUCP9038-05'.
          349:                                             'IUCP9038-07'.
         7139:            05  CS-IULP9220-ENTERED           PIC X(01)  VALUE SPACES.
         2799:            MOVE LIACS-IULP9220-ENTERED-IND
         2800:              TO CS-IULP9220-ENTERED.
0    ELEMENT   IULP9102
            2:        PROGRAM-ID.                     IULP9102.
           10: 001000*   MODULE      : IULP9102                                       *
           28:       *                                  FOR THE CALL TO IULP9346      *
           50:       *                                  CALL TO IULP9346(WILL RESULT  *
          102:            05  WS-MODULE-ID               PIC X(08) VALUE 'IULP9102'.
          179:       *    ONLY USED IN THE CALL TO IULP9346
          251:            '***  IULP9102 WORKING-STORAGE ENDS HERE  ***'.
          531:            PERFORM J100-CALL-IULP9346-OPEN-FILES THRU J100-EXIT.
          563:            PERFORM J200-CALL-IULP9346-CLOSE-FILES THRU J200-EXIT.
          605:            PERFORM J300-SETUP-IULP9112 THRU J300-EXIT.
          687:            PERFORM J400-SETUP-IULP9346-PRE-ALIM THRU J400-EXIT.
          758:            PERFORM J500-SETUP-IULP9346-POST-ALIM THRU J500-EXIT.
          802:            PERFORM J600-SETUP-IULP9140-INIT THRU J600-EXIT.
          896:            PERFORM J500-SETUP-IULP9346-POST-ALIM THRU J500-EXIT.
          980:        J100-CALL-IULP9346-OPEN-FILES.
          985:            MOVE       LWSNM-IULP9346-NAME             TO
          992:            PERFORM T400-CALL-IULP9346 THRU T400-EXIT.
         1005:        J200-CALL-IULP9346-CLOSE-FILES.
         1010:            MOVE       LWSNM-IULP9346-NAME             TO
         1017:            PERFORM T400-CALL-IULP9346 THRU T400-EXIT.
         1030:        J300-SETUP-IULP9112.
         1035:            MOVE       LWSNM-IULP9112-NAME             TO
         1040:            PERFORM    T300-CALL-IULP9112 THRU T300-EXIT.
         1052:        J400-SETUP-IULP9346-PRE-ALIM.
         1057:            MOVE       LWSNM-IULP9346-NAME             TO
         1068:            PERFORM T400-CALL-IULP9346 THRU T400-EXIT.
         1081:        J500-SETUP-IULP9346-POST-ALIM.
         1086:            MOVE       LWSNM-IULP9346-NAME             TO
         1099:            PERFORM T400-CALL-IULP9346 THRU T400-EXIT.
         1114:        J600-SETUP-IULP9140-INIT.
         1119:            MOVE       LWSNM-IULP9140-NAME             TO
         1124:            PERFORM T600-CALL-IULP9140 THRU T600-EXIT.
         1218:        T300-CALL-IULP9112.
         1222:            CALL 'IULP9112'          USING ITSIAPC
         1254:        T400-CALL-IULP9346.
         1259:            CALL 'IULP9346'          USING WS-ITSIAPC
         1330:        T600-CALL-IULP9140.
         1335:            CALL 'IULP9140'          USING ITSIAPC
         1701:            MOVE LWSNM-IULP9102-NAME TO
         1706:            MOVE LWSNM-IULP9102-NAME TO
0    ELEMENT   IULP9112
            2:        PROGRAM-ID.                     IULP9112.
           10:       *   MODULE:       IULP9112                                       *
           85:       *         TO IULP9200) AND LR036 (MOVED TO IULP9442).            *00787002
          108:            05  WS-MODULE-ID               PIC X(8)  VALUE 'IULP9112'.   01001000
          115:                    'IULP9112-ALIM 1ST LEVEL VALID'.                     01008000
         1010:       *14.0.1  TD_92489  KJO  REMOVED LR035 EDIT --> IULP9200           09651003
1    ELEMENT   IULP9140
            2:        PROGRAM-ID.                       IULP9140.
           10:       *   MODULE:       IULP9140                                       *
           42:       *                                  WHEN INVOKING IULP9146        *
           50:       *                                  1.ADD IUCIADR TO CALL IULP9144*
           51:       *                                    IN PARA T400-CALL-IULP9144. *
          124:            05  WS-MODULE-ID               PIC X(8)  VALUE 'IULP9140'.   00030002
          131:                    'IULP9140-ALIM INIT CONTROL   '.                     00100002
          210:            '***  IULP9140 WORKING-STORAGE ENDS HERE  ***'.
          809:               PERFORM B200-START-CALL-IULP9146
          814:               PERFORM B300-START-CALL-IULP9142
          843:               PERFORM B400-START-CALL-IULP9144
          872:        B200-START-CALL-IULP9146.
          881:            PERFORM J200-SETUP-FOR-CALL-IULP9146.
          885:        B300-START-CALL-IULP9142.
          894:            PERFORM J300-SETUP-FOR-CALL-IULP9142.
          898:        B400-START-CALL-IULP9144.
          907:            PERFORM J400-SETUP-FOR-CALL-IULP9144.
         1236:            MOVE LWSNM-IULP9102-NAME         TO
         1260:        J200-SETUP-FOR-CALL-IULP9146.
         1265:            MOVE LWSNM-IULP9146-NAME         TO
         1274:            MOVE LWSNM-IULP9146-NAME         TO
         1277:            PERFORM T200-CALL-IULP9146.
         1284:        J300-SETUP-FOR-CALL-IULP9142.
         1289:            MOVE LWSNM-IULP9142-NAME         TO
         1298:            MOVE LWSNM-IULP9142-NAME         TO
         1301:            PERFORM T300-CALL-IULP9142.
         1308:        J400-SETUP-FOR-CALL-IULP9144.
         1313:            MOVE LWSNM-IULP9144-NAME         TO
         1322:            MOVE LWSNM-IULP9144-NAME         TO
         1325:            PERFORM T400-CALL-IULP9144.
         1385:        T200-CALL-IULP9146.
         1390:            CALL 'IULP9146'          USING ITSIAPC
         1399:        T300-CALL-IULP9142.
         1404:            CALL 'IULP9142'          USING ITSIAPC
         1417:        T400-CALL-IULP9144.
         1422:            CALL 'IULP9144'          USING ITSIAPC
         1486:                     PERFORM C520-PREP-AND-CALL-IULP9148
         1549:            PERFORM D400-START-CALL-IULP9147-SAVE.
         1551:        D400-START-CALL-IULP9147-SAVE.
         1557:            PERFORM J510-SETUP-FOR-CALL-IULP9147.
         1559:        J510-SETUP-FOR-CALL-IULP9147.
         1562:            MOVE LWSNM-IULP9147-NAME         TO
         1569:            MOVE LWSNM-IULP9147-NAME         TO
         1571:            PERFORM T510-CALL-IULP9147.
         1575:        T510-CALL-IULP9147.
         1579:            CALL 'IULP9147'          USING ITSIAPC
         1633:            PERFORM E100-START-CALL-IULP9149.
         1635:        E100-START-CALL-IULP9149.
         1641:            PERFORM J500-SETUP-FOR-CALL-IULP9149.
         1643:        J500-SETUP-FOR-CALL-IULP9149.
         1646:            MOVE LWSNM-IULP9149-NAME         TO
         1653:            MOVE LWSNM-IULP9149-NAME         TO
         1655:            PERFORM T500-CALL-IULP9149.
         1659:        T500-CALL-IULP9149.
         1663:            CALL 'IULP9149'          USING ITSIAPC
         1670:        C520-PREP-AND-CALL-IULP9148.
         1672:            PERFORM D500-START-CALL-IULP9148.
         1674:        D500-START-CALL-IULP9148.
         1680:            PERFORM J600-SETUP-FOR-CALL-IULP9148.
1        1683:        J600-SETUP-FOR-CALL-IULP9148.
         1686:            MOVE LWSNM-IULP9148-NAME         TO
         1693:            MOVE LWSNM-IULP9148-NAME         TO
         1695:            PERFORM T600-CALL-IULP9148.
         1699:        T600-CALL-IULP9148.
         1703:            CALL 'IULP9148'          USING ITSIAPC
         1714:            PERFORM D400-START-CALL-IULP9147-REST.
         1716:        D400-START-CALL-IULP9147-REST.
         1722:            PERFORM J510-SETUP-FOR-CALL-IULP9147.
0    ELEMENT   IULP9142
            2:        PROGRAM-ID.                     IULP9142.
           10:       *   MODULE:       IULP9142                                       *
           18:       *                 (IULP9140).  IT WILL UPDATE THE PORTION OF     *
          151:            05  WS-MODULE-ID               PIC X(8)  VALUE 'IULP9142'.
          158:                    'IULP9142-ALIM INIT FUNC CS UPDT'.
          406:            '***  IULP9142 WORKING-STORAGE ENDS HERE  ***'.
0    ELEMENT   IULP9144
            2:        PROGRAM-ID.                       IULP9144.
           10: 001000*   MODULE      : IULP9144                                       *
          185:            05  WS-MODULE-ID               PIC X(08) VALUE 'IULP9144'.
          239:            '***  IULP9144 WORKING-STORAGE ENDS HERE  ***'.
          731: 129517*    MUST BE KEPT IN SYNC WITH LOGIC IN IUCP9152
0    ELEMENT   IULP9146
            2:        PROGRAM-ID.                   IULP9146.
           10:       *   MODULE:       IULP9146                                       *
           17:       *   FUNCTION:     THIS MODULE SETS UP INPUT TO ITCP9248 (UPF     *
           25:       *                                  WHEN INVOKING ITCP9248        *
           62:            '***  IULP9146 WORKING-STORAGE STARTS  ***'.
           69: 005600         'IULP9146 VERSION 05.4 RELEASED 02/25/16'.
          186:            PERFORM J100-SETUP-FOR-CALL-ITCP9248.
          188:            PERFORM T100-CALL-ITCP9248.
          238:        J100-SETUP-FOR-CALL-ITCP9248.
          255:            MOVE       CWSPN-ITCP9248-NAME             TO
          316:        T100-CALL-ITCP9248.
          321:            CALL 'ITCP9248'          USING  ITSIAPC
0    ELEMENT   IULP9147
            2:        PROGRAM-ID.                       IULP9147.
           10:       *   MODULE:       IULP9147                                       *
           37: 003300     VALUE 'IULP9147 VERSION 02.1 RELEASED 11/07/13 '.
           70:            '***  IULP9147 WORKING-STORAGE ENDS HERE  ***'.
0    ELEMENT   IULP9148
            2:        PROGRAM-ID.                     IULP9148.
           10:       *   MODULE:       IULP9148                                       *
           19:       *                 (IULP9140).  IT WILL UPDATE THE PORTION OF     *
           51: 004500     VALUE 'IULP9148 VERSION 02.1 RELEASED 05/17/12 '.
           86:            '***  IULP9148 WORKING-STORAGE ENDS HERE  ***'.
0    ELEMENT   IULP9149
            2:        PROGRAM-ID.                       IULP9149.
           10:       *   MODULE:       IULP9149                                       *
           45:            05  WS-MODULE-ID               PIC X(8)  VALUE 'IULP9149'.
           52:                    'IULP9149-ALIM OUTPT AREA INIT'.
           64:            '***  IULP9149 WORKING-STORAGE ENDS HERE  ***'.
0    ELEMENT   IULP9160
1         329:                MOVE       LWSNM-IULP9188-NAME             TO
          360:            CALL 'IULP9188'          USING ITSIAPC
0    ELEMENT   IULP9188
            2:        PROGRAM-ID.                     IULP9188.
           10:       *   MODULE:       IULP9188                                       *
           38:       *                                  1.ADD IUCIADR TO CALL IULP9144*
           39:       *                                    IN PARA T700-CALL-IULP9144. *
           46:       *                                  1.MOD T800-CALL-IULP9222      *
           65:       *                                  3.T500-CALL-IULP9240.         *
           67:       *                                  4.T700-CALL-IULP9144.         *
          107: 122850*         IULP9218 CAN NOW RETURN UNSUCCESSFUL.                  *00011000
          129:            05  WS-MODULE-ID               PIC X(8)  VALUE 'IULP9188'.
          136:                    'IULP9188-ALIM LINE CNTRL L2  '.
          237:            '***  IULP9188 WORKING-STORAGE ENDS HERE  ***'.
          515:            PERFORM J200-SETUP-IULP9200 THRU J200-EXIT.
          659:            PERFORM J500-SETUP-IULP9240 THRU J500-EXIT.
          679:            PERFORM J800-SETUP-IULP9222 THRU J800-EXIT.
          696:            PERFORM J600-SETUP-IULP9260 THRU J600-EXIT.
          715:            PERFORM J700-SETUP-IULP9144 THRU J700-EXIT.
          877:        J200-SETUP-IULP9200.
          880:            MOVE LWSNM-IULP9200-NAME TO WS-REQUESTED-MODULE.
          884:            PERFORM T200-CALL-IULP9200 THRU T200-EXIT.
          927:        J500-SETUP-IULP9240.
          930:            MOVE LWSNM-IULP9240-NAME TO WS-REQUESTED-MODULE.
          934:            PERFORM T500-CALL-IULP9240 THRU T500-EXIT.
          946:        J600-SETUP-IULP9260.
          949:            MOVE LWSNM-IULP9260-NAME TO WS-REQUESTED-MODULE.
          953:            PERFORM T600-CALL-IULP9260 THRU T600-EXIT.
          963:        J700-SETUP-IULP9144.
          966:            MOVE LWSNM-IULP9144-NAME TO WS-REQUESTED-MODULE.
          970:            PERFORM T700-CALL-IULP9144 THRU T700-EXIT.
          980:        J800-SETUP-IULP9222.
          983:            MOVE LWSNM-IULP9222-NAME TO WS-REQUESTED-MODULE.
          987:            PERFORM T800-CALL-IULP9222 THRU T800-EXIT.
         1082:        T200-CALL-IULP9200.
         1086:            CALL 'IULP9200'          USING ITSIAPC
         1182:        T500-CALL-IULP9240.
         1186:            CALL 'IULP9240'          USING ITSIAPC
         1241:        T600-CALL-IULP9260.
         1245:            CALL 'IULP9260'          USING ITSIAPC,
         1259:        T700-CALL-IULP9144.
         1263:            CALL 'IULP9144'          USING ITSIAPC,
         1288:        T800-CALL-IULP9222.
         1292:            CALL 'IULP9222'          USING ITSIAPC,
0    ELEMENT   IULP9200
            2:        PROGRAM-ID.                     IULP9200.
           10:       *   MODULE:       IULP9200                                       *
           56:       *         ADD LR035 EDIT.  (MOVED FROM IULP9112).                *
           80:            VALUE '*** IULP9200 WORKING STORAGE ***'.
           84:            05  WS-MODULE-ID               PIC X(8)  VALUE 'IULP9200'.   00030002
           91:                    'IULP9200-ALIM LINE VALIDATION'.                     00100002
0    ELEMENT   IULP9202
          295:            PERFORM J100-SETUP-IULP9212.
          300:            PERFORM J150-SETUP-IULP9214.
          305:            PERFORM J100-SETUP-IULP9226.
          310:            PERFORM J100-SETUP-IULP9224.
          315:            PERFORM J150-SETUP-IULP9228.
1         318:        J100-SETUP-IULP9212.
          321:            MOVE LWSNM-IULP9212-NAME TO WS-REQUESTED-MODULE.
          322:            PERFORM T100-CALL-IULP9212.
          325:        J150-SETUP-IULP9214.
          328:            MOVE LWSNM-IULP9214-NAME TO WS-REQUESTED-MODULE.
          329:            PERFORM T150-CALL-IULP9214.
          332:        J100-SETUP-IULP9226.
          335:            MOVE LWSNM-IULP9226-NAME TO WS-REQUESTED-MODULE.
          336:            PERFORM T100-CALL-IULP9226.
          339:        J100-SETUP-IULP9224.
          342:            MOVE LWSNM-IULP9224-NAME TO WS-REQUESTED-MODULE.
          343:            PERFORM T100-CALL-IULP9224.
          346:        J150-SETUP-IULP9228.
          349:            MOVE LWSNM-IULP9228-NAME TO WS-REQUESTED-MODULE.
          350:            PERFORM T150-CALL-IULP9228.
          353:        T100-CALL-IULP9212.
          358:            CALL 'IULP9212'          USING ITSIAPC
          373:        T150-CALL-IULP9214.
          378:            CALL 'IULP9214'          USING ITSIAPC
          393:        T100-CALL-IULP9226.
          398:            CALL 'IULP9226'          USING ITSIAPC
          413:        T100-CALL-IULP9224.
          418:            CALL 'IULP9224'          USING ITSIAPC
          433:        T150-CALL-IULP9228.
          438:            CALL 'IULP9228'          USING ITSIAPC
0    ELEMENT   IULP9210
           37:       *                                  2.MOD B400-CALL-IULP9230      *
           41:       *        PASS SFCP TO IULP9216.                                  *00342001
           43:       *        AND ITCIACO TO IULP9230.                                *00342001
          184:            PERFORM B100-SETUP-IULP9216.
          186:            PERFORM B200-CALL-IULP9216.
          189:               PERFORM B300-SETUP-IULP9230
          191:               PERFORM B400-CALL-IULP9230
          205:        B100-SETUP-IULP9216.
          210:            MOVE       LWSNM-IULP9216-NAME             TO
          215:        B200-CALL-IULP9216.
          219:            CALL 'IULP9216'          USING ITSIAPC
          234:        B300-SETUP-IULP9230.
          239:            MOVE       LWSNM-IULP9230-NAME             TO
          244:        B400-CALL-IULP9230.
          248:            CALL 'IULP9230'          USING ITSIAPC
0    ELEMENT   IULP9212
            2:        PROGRAM-ID.                     IULP9212.
           10:       *   MODULE:       IULP9212                                       *
           46:       *                                       CS-IULP9220-ENTERED-IND  *
          112:            '***  IULP9212 WORKING-STORAGE STARTS  ***'.
          116:            05  WS-MODULE-ID               PIC X(8)  VALUE 'IULP9212'.   01013000
          123:                    'IULP9212-ALIM REPROC (L2) V/H'.                     01019100
          165:            '***  IULP9212 WORKING-STORAGE ENDS HERE  ***'.
          277:              TO LIACS-IULP9220-ENTERED-IND.
          655:                   MOVE LWSNM-IULP9212-NAME TO
          659:                   MOVE LWSNM-IULP9212-NAME   TO
0    ELEMENT   IULP9214
            2:        PROGRAM-ID.                     IULP9214.
           10:       *   MODULE:       IULP9214                                       *
           32: 003200*                                       CS-IULP9220-ENTERED-IND  *00320007
           95:            '***  IULP9214 WORKING-STORAGE STARTS  ***'.
1          99: 008200         'IULP9214 VERSION 05.4 RELEASED 11/12/15'.               00820000
          138:            '***  IULP9214 WORKING-STORAGE ENDS HERE  ***'.
          250:              TO LIACS-IULP9220-ENTERED-IND.
          610:                   MOVE LWSNM-IULP9214-NAME TO
          614:                   MOVE LWSNM-IULP9214-NAME   TO
0    ELEMENT   IULP9216
            2:        PROGRAM-ID.                     IULP9216.
           10:       *   MODULE:       IULP9216                                       *
           38:       *                                  B.B250-SPECIAL-INIT-IULP9220  *
           52:       *                                        CS-IULP9220-ENTERED-IND *
           78:       *        ADD SFCP.  PASS SFCP TO IULP9218.                       *
           80: 122850*        IULP9218.                                               *00779000
          102: 122850     05  WS-MODULE-ID               PIC X(8)  VALUE 'IULP9216'.   00993000
          109: 122850             'IULP9216 - CS PRE-HPA UPD MOD'.                     00999100
          159:            '***  IULP9216 WORKING-STORAGE ENDS HERE  ***'.
          235:            MOVE ZERO TO LIACS-IULP9220-ENTERED-IND.
          260:                      PERFORM B100-SETUP-IULP9218
          261:                      PERFORM B200-CALL-IULP9218
          268:                         PERFORM B100-SETUP-IULP9218
          269:                         PERFORM B200-CALL-IULP9218
          271:                         PERFORM B300-SETUP-IULP9220
          272:                         PERFORM B400-CALL-IULP9220
          299:                       PERFORM B500-SPECIAL-INIT-IULP9218
          300:                       PERFORM B100-SETUP-IULP9218
          301:                       PERFORM B200-CALL-IULP9218
          315:                       PERFORM B300-SETUP-IULP9220
          316:                       PERFORM B400-CALL-IULP9220
          319:                PERFORM B300-SETUP-IULP9220
          320:                PERFORM B400-CALL-IULP9220.
          333:        B100-SETUP-IULP9218.
          338:            MOVE       LWSNM-IULP9218-NAME             TO
          343:        B200-CALL-IULP9218.
          348:            CALL 'IULP9218'          USING ITSIAPC
          360:        B250-SPECIAL-INIT-IULP9220.
          388:        B300-SETUP-IULP9220.
          392:                PERFORM B250-SPECIAL-INIT-IULP9220.
          395:            MOVE       LWSNM-IULP9220-NAME             TO
          400:        B400-CALL-IULP9220.
          405:            CALL 'IULP9220'          USING ITSIAPC
          417:        B500-SPECIAL-INIT-IULP9218.
          523:                   MOVE LWSNM-IULP9216-NAME TO
          527:                   MOVE LWSNM-IULP9216-NAME   TO
0    ELEMENT   IULP9218
            2:        PROGRAM-ID.                     IULP9218.
           10:       *   MODULE:       IULP9218                                       *
          111:            05  WS-MODULE-ID               PIC X(8)  VALUE 'IULP9218'.
          118:                    'IULP9218 - L2 PRE-HPA INIT BL'.
          239:            '***  IULP9218 WORKING-STORAGE ENDS HERE  ***'.
0    ELEMENT   IULP9220
            2:        PROGRAM-ID.                     IULP9220.
           10:       *   MODULE:       IULP9220                                       *
           71:       *                                     SET CS-IULP9220-ENTERED    *
          112: 011200     05  WS-MODULE-ID               PIC X(8)  VALUE 'IULP9220'.   01082000
          120: 012000         10  WS-MODULE-DISPLAY      PIC X(8)  VALUE 'IULP9290'.   01089200
          192:            '***  IULP9220 WORKING-STORAGE ENDS HERE  ***'.
          252:            SET LIACS-IULP9220-ENTERED TO TRUE.
1    ELEMENT   IULP9222
            2:        PROGRAM-ID.                     IULP9222.
           10:       *   MODULE:       IULP9222                                       *
           19:       *                 "LINE" CONTROLLER IULP9188 TO BUILD COMPOSITE  *
           78:            05  WS-MODULE-ID               PIC X(8)  VALUE 'IULP9222'.
           85:                    'IULP9222-SUBSEQ CO & CS BUILD '.
          131:            '***  IULP9222 WORKING-STORAGE ENDS HERE  ***'.
0    ELEMENT   IULP9224
            2:        PROGRAM-ID.                     IULP9224.
           10:       *   MODULE:       IULP9224                                       *
           70:            '***  IULP9224 WORKING-STORAGE STARTS  ***'.
           74: 005900         'IULP9224 VERSION 03.4 RELEASED 11/12/15'.               00590000
          112:            '***  IULP9224 WORKING-STORAGE ENDS HERE  ***'.
          220:              TO LIACS-IULP9220-ENTERED-IND.
          573:                   MOVE LWSNM-IULP9224-NAME TO
          577:                   MOVE LWSNM-IULP9224-NAME   TO
0    ELEMENT   IULP9226
            2:        PROGRAM-ID.                     IULP9226.
           10:       *   MODULE:       IULP9226                                       *
           71:            '***  IULP9226 WORKING-STORAGE STARTS  ***'.
           75: 005900         'IULP9226 VERSION 03.4 RELEASED 11/12/15'.
          113:            '***  IULP9226 WORKING-STORAGE ENDS HERE  ***'.
          221:              TO LIACS-IULP9220-ENTERED-IND.
          574:                   MOVE LWSNM-IULP9226-NAME TO
          578:                   MOVE LWSNM-IULP9226-NAME   TO
0    ELEMENT   IULP9228
            2:        PROGRAM-ID.                     IULP9228.
           10:       *   MODULE:       IULP9228                                       *
           71:            '***  IULP9228 WORKING-STORAGE STARTS  ***'.
           75: 005900         'IULP9228 VERSION 03.4 RELEASED 11/12/15'.               00590000
          113:            '***  IULP9228 WORKING-STORAGE ENDS HERE  ***'.
          221:              TO LIACS-IULP9220-ENTERED-IND.
          577:                   MOVE LWSNM-IULP9228-NAME TO
          581:                   MOVE LWSNM-IULP9228-NAME   TO
0    ELEMENT   IULP9230
            2:        PROGRAM-ID.                       IULP9230.
           10:       *   MODULE      : IULP9230                                       *
           19:       *                 MODULE (IULP9290) TO BUILD THE LINE ITEM       *
          154:            05  WS-MODULE-ID               PIC X(08) VALUE 'IULP9230'.
          333:            '***  IULP9230 WORKING-STORAGE ENDS HERE  ***'.
         1516:            IF LIACS-IULP9220-ENTERED
0    ELEMENT   IULP9240
            2:        PROGRAM-ID.                       IULP9240.
           10:       *   MODULE:       IULP9240                                       *
           17:       *   FUNCTION:     THIS MODULE IS CALLED BY THE IULP9188 MODULE.  *
           94:            05  WS-MODULE-ID               PIC X(8)  VALUE 'IULP9240'.
          101:                    'IULP9240-ALIM Z MODIFIER CNTL'.
          184:            '***  IULP9240 WORKING-STORAGE ENDS HERE  ***'.
          535:            PERFORM J100-SETUP-IULP9242 THRU J100-EXIT.
          683:        J100-SETUP-IULP9242.
          688:            MOVE       LWSNM-IULP9242-NAME             TO
          693:            PERFORM    T100-CALL-IULP9242 THRU T100-EXIT.
          858:        T100-CALL-IULP9242.
          863:            CALL 'IULP9242'          USING ITSIAPC
1    ELEMENT   IULP9242
            2:        PROGRAM-ID.                       IULP9242.
           10:       *   MODULE:       IULP9242                                       *
           17:       *   FUNCTION:     THIS MODULE IS CALLED BY THE IULP9240 MODULE.  *
           67:            '***  IULP9242 WORKING-STORAGE STARTS  ***'.
           71:            05  WS-MODULE-ID               PIC X(8)  VALUE 'IULP9242'.   00621000
           78:                    'IULP9242-ALIM Z MODIFIER SPLT'.                     00628000
          155:            '***  IULP9242 WORKING-STORAGE ENDS HERE  ***'.
0    ELEMENT   IULP9246
           18:       *   FUNCTION:     THIS MODULE IS CALLED BY THE IULP9240 MODULE.  *
0    ELEMENT   IULP9260
            2:        PROGRAM-ID.                     IULP9260.
           10:       *   MODULE:       IULP9260                                       *
          162:            05  WS-MODULE-ID               PIC X(8)  VALUE 'IULP9260'.
          169:                    'IULP9260- INTERFACE AREA UPDT'.
          281:            '***  IULP9260 WORKING-STORAGE ENDS HERE  ***'.
0    ELEMENT   IULP9270
           28:       *                                  1.MOD T300-CALL-IULP9286      *
           48:       *         IULP9294.                                              *
          327:            PERFORM J200-SETUP-IULP9284.
          335:            PERFORM J300-SETUP-IULP9286.
          374:            PERFORM J600-SETUP-IULP9292.
          386:            PERFORM J700-SETUP-IULP9294.
          414:        J200-SETUP-IULP9284.
          416:            MOVE LWSNM-IULP9284-NAME TO WS-REQUESTED-MODULE.
          418:            PERFORM T200-CALL-IULP9284.
          423:        J300-SETUP-IULP9286.
          425:            MOVE LWSNM-IULP9286-NAME TO WS-REQUESTED-MODULE.
          427:            PERFORM T300-CALL-IULP9286.
          441:        J600-SETUP-IULP9292.
          443:            MOVE LWSNM-IULP9292-NAME TO WS-REQUESTED-MODULE.
          445:            PERFORM T600-CALL-IULP9292.
          450:        J700-SETUP-IULP9294.
          452:            MOVE LWSNM-IULP9294-NAME TO WS-REQUESTED-MODULE.
          454:            PERFORM T700-CALL-IULP9294.
          476:        T200-CALL-IULP9284.
          479:            CALL 'IULP9284'          USING ITSIAPC
          489:        T300-CALL-IULP9286.
          492:            CALL 'IULP9286'          USING ITSIAPC
          556:        T600-CALL-IULP9292.
          559:            CALL 'IULP9292'          USING ITSIAPC
          567:        T700-CALL-IULP9294.
          570:            CALL 'IULP9294'          USING ITSIAPC
0    ELEMENT   IULP9272
          267:            PERFORM J100-SETUP-IULP9274.
          272:            PERFORM J150-SETUP-IULP9276.
          277:            PERFORM J100-SETUP-IULP9280.
          282:            PERFORM J100-SETUP-IULP9278.
          287:            PERFORM J150-SETUP-IULP9282.
          290:        J100-SETUP-IULP9274.
          293:            MOVE LWSNM-IULP9274-NAME TO WS-REQUESTED-MODULE.
          294:            PERFORM T100-CALL-IULP9274.
          297:        J150-SETUP-IULP9276.
          300:            MOVE LWSNM-IULP9276-NAME TO WS-REQUESTED-MODULE.
          301:            PERFORM T150-CALL-IULP9276.
          304:        J100-SETUP-IULP9280.
1         307:            MOVE LWSNM-IULP9280-NAME TO WS-REQUESTED-MODULE.
          308:            PERFORM T100-CALL-IULP9280.
          311:        J100-SETUP-IULP9278.
          314:            MOVE LWSNM-IULP9278-NAME TO WS-REQUESTED-MODULE.
          315:            PERFORM T100-CALL-IULP9278.
          318:        J150-SETUP-IULP9282.
          321:            MOVE LWSNM-IULP9282-NAME TO WS-REQUESTED-MODULE.
          322:            PERFORM T150-CALL-IULP9282.
          325:        T100-CALL-IULP9274.
          330:            CALL 'IULP9274'          USING ITSIAPC
          345:        T150-CALL-IULP9276.
          350:            CALL 'IULP9276'          USING ITSIAPC
          365:        T100-CALL-IULP9280.
          370:            CALL 'IULP9280'          USING ITSIAPC
          385:        T100-CALL-IULP9278.
          390:            CALL 'IULP9278'          USING ITSIAPC
          405:        T150-CALL-IULP9282.
          410:            CALL 'IULP9282'          USING ITSIAPC
0    ELEMENT   IULP9274
            2:        PROGRAM-ID.                     IULP9274.
           10:       *   MODULE:       IULP9274                                       *
           65:            '***  IULP9274 WORKING-STORAGE STARTS  ***'.
           69: 006000         'IULP9274 VERSION 03.3 RELEASED 11/07/13'.               00600000
          107:            '***  IULP9274 WORKING-STORAGE ENDS HERE  ***'.
          215:              TO LIACS-IULP9220-ENTERED-IND.
          549:                   MOVE LWSNM-IULP9274-NAME TO
          553:                   MOVE LWSNM-IULP9274-NAME   TO
0    ELEMENT   IULP9276
            2:        PROGRAM-ID.                     IULP9276.
           10:       *   MODULE:       IULP9276                                       *
           65:            '***  IULP9276 WORKING-STORAGE STARTS  ***'.
           69: 005900         'IULP9276 VERSION 03.3 RELEASED 11/07/13'.               00590000
          107:            '***  IULP9276 WORKING-STORAGE ENDS HERE  ***'.
          215:              TO LIACS-IULP9220-ENTERED-IND.
          551:                   MOVE LWSNM-IULP9276-NAME TO
          555:                   MOVE LWSNM-IULP9276-NAME   TO
0    ELEMENT   IULP9278
            2:        PROGRAM-ID.                     IULP9278.
           10:       *   MODULE:       IULP9278                                       *
           64:            '***  IULP9278 WORKING-STORAGE STARTS  ***'.
           68: 005900         'IULP9278 VERSION 03.3 RELEASED 11/07/13'.               00590000
          106:            '***  IULP9278 WORKING-STORAGE ENDS HERE  ***'.
          214:              TO LIACS-IULP9220-ENTERED-IND.
          537:                   MOVE LWSNM-IULP9278-NAME TO
          541:                   MOVE LWSNM-IULP9278-NAME   TO
0    ELEMENT   IULP9280
            2:        PROGRAM-ID.                     IULP9280.
           10:       *   MODULE:       IULP9280                                       *
           64:            '***  IULP9280 WORKING-STORAGE STARTS  ***'.
           68: 006000         'IULP9280 VERSION 03.3 RELEASED 11/07/13'.               00600000
          106:            '***  IULP9280 WORKING-STORAGE ENDS HERE  ***'.
          214:              TO LIACS-IULP9220-ENTERED-IND.
          547:                   MOVE LWSNM-IULP9280-NAME TO
          551:                   MOVE LWSNM-IULP9280-NAME   TO
0    ELEMENT   IULP9282
1           2:        PROGRAM-ID.                     IULP9282.
           10:       *   MODULE:       IULP9282                                       *
           64:            '***  IULP9282 WORKING-STORAGE STARTS  ***'.
           68: 006000         'IULP9282 VERSION 03.3 RELEASED 11/07/13'.               00600000
          106:            '***  IULP9282 WORKING-STORAGE ENDS HERE  ***'.
          214:              TO LIACS-IULP9220-ENTERED-IND.
          555:                   MOVE LWSNM-IULP9282-NAME TO
          559:                   MOVE LWSNM-IULP9282-NAME   TO
0    ELEMENT   IULP9284
            2:        PROGRAM-ID.                     IULP9284.
           10:       *   MODULE:       IULP9284                                       *
           47:            VALUE '*** IULP9284 WORKING STORAGE ***'.
           51: 005300         'IULP9284 VERSION 02.0 RELEASED 11/16/07'.               00530011
0    ELEMENT   IULP9286
            2:        PROGRAM-ID.                     IULP9286.
           10:       *   MODULE:       IULP9286                                       *
           26:       *                                  2.MOD B400-CALL-IULP9290      *
           30:       *        PASS ADJCO/IULIACO AND ITCIACO TO IULP9290 (TO IULP9230)*
           52:            '***  IULP9286 WORKING-STORAGE STARTS  ***'.
           57:                'IULP9286 VERSION 02.1 RELEASED 11/07/13'.
           85:            '***  IULP9286 WORKING-STORAGE ENDS HERE  ***'.
          169:            PERFORM B100-SETUP-IULP9288.
          171:            PERFORM B200-CALL-IULP9288.
          174:               PERFORM B300-SETUP-IULP9290
          176:               PERFORM B400-CALL-IULP9290
          190:        B100-SETUP-IULP9288.
          195:            MOVE LWSNM-IULP9288-NAME
          205:        B200-CALL-IULP9288.
          209:            CALL 'IULP9288'          USING ITSIAPC
          216:        B300-SETUP-IULP9290.
          221:            MOVE LWSNM-IULP9290-NAME
          231:        B400-CALL-IULP9290.
          235:            CALL 'IULP9290'          USING ITSIAPC
          272:                   MOVE LWSNM-IULP9286-NAME TO
          276:                   MOVE LWSNM-IULP9286-NAME   TO
0    ELEMENT   IULP9288
            2:        PROGRAM-ID.                     IULP9288.
           10:       *   MODULE:       IULP9288                                       *
           59:            05  WS-MODULE-ID               PIC X(8)  VALUE 'IULP9288'.
           66:                    'IULP9288-ALIM BLD C2 CO AREA '.
           99:            '***  IULP9288 WORKING-STORAGE ENDS HERE  ***'.
0    ELEMENT   IULP9290
            2:        PROGRAM-ID.                     IULP9290.
           10:       *   MODULE:       IULP9290                                       *
           30:       *                                  2.MOD B200-CALL-IULP9230      *
           34: TRIGON*                  CHANGED THE DYNAMIC CALL FOR MODULE IULP9230  *
           44:       *        ADD ADJCO/ITCIACO TO LINKAGE AND PASS TO IULP9230.      *
           75:            '***  IULP9290 WORKING-STORAGE STARTS  ***'.
           81: 006220     05  WS-MODULE-ID               PIC X(8)  VALUE 'IULP9290'.   00006220
           89: 006280         10  WS-MODULE-DISPLAY      PIC X(8)  VALUE 'IULP9290'.   00006280
          131:            '***  IULP9290 WORKING-STORAGE ENDS HERE  ***'.
          222:            PERFORM B200-SETUP-IULP9230.
          223:            PERFORM B300-CALL-IULP9230.
          455:        B200-SETUP-IULP9230.
          458:            MOVE       LWSNM-IULP9230-NAME             TO
          462:        B300-CALL-IULP9230.
1         466:            CALL 'IULP9230'          USING ITSIAPC
          504:                   MOVE LWSNM-IULP9290-NAME TO
          508:                   MOVE LWSNM-IULP9290-NAME   TO
0    ELEMENT   IULP9292
            2:        PROGRAM-ID.                     IULP9292.
           10:       *   MODULE:       IULP9292                                       *
           52:                'IULP9292 VERSION 02.0 RELEASED 03/26/02'.
           81:            '***  IULP9292 WORKING-STORAGE ENDS HERE  ***'.
          283:                   MOVE LWSNM-IULP9292-NAME TO
          287:                   MOVE LWSNM-IULP9292-NAME   TO
0    ELEMENT   IULP9294
            2:        PROGRAM-ID.                       IULP9294.
           10:       *   MODULE:       IULP9294                                       *
           23:       *                 KEPT IN SYNC WITH IULP9144.                    *
           68:            05  WS-MODULE-ID               PIC X(8)  VALUE 'IULP9294'.
           75:                    'IULP9294 - ALIM IA BUILD(C2)'.
           99:            '***  IULP9294 WORKING-STORAGE ENDS HERE  ***'.
0    ELEMENT   IULP9300
           20:       *                 1.CALL IULP9350(FINAL LINE PROCESS CONTROL)    *
           24:       *                 3.CALL IULP9354(CREATE DF)                     *
           27:       *                 1.CALL IULP9364(MED OVER FINALIZATION CONTROL) *
           84:       *                                   1.CALL IULP9350(WP EDIT)     *
           86:       *                                   3.CALL IULP9354(CREATE DF)   *
          461:               PERFORM B100-START-CALL-IULP9350
          464:                  PERFORM B200-START-CALL-IULP9354
          483:               PERFORM B100-START-CALL-IULP9350
          490:                  PERFORM B200-START-CALL-IULP9354
          509:               PERFORM B300-START-CALL-IULP9364
          526:        B100-START-CALL-IULP9350.
          535:            PERFORM J100-SETUP-FOR-CALL-IULP9350.
          554:        B200-START-CALL-IULP9354.
          563:            PERFORM J200-SETUP-FOR-CALL-IULP9354.
          568:        B300-START-CALL-IULP9364.
          576:            PERFORM J300-SETUP-FOR-CALL-IULP9364.
          639:        J100-SETUP-FOR-CALL-IULP9350.
          644:            MOVE LWSNM-IULP9350-NAME         TO
          653:            MOVE LWSNM-IULP9350-NAME         TO
          656:            PERFORM T100-CALL-IULP9350.
          688:        J200-SETUP-FOR-CALL-IULP9354.
          692:            MOVE LWSNM-IULP9354-NAME         TO
          701:            MOVE LWSNM-IULP9354-NAME         TO
          704:            PERFORM T200-CALL-IULP9354.
          712:        J300-SETUP-FOR-CALL-IULP9364.
          717:            MOVE LWSNM-IULP9364-NAME         TO
          726:            MOVE LWSNM-IULP9364-NAME         TO
          729:            PERFORM T300-CALL-IULP9364.
          735:        T100-CALL-IULP9350.
          740:            CALL 'IULP9350'          USING ITSIAPC
          872:        T200-CALL-IULP9354.
          877:            CALL 'IULP9354'          USING ITSIAPC
          928:        T300-CALL-IULP9364.
          932:            CALL 'IULP9364'          USING ITSIAPC
0    ELEMENT   IULP9304
            2:        PROGRAM-ID.                     IULP9304.
           10:       *   MODULE:       IULP9304                                       *
          153:            05  WS-MODULE-ID               PIC X(8)  VALUE 'IULP9304'.
1         160:                    'IULP9304-ALIM BLD FINAL CIACO'.
          268:            '***  IULP9304 WORKING-STORAGE ENDS HERE  ***'.
0    ELEMENT   IULP9308
            2:        PROGRAM-ID.                       IULP9308.
           10: 001000*   MODULE      : IULP9308                                       *00001000
          181:            05  WS-MODULE-ID               PIC X(08) VALUE 'IULP9308'.
          335:            '***  IULP9308 WORKING-STORAGE ENDS HERE  ***'.
          721:       *       DISPLAY 'IULP9308 REJECTED'
          738: IP3946*             DISPLAY 'IULP9308 B000 DFMC CLM='
          747: IP3946*                DISPLAY 'IULP9308 WS-SUB1331=' WS-DISP-SUB1331
          748: IP3946*                DISPLAY 'IULP9308 1331 SW='
          756: IP3946*       DISPLAY 'IULP9308 WS-SAV1331=' WS-SAV1331
          768:       *       DISPLAY 'IULP9308 NOT REJECTED'
         1019: IP3891*    DISPLAY 'IULP9308 ABOUT TO LOOK AT LINES'
         1025: IP3891*    DISPLAY 'IULP9308 ABOUT TO DO B275      '
         1036: IP3891*    DISPLAY 'IULP9308 ABOUT TO DO B250Z     '
         1044: IP3891*    DISPLAY 'IULP9308 ABOUT TO DO B250      '
         1309: IP3945*          DISPLAY 'IULP9308 FOUND A 1333 IN B420-'
         1330: IP3945*          DISPLAY 'IULP9308 FOUND A 1333 IN B440-'
         1350: IP3945*          DISPLAY 'IULP9308 PREVENTED 1331 IN B460-'
         1460: IP3946*    DISPLAY 'IULP9308 DFMC CDS CLM=' CIAAJR-DF-MSG-CDS-CLM
         1475: IP3946*          DISPLAY 'IULP9308 B600 LN=' CIAAJR-DF-MSG-CD-LN (SUB)
         1476: IP3946*          DISPLAY 'IULP9308 1331 SW=' WS-DF1331-ON-CLM-FOUND-SW
         1484: IP3946*             DISPLAY 'IULP9308 DFMC CLM=' CIAAJR-DF-MSG-CDS-CLM
         1493: IP3946*                DISPLAY 'IULP9308 PUT IN NEXT BLANK OCCUR'
         1518:       *       DISPLAY 'IULP9308 ' SUB-DISP
0    ELEMENT   IULP9346
            2: 000200 PROGRAM-ID.                     IULP9346.                        00020000
           10: 001000*   MODULE:       IULP9346                                       *00100000
          183:            05  WS-MODULE-ID               PIC X(8)  VALUE 'IULP9346'.   00030002
          190:                    'IULP9346-ALIM PRE/POST PROC  '.                     00100002
          331: 018100     '***  IULP9346 WORKING-STORAGE ENDS HERE  ***'.              01810000
          628: 057500     PERFORM J100-SETUP-ITCP9732 THRU J100-EXIT.                  00057500
          641: 058800     PERFORM J200-SETUP-IULP9490 THRU J200-EXIT.                  00058800
          661: 060900     PERFORM J100-SETUP-ITCP9732 THRU J100-EXIT.                  00060900
          674: 062200     PERFORM J200-SETUP-IULP9490 THRU J200-EXIT.                  00062200
          955: 090400     PERFORM J100-SETUP-ITCP9732 THRU J100-EXIT.                  00090400
         1314: 124300     PERFORM J200-SETUP-IULP9490 THRU J200-EXIT.                  00124300
         1337: 126700     PERFORM J100-SETUP-ITCP9732 THRU J100-EXIT.                  00126700
         1360: 129100     PERFORM J100-SETUP-ITCP9732 THRU J100-EXIT.                  00129100
         1397: 132900     PERFORM J100-SETUP-ITCP9732 THRU J100-EXIT.                  00132900
         1420: 135300     PERFORM J200-SETUP-IULP9490 THRU J200-EXIT.                  00135300
         1443: 137700     PERFORM J200-SETUP-IULP9490 THRU J200-EXIT.                  00137700
         1466: 140100     PERFORM J200-SETUP-IULP9490 THRU J200-EXIT.                  00140100
         1489: 142500     PERFORM J200-SETUP-IULP9490 THRU J200-EXIT.                  00142500
         1738: 165100        CWSPN-ITCP9732-NAME                                       00165100
         1847: 176600 J100-SETUP-ITCP9732.                                             00176600
         1858:                MOVE CWSPN-ITCP9732-NAME TO WS-REQUESTED-MODULE
         1859: 177500         PERFORM J101-SETUP-ITCP9732 THRU J101-EXIT               00177500
         1863:                    MOVE CWSPN-ITCP9732-NAME TO WS-REQUESTED-MODULE
         1864: 178000             PERFORM J102-SETUP-ITCP9732 THRU J102-EXIT           00178000
         1868:                        MOVE CWSPN-ITCP9732-NAME TO WS-REQUESTED-MODULE
         1869: 178500                 PERFORM J103-SETUP-ITCP9732 THRU J103-EXIT       00178500
         1875: 179100 J101-SETUP-ITCP9732.                                             00179100
         1879: 179500     PERFORM T100-CALL-ITCP9732 THRU T100-EXIT.                   00179500
         1889: 180500 J102-SETUP-ITCP9732.                                             00180500
         1893: 180900     PERFORM T101-CALL-ITCP9732 THRU T101-EXIT.                   00180900
         1903: 181900 J103-SETUP-ITCP9732.                                             00181900
1        1907: 182300     PERFORM T102-CALL-ITCP9732 THRU T102-EXIT.                   00182300
         1918: 183400 J200-SETUP-IULP9490.                                             00183400
         1923:                MOVE LWSNM-IULP9490-NAME TO WS-REQUESTED-MODULE
         1924: 184000         PERFORM J201-SETUP-IULP9490 THRU J201-EXIT               00184000
         1927:                    MOVE LWSNM-IULP9490-NAME TO WS-REQUESTED-MODULE
         1928: 184400             PERFORM J202-SETUP-IULP9490 THRU J202-EXIT           00184400
         1931:                        MOVE LWSNM-IULP9490-NAME TO WS-REQUESTED-MODULE
         1932: 184800                 PERFORM J203-SETUP-IULP9490 THRU J203-EXIT       00184800
         1938: 185400 J201-SETUP-IULP9490.                                             00185400
         1940: 185600     PERFORM T200-CALL-IULP9490 THRU T200-EXIT.                   00185600
         1947: 186300 J202-SETUP-IULP9490.                                             00186300
         1949: 186500     PERFORM T201-CALL-IULP9490 THRU T201-EXIT.                   00186500
         1956: 187200 J203-SETUP-IULP9490.                                             00187200
         1958: 187400     PERFORM T202-CALL-IULP9490 THRU T202-EXIT.                   00187400
         2023: 194400 T100-CALL-ITCP9732.                                              00194400
         2028: 127000     CALL 'ITCP9732'          USING ITSIAPC                       12700002
         2049: 196400 T101-CALL-ITCP9732.                                              00196400
         2072: 198400 T102-CALL-ITCP9732.                                              00198400
         2095: 200400 T200-CALL-IULP9490.                                              00200400
         2100:            CALL 'IULP9490'          USING ITSIAPC                       13270002
         2126: 203200 T201-CALL-IULP9490.                                              00203200
         2154: 205900 T202-CALL-IULP9490.                                              00205900
0    ELEMENT   IULP9350
            2:        PROGRAM-ID.                       IULP9350.
           10:       *   MODULE:       IULP9350                                       *
           46:       *                          PASS ITCIACO TO IULP9308.             *
           77:       *         NUMBER TO IULP9308 SO THAT IF CAN BE INCLUDED IN THE   *00008200
          106:            '***  IULP9350 WORKING-STORAGE STARTS  ***'.
          112:            05  WS-MODULE-ID               PIC X(8)  VALUE 'IULP9350'.
          237:            '***  IULP9350 WORKING-STORAGE ENDS HERE  ***'.
          496:               PERFORM B150-START-CALL-IULP9304
          504:               PERFORM B250-START-CALL-IULP9308
          566:        B150-START-CALL-IULP9304.
          575:            PERFORM J150-SETUP-FOR-CALL-IULP9304.
          593:        B250-START-CALL-IULP9308.
          603:            PERFORM J250-SETUP-FOR-CALL-IULP9308.
         1234:        J150-SETUP-FOR-CALL-IULP9304.
         1238:            MOVE LWSNM-IULP9304-NAME         TO
         1245:            MOVE LWSNM-IULP9304-NAME         TO
         1248:            PERFORM T150-CALL-IULP9304.
         1276:        J250-SETUP-FOR-CALL-IULP9308.
         1280:            MOVE LWSNM-IULP9308-NAME         TO
         1287:            MOVE LWSNM-IULP9308-NAME         TO
         1290:            PERFORM T250-CALL-IULP9308.
         1308:            MOVE LWSNM-IULP9102-NAME         TO
         1342:        T150-CALL-IULP9304.
         1347:            CALL 'IULP9304'          USING ITSIAPC
         1373:        T250-CALL-IULP9308.
         1378:            CALL 'IULP9308'          USING ITSIAPC
0    ELEMENT   IULP9352
          470:            PERFORM B100-START-CALL-IULP9356.
          474:               PERFORM B150-START-CALL-IULP9358
          482:               PERFORM B250-START-CALL-IULP9362
          495:        B100-START-CALL-IULP9356.
          504:            PERFORM J100-SETUP-FOR-CALL-IULP9356.
          508:        B150-START-CALL-IULP9358.
          517:            PERFORM J150-SETUP-FOR-CALL-IULP9358.
          538:        B250-START-CALL-IULP9362.
1         548:            PERFORM J250-SETUP-FOR-CALL-IULP9362.
          677:       *    KEEP IN SYNC WITH LOGIC IN IUCP9132 AND IUCP9152
          759:       *    NOTE:  IUCP9132 USES COPYBOOK IUCPDCOP FOR THIS PROCESS.
          760:       *           IUCP9152 USES COPYBOOK IUCPDCOP FOR THIS PROCESS.
          971:        J100-SETUP-FOR-CALL-IULP9356.
          976:            MOVE LWSNM-IULP9356-NAME         TO
          983:            MOVE LWSNM-IULP9356-NAME         TO
          986:            PERFORM T100-CALL-IULP9356.
          993:        J150-SETUP-FOR-CALL-IULP9358.
          998:            MOVE LWSNM-IULP9358-NAME         TO
         1005:            MOVE LWSNM-IULP9358-NAME         TO
         1008:            PERFORM T150-CALL-IULP9358.
         1037:        J250-SETUP-FOR-CALL-IULP9362.
         1042:            MOVE LWSNM-IULP9362-NAME         TO
         1049:            MOVE LWSNM-IULP9362-NAME         TO
         1052:            PERFORM T250-CALL-IULP9362.
         1071:            MOVE LWSNM-IULP9102-NAME         TO
         1087:        T100-CALL-IULP9356.
         1092:            CALL 'IULP9356'          USING ITSIAPC
         1102:        T150-CALL-IULP9358.
         1107:            CALL 'IULP9358'          USING ITSIAPC
         1143:        T250-CALL-IULP9362.
         1147:            CALL 'IULP9362'          USING ITSIAPC
0    ELEMENT   IULP9354
            2:        PROGRAM-ID.                       IULP9354.
           10:       *   MODULE:       IULP9354                                       *
           71:            '***  IULP9354 WORKING-STORAGE STARTS  ***'.
           78:            05  WS-MODULE-ID               PIC X(8)  VALUE 'IULP9354'.   00030002
           85:                    'IULP9354-ALIM FIN CR8 DF CNTL'.                     00100002
          127:            '***  IULP9354 WORKING-STORAGE ENDS HERE  ***'.
          528:            MOVE LWSNM-IULP9102-NAME         TO
0    ELEMENT   IULP9356
            2:        PROGRAM-ID.                     IULP9356.
           10:       *   MODULE:       IULP9356                                       *
           55:            05  WS-MODULE-ID               PIC X(8)  VALUE 'IULP9356'.   00511000
           62:                    'IULP9356-ALIM PRE-FIN EDT COB'.                     00518000
0    ELEMENT   IULP9358
            2:        PROGRAM-ID.                       IULP9358.
           10:       *   MODULE:       IULP9358                                       *
           53: 005300         'IULP9358 VERSION 02.0 RELEASED 11/16/07'.               00530013
           73:            '***  IULP9358 WORKING-STORAGE ENDS HERE  ***'.
0    ELEMENT   IULP9360
         1633: IP3511*    KEEP IN SYNC WITH IUCP9112, IUCP9118, IUCP9120, IUCP9164     15413500
0    ELEMENT   IULP9362
            2:        PROGRAM-ID.                       IULP9362.
           10:       *   MODULE:       IULP9362                                       *
           42:            '***  IULP9362 WORKING-STORAGE STARTS  ***'.
           46:                'IULP9362 VERSION 01.0 RELEASED 10/22/01'.
           65:            '***  IULP9362 WORKING-STORAGE ENDS HERE  ***'.
0    ELEMENT   IULP9364
            2:        PROGRAM-ID.                       IULP9364.
           10:       *   MODULE:       IULP9364                                       *
           36:       *         IULP9368                                               *
           51:            '***  IULP9364 WORKING-STORAGE STARTS  ***'.
1          54:            05  WS-MODULE-ID               PIC X(8)  VALUE 'IULP9364'.
           61:                    'IULP9364-ALIM FINAL MEDICARE '.
           90:            '***  IULP9364 WORKING-STORAGE ENDS HERE  ***'.
          308:            PERFORM B100-START-CALL-IULP9366.
          312:               PERFORM B150-START-CALL-IULP9368
          316:               PERFORM B200-START-CALL-IULP9370
          320:        B100-START-CALL-IULP9366.
          329:            PERFORM J100-SETUP-FOR-CALL-IULP9366.
          332:        B150-START-CALL-IULP9368.
          338:            PERFORM J150-SETUP-FOR-CALL-IULP9368.
          341:        B200-START-CALL-IULP9370.
          349:            PERFORM J200-SETUP-FOR-CALL-IULP9370.
          360:        J100-SETUP-FOR-CALL-IULP9366.
          365:            MOVE LWSNM-IULP9366-NAME         TO
          374:            MOVE LWSNM-IULP9366-NAME         TO
          377:            PERFORM T100-CALL-IULP9366.
          383:        J150-SETUP-FOR-CALL-IULP9368.
          387:            MOVE LWSNM-IULP9368-NAME         TO
          396:            MOVE LWSNM-IULP9368-NAME         TO
          399:            PERFORM T150-CALL-IULP9368.
          405:        J200-SETUP-FOR-CALL-IULP9370.
          409:            MOVE LWSNM-IULP9370-NAME         TO
          418:            MOVE LWSNM-IULP9370-NAME         TO
          421:            PERFORM T200-CALL-IULP9370.
          425:        T100-CALL-IULP9366.
          429:            CALL 'IULP9366'          USING ITSIAPC
          438:        T150-CALL-IULP9368.
          441:            CALL 'IULP9368'          USING
          454:        T200-CALL-IULP9370.
          457:            CALL 'IULP9370'          USING
0    ELEMENT   IULP9366
            2:        PROGRAM-ID.                     IULP9366.
           10:       *   MODULE:       IULP9366                                       *
           52:            VALUE '*** IULP9366 WORKING STORAGE ***'.
           55: 004900         'IULP9366 VERSION 03.2 RELEASED 08/28/14'.               00490000
0    ELEMENT   IULP9368
            2:        PROGRAM-ID.                       IULP9368.
           10:       *   MODULE:       IULP9368                                       *
           66:            '***  IULP9368 WORKING-STORAGE STARTS  ***'.
           69:            05  WS-MODULE-ID               PIC X(8)  VALUE 'IULP9368'.   00030002
           76:                    'IULP9368-ALIM P3 FINAL AJR   '.                     00100002
          142:            '***  IULP9368 WORKING-STORAGE ENDS HERE  ***'.
0    ELEMENT   IULP9370
            2:        PROGRAM-ID.                       IULP9370.
           10:       *   MODULE:       IULP9370                                       *
           48:            '***  IULP9370 WORKING-STORAGE STARTS  ***'.
           51:            05  WS-MODULE-ID               PIC X(8)  VALUE 'IULP9370'.
           58:                    'IULP9370-ALIM FINAL CNTL P3  '.
           86:            '***  IULP9370 WORKING-STORAGE ENDS HERE  ***'.
          294:            MOVE LWSNM-IULP9102-NAME         TO
0    ELEMENT   IULP9490
            2:        PROGRAM-ID.               IULP9490.
           10:       *   MODULE      : IULP9490                                       *
           22:       * THIS IS THE ALIM WORK CLAIM TRANSLATOR PROGRAM IULP9490        *
           24:       * IULP9490 IS CALLED BY IULP9346                                 *
           35:       * COPYBOOK IULIALM UNDER SFLM RESIDES IN IULP9102 WS AND IS      *
1          36:       * PASSED ON THE L1 TO IULP9140 AND POPULATED BY IULP9144.        *
          137:       *         CORRECTLY PROCESSED AND NO LONGER ABEND IN IULP9304.   *
          167:            05  WS-MODULE-ID               PIC X(08) VALUE 'IULP9490'.
1ENVIRONMENT  BCBS01    SYSTEM  ITS       SUBSYSTEM  HERF
 TYPE  COBOL     STAGE NUMBER 2 .
0    ELEMENT   DIT9000P
          298: ITS90C     10  WS-HPA-DELE-PROGRAM     PIC X(8) VALUE 'IUCP9124'.
         5191: ITS90C     CALL 'IUCP9124' USING
         5398: ITS90C           STRING 'CALL TO IUCP9124, DELETE CALL '
1ENVIRONMENT  BCBS01    SYSTEM  ITS       SUBSYSTEM  HPA
 TYPE  COBOL     STAGE NUMBER 2 .
0    ELEMENT   IUCP2002
            2:        PROGRAM-ID.                       IUCP2002.
           10:       *   MODULE      : IUCP2002                                       *
           85:       *         GROUPINGS - CHANGE NAMES OF COMMANDS SENT TO ITCP9730  *00050013
          104: R21010*         FOR UNSUCCESSFUL CLAIMS: SOME ERRORS POSTED IN IUCP9124*
          153:            05  WS-MODULE-ID               PIC X(08) VALUE 'IUCP2002'.
          175:            05  WS-ITCP9730-ERR-PREV-TP1-SW PIC X(01) VALUE 'N'.
          176:                88  NO-ITCP9730-ERR-PREV-TP1          VALUE 'N'.
          177:                88  ITCP9730-ERR-PREV-TP1             VALUE 'Y'.
          178:            05  WS-ITCP9730-ERR-PREV-TP2-SW PIC X(01) VALUE 'N'.
          179:                88  NO-ITCP9730-ERR-PREV-TP2          VALUE 'N'.
          180:                88  ITCP9730-ERR-PREV-TP2             VALUE 'Y'.
          181:            05  WS-ITCP9730-ERR-PREV-TP3-SW PIC X(01) VALUE 'N'.
          182:                88  NO-ITCP9730-ERR-PREV-TP3          VALUE 'N'.
          183:                88  ITCP9730-ERR-PREV-TP3             VALUE 'Y'.
          184:            05  WS-ITCP9730-ERR-PREV-TP4-SW PIC X(01) VALUE 'N'.
          185:                88  NO-ITCP9730-ERR-PREV-TP4          VALUE 'N'.
          186:                88  ITCP9730-ERR-PREV-TP4             VALUE 'Y'.
          187:            05  WS-ITCP9730-ERR-PREV-TP5-SW PIC X(01) VALUE 'N'.
          188:                88  NO-ITCP9730-ERR-PREV-TP5          VALUE 'N'.
          189:                88  ITCP9730-ERR-PREV-TP5             VALUE 'Y'.
          190:            05  WS-ITCP9730-ERR-CURR-TP1-SW PIC X(01) VALUE 'N'.
          191:                88  NO-ITCP9730-ERR-CURR-TP1          VALUE 'N'.
          192:                88  ITCP9730-ERR-CURR-TP1             VALUE 'Y'.
          193:            05  WS-ITCP9730-ERR-CURR-TP2-SW PIC X(01) VALUE 'N'.
          194:                88  NO-ITCP9730-ERR-CURR-TP2          VALUE 'N'.
          195:                88  ITCP9730-ERR-CURR-TP2             VALUE 'Y'.
          196:            05  WS-ITCP9730-ERR-CURR-TP3-SW PIC X(01) VALUE 'N'.
          197:                88  NO-ITCP9730-ERR-CURR-TP3          VALUE 'N'.
          198:                88  ITCP9730-ERR-CURR-TP3             VALUE 'Y'.
          199:            05  WS-ITCP9730-ERR-CURR-TP4-SW PIC X(01) VALUE 'N'.
          200:                88  NO-ITCP9730-ERR-CURR-TP4          VALUE 'N'.
          201:                88  ITCP9730-ERR-CURR-TP4             VALUE 'Y'.
          202:            05  WS-ITCP9730-ERR-CURR-TP5-SW PIC X(01) VALUE 'N'.
          203:                88  NO-ITCP9730-ERR-CURR-TP5          VALUE 'N'.
          204:                88  ITCP9730-ERR-CURR-TP5             VALUE 'Y'.
          494:            '**** IUCP2002 WORKING-STORAGE ENDS HERE ****'.
          578:                    AND NO-ITCP9730-ERR-PREV-TP1
          579:                    AND NO-ITCP9730-ERR-PREV-TP2
          580:                    AND NO-ITCP9730-ERR-PREV-TP3
          581:                    AND NO-ITCP9730-ERR-PREV-TP4
          582:                    AND NO-ITCP9730-ERR-PREV-TP5
          593:                AND NO-ITCP9730-ERR-PREV-TP1
          594:                AND NO-ITCP9730-ERR-PREV-TP2
          595:                AND NO-ITCP9730-ERR-PREV-TP3
          596:                AND NO-ITCP9730-ERR-PREV-TP4
          597:                AND NO-ITCP9730-ERR-PREV-TP5
          826:        J200-SETUP-FOR-CALL-ITCP9730.
          832:            MOVE CWSNM-ITCP9730-NAME     TO WS-CALL-PROGRAM,
          841:            MOVE CWSNM-IUCP2002-NAME     TO SIAPC-MODULE-NAME (1).
          938:            PERFORM J200-SETUP-FOR-CALL-ITCP9730.
          939:            PERFORM T200-CALL-ITCP9730.
          941:            PERFORM U400-CHECK-ITCP9730-STATUS.
          986:            MOVE WS-ITCP9730-ERR-CURR-TP1-SW
          987:              TO WS-ITCP9730-ERR-PREV-TP1-SW.
          989:            MOVE WS-ITCP9730-ERR-CURR-TP2-SW
          990:              TO WS-ITCP9730-ERR-PREV-TP2-SW.
1         992:            MOVE WS-ITCP9730-ERR-CURR-TP3-SW
          993:              TO WS-ITCP9730-ERR-PREV-TP3-SW.
          995:            MOVE WS-ITCP9730-ERR-CURR-TP4-SW
          996:              TO WS-ITCP9730-ERR-PREV-TP4-SW.
          998:            MOVE WS-ITCP9730-ERR-CURR-TP5-SW
          999:              TO WS-ITCP9730-ERR-PREV-TP5-SW.
         1001:            MOVE WS-NO TO WS-ITCP9730-ERR-CURR-TP1-SW
         1002:                          WS-ITCP9730-ERR-CURR-TP2-SW
         1003:                          WS-ITCP9730-ERR-CURR-TP3-SW
         1004:                          WS-ITCP9730-ERR-CURR-TP4-SW
         1005:                          WS-ITCP9730-ERR-CURR-TP5-SW.
         1012:                          WS-ITCP9730-ERR-PREV-TP1-SW
         1013:                          WS-ITCP9730-ERR-PREV-TP2-SW
         1014:                          WS-ITCP9730-ERR-PREV-TP3-SW
         1015:                          WS-ITCP9730-ERR-PREV-TP4-SW
         1016:                          WS-ITCP9730-ERR-PREV-TP5-SW
         1023:            MOVE WS-NO TO WS-ITCP9730-ERR-CURR-TP1-SW
         1024:                          WS-ITCP9730-ERR-CURR-TP2-SW
         1025:                          WS-ITCP9730-ERR-CURR-TP3-SW
         1026:                          WS-ITCP9730-ERR-CURR-TP4-SW
         1027:                          WS-ITCP9730-ERR-CURR-TP5-SW
         1028:                          WS-ITCP9730-ERR-PREV-TP1-SW
         1029:                          WS-ITCP9730-ERR-PREV-TP2-SW
         1030:                          WS-ITCP9730-ERR-PREV-TP3-SW
         1031:                          WS-ITCP9730-ERR-PREV-TP4-SW
         1032:                          WS-ITCP9730-ERR-PREV-TP5-SW.
         1084:        T200-CALL-ITCP9730.
         1167:        U400-CHECK-ITCP9730-STATUS.
         1236:                MOVE WS-YES TO WS-ITCP9730-ERR-CURR-TP1-SW
         1239:                MOVE WS-YES TO WS-ITCP9730-ERR-CURR-TP2-SW
         1242:                MOVE WS-YES TO WS-ITCP9730-ERR-CURR-TP3-SW
         1245:                MOVE WS-YES TO WS-ITCP9730-ERR-CURR-TP4-SW
         1248:                MOVE WS-YES TO WS-ITCP9730-ERR-CURR-TP5-SW
         1315:            MOVE CWSNM-IUCP2002-NAME     TO CSAPI-CALLING-PGM-ID
         1475:            DISPLAY '***** IUCP2002 INPUT RECORD COUNTS *****'.
0    ELEMENT   IUCP3114
           18: 117939*   FUNCTION:     THIS MODULE IS INVOKED BY IUCP9152 BEFORE      *
0    ELEMENT   IUCP6002
          132:            05  WS-ITCP9730-PREV-ERROR-SW   PIC X(01) VALUE 'N'.
          133:                88  NO-ITCP9730-PREV-ERROR            VALUE 'N'.
          134:                88  ITCP9730-PREV-ERROR               VALUE 'Y'.
          135:            05  WS-ITCP9730-CURR-ERROR-SW   PIC X(01) VALUE 'N'.
          136:                88  NO-ITCP9730-CURR-ERROR            VALUE 'N'.
          137:                88  ITCP9730-CURR-ERROR               VALUE 'Y'.
          480:                          WS-ITCP9730-PREV-ERROR-SW
          481:                          WS-ITCP9730-CURR-ERROR-SW
          515:                SET NO-ITCP9730-PREV-ERROR TO TRUE
          520:                    IF NO-AID-FILE-ERROR AND NO-ITCP9730-PREV-ERROR
          524:                    MOVE WS-NO TO WS-ITCP9730-PREV-ERROR-SW
          532:                IF NO-AID-FILE-ERROR AND NO-ITCP9730-CURR-ERROR
          788:        J200-SETUP-FOR-CALL-ITCP9730.
          795:            MOVE CWSNM-ITCP9730-NAME      TO WS-CALL-PROGRAM,
          877:            PERFORM J200-SETUP-FOR-CALL-ITCP9730.
          878:            PERFORM T200-CALL-ITCP9730.
          946:        T200-CALL-ITCP9730.
         1054:       *       DISPLAY ' IUCP2002 ERROR'
         1069:                       SET ITCP9730-CURR-ERROR TO TRUE
         1114:                MOVE WS-ITCP9730-CURR-ERROR-SW TO
1        1115:                     WS-ITCP9730-PREV-ERROR-SW
         1116:                MOVE WS-NO TO WS-ITCP9730-CURR-ERROR-SW.
0    ELEMENT   IUCP9002
         1709:                 MOVE CWSNM-ITCP9730-NAME TO WS-REQUESTED-MODULE
0    ELEMENT   IUCP9010
           55:       *         GROUPINGS - CHANGE NAMES OF COMMANDS INPUT TO ITCP9730 *00050013
          601:            CALL CWSNM-ITCP9730-NAME   USING ITSIAPC,
          624:            CALL CWSNM-ITCP9730-NAME   USING ITSIAPC,
          651:            CALL CWSNM-ITCP9730-NAME   USING ITSIAPC,
          672:            CALL CWSNM-ITCP9730-NAME   USING ITSIAPC,
          692:            CALL CWSNM-ITCP9730-NAME   USING ITSIAPC,
0    ELEMENT   IUCP9018
            2:        PROGRAM-ID.                       IUCP9018.                      00020000
           10:       *   MODULE:       IUCP9018                                       *00100000
          104:            05  WS-MODULE-ID              PIC X(8)  VALUE 'IUCP9018'.    00820000
          111:                    'IUCP9018-DEFAULT CLAIM RESLTN'.                     00890000
          241:                VALUE 'REPORT ID : IUCP9018-01'.                         02050000
         1043:            MOVE CWSNM-IUCP9018-NAME TO CIAAJR-LAST-OPERATOR-ID.         10120000
         1432:            MOVE CWSNM-IUCP9018-NAME TO CSAPI-CALLING-PGM-ID.            14840000
         1451:            MOVE CWSNM-IUCP9018-NAME TO SIAPC-MODULE-NAME (1).           15050000
0    ELEMENT   IUCP9038
            2:        PROGRAM-ID.                     IUCP9038.
           10: 000100*   MODULE      : IUCP9038                                       *
          136:       *         TO IUCP9038-01 REPORT.                                 *
          182:            SELECT REPORT-FILE             ASSIGN TO UT-S-IUCP9038.
          218:            05  WS-MODULE-ID               PIC X(08) VALUE 'IUCP9038'.
          477:                                             'IUCP9038-01'.
          479:                                             'IUCP9038-01'.
          482:                                             'IUCP9038-02'.
          485:                                             'IUCP9038-04'.
          488:                                             'IUCP9038-05'.
          491:                                             'IUCP9038-07'.
         7073:            05  CS-IULP9220-ENTERED           PIC X(01)  VALUE SPACES.
         2687:            MOVE LIACS-IULP9220-ENTERED-IND
         2688:              TO CS-IULP9220-ENTERED.
         4050: 142020           MOVE 'ITCP9730'    TO WS-REQUESTED-MODULE
         4079: R20011           DISPLAY 'IUCP9038 EMPTY INPUT FILE - READ  ERROR '
0    ELEMENT   IUCP9092
            2:        PROGRAM-ID.                      IUCP9092.
           10:       *   MODULE:       IUCP9092                                       *
          352:            05  WS-MODULE-ID               PIC X(8)  VALUE 'IUCP9092'.   00030002
          359:                    'IUCP9092-HPA DF COMPARE UTIL '.                     00100002
          682:            05  WS-DF-COMPARE-MAIN          PIC X(08) VALUE 'IUCP9092'.
         2420:            '***  IUCP9092 WORKING-STORAGE ENDS HERE  ***'.
         2672:                  DISPLAY 'IUCP9092: INVALID DRILL DOWN PARAMETER.'
         2676:                  DISPLAY 'IUCP9092: DRILL DOWN PROCESSING REQUESTED'
0    ELEMENT   IUCP9102
           37:       *                                 PARM WHEN INVOKING IUCP9112.   *
           41:       *                                 IUCP9112                       *
          151:       *                                 CALL OF IUCP9108.              *
          153:       *                                 CALL OF IUCP9108.              *
          164:       *                                 FROM CALL OF IUCP9108.         *
          173:       *                                 IUCP9112.                      *
          271:       *                               - RESTRUCTURED TO CALL IUCP9150  *
1         273:       *                                 HPA AND TO CALL IUCP9152 FOR   *
          277:       *                                 IUCP9102 TO IUCP9150 AND       *
          278:       *                                 IUCP9152.                      *
          330:       *       INTO IUCP9150 & IUCP9152.                                *
          342: 117939*          PASSED TO THE IUCP9150/52 DRIVERS AS THEY ARE PRESENT *
          839:            PERFORM  J160-SETUP-FOR-CALL-IUCP9150.
          856:            PERFORM  J170-SETUP-FOR-CALL-IUCP9152.
          918:       *    PERFORM  J110-SETUP-FOR-CALL-IUCP9124.
          965:            PERFORM J110-SETUP-FOR-CALL-IUCP9124.
         1046:        J110-SETUP-FOR-CALL-IUCP9124.
         1051:            MOVE     CWSNM-IUCP9124-NAME          TO
         1101:        J160-SETUP-FOR-CALL-IUCP9150.
         1106:            MOVE       CWSNM-IUCP9150-NAME        TO
         1109:            MOVE       CWSNM-IUCP9150-NAME        TO
         1115:            MOVE       CWSNM-IUCP9150-NAME        TO
         1118:            PERFORM    T200-CALL-IUCP9150.
         1129:        J170-SETUP-FOR-CALL-IUCP9152.
         1134:            MOVE       CWSNM-IUCP9152-NAME        TO
         1137:            MOVE       CWSNM-IUCP9152-NAME        TO
         1143:            MOVE       CWSNM-IUCP9152-NAME        TO
         1146:            PERFORM    T300-CALL-IUCP9152.
         1347:        T200-CALL-IUCP9150.
         1351:            CALL 'IUCP9150'          USING ITSIAPC
         1412:        T300-CALL-IUCP9152.
         1417:            CALL 'IUCP9152'          USING ITSIAPC
0    ELEMENT   IUCP9104
            2:        PROGRAM-ID.                     IUCP9104.
           10:       *   MODULE:       IUCP9104                                       *
           34:       *                               - ADDED A CALL TO ITCP9248 TO    *
          100:            05  WS-MODULE-ID               PIC X(8)  VALUE 'IUCP9104'.   00030002
          107:                    'IUCP9104-PAYMENT OVERRIDE MAP'.                     00100002
          380:            '******    IUCP9104 WORKING-STORAGE ENDS HERE      *******'.
          433: 117939     IF  SIAPC-MODULE-NAME(1) = CWSNM-IUCP2002-NAME
         1078:       *12.0   E_41233  KJO ALLOW ITCP9248 TO DETERMINE # NPLUS1 LINES
         1151:            MOVE     CWSNM-ITCP9248-NAME          TO
         1158:            MOVE     CWSNM-ITCP9248-NAME          TO
         1161:            PERFORM  TA-CALL-ITCP9248.
         1288:        TA-CALL-ITCP9248.
         1293:            CALL 'ITCP9248'          USING  ITSIAPC
0    ELEMENT   IUCP9108
            2:        PROGRAM-ID.                       IUCP9108.
           10:       *   MODULE:       IUCP9108                                       *
          105:            05  WS-MODULE-ID               PIC X(8)  VALUE 'IUCP9108'.   00030002
          112:                    'IUCP9108-HPA PRE/POST-CALC SETUP '.                 00100002
          188:                'INVALID FUNCTION - IUCP9108'.
0    ELEMENT   IUCP9112
            2:        PROGRAM-ID.                       IUCP9112.
           10:       *   MODULE      : IUCP9112                                       *
           20:       *                 UNLIKE IUCP9164, THIS MODULE LOOKS AT DF       *
           71:       *                                 ITCP9248.                      *
          168:       *         EDITS IN LINE WITH THE DF EDIT PROGRAM ITCP9180.       *
          261:            05  WS-MODULE-ID               PIC X(08) VALUE 'IUCP9112'.
          273:                'IUCP9112-HPA STD SAVINGS/PAYMENT REDUCTIONS       '.
         1191:       *    KEEP IN SYNC WITH IUCP9118, IUCP9120, IUCP9164, IULP9360
         2566:            MOVE     CWSNM-ITCP9248-NAME          TO
         2573:            MOVE     CWSNM-ITCP9248-NAME          TO
         2579:            PERFORM  T100-CALL-ITCP9248.
1        4167:        T100-CALL-ITCP9248.
         4172:            CALL 'ITCP9248'          USING  ITSIAPC
0    ELEMENT   IUCP9116
           73:       *                               - UPON RETURN FROM IUCP9122,     *
          108:       *         COPYBOOK TO BE PASSED THROUGH TO IUCP9120.             *00040006
          130: 117939*         FOR IUCP3104 AND IUCP9118 CAN BE DIFFERENT.            *01046400
          133: IPP462*         TO BE AVAILABLE FOR IUCP9118 AND IUCP9120.             *01046700
         1404:            PERFORM JA-SET-UP-CALL-IUCP9118
         1407: TRIGON*HC  PERFORM YG-CALL-IUCP9118                                     12382002
         1408:            PERFORM YA100-CALL-IUCP9118
         1419:            PERFORM JB-SET-UP-CALL-IUCP9120
         1423: TRIGON*HC  PERFORM YL-CALL-IUCP9120                                     12502002
         1424:            PERFORM YA200-CALL-IUCP9120
         1436:            PERFORM JC-SET-UP-CALL-IUCP9122.
         1438: TRIGON*HC  PERFORM YK-CALL-IUCP9122                                     12612002
         1439:            PERFORM YA300-CALL-IUCP9122.
         1582:        JA-SET-UP-CALL-IUCP9118.
         1585:            MOVE CWSNM-IUCP9118-NAME TO WS-REQUESTED-MODULE
         1589:            MOVE CWSNM-IUCP9118-NAME TO
         1595:        JB-SET-UP-CALL-IUCP9120.
         1598:            MOVE CWSNM-IUCP9120-NAME TO WS-REQUESTED-MODULE
         1602:            MOVE CWSNM-IUCP9120-NAME TO
         1608:        JC-SET-UP-CALL-IUCP9122.
         1611:            MOVE CWSNM-IUCP9122-NAME TO WS-REQUESTED-MODULE
         1615:            MOVE CWSNM-IUCP9122-NAME TO
         2127:        YG-CALL-IUCP9118.                                                18963000
         2150:        YA100-CALL-IUCP9118.                                             18973000
         2153: TRIGON     CALL 'IUCP9118'          USING                               18976000
         2217:        YK-CALL-IUCP9122.                                                19470000
         2239:        YA300-CALL-IUCP9122.                                             19522000
         2242:            CALL 'IUCP9122'          USING                               19525000
         2269:        YL-CALL-IUCP9120.                                                19690000
         2295:        YA200-CALL-IUCP9120.                                             19772000
         2298:            CALL 'IUCP9120'          USING                               19775000
0    ELEMENT   IUCP9118
            2:        PROGRAM-ID.                       IUCP9118.
           10:       *   MODULE      : IUCP9118                                       *
          301:            05  WS-MODULE-ID               PIC X(08) VALUE 'IUCP9118'.
         2286:       *    KEEP THE FOLLOWING IN SYNC WITH IUCP9120
         2511: IP3511*    KEEP IN SYNC WITH IUCP9112, IUCP9120, IUCP9164, IULP9360
0    ELEMENT   IUCP9120
            2:        PROGRAM-ID.                     IUCP9120.
           10:       *   MODULE      : IUCP9120                                       *
          249:       *       THIS LOGIC NOW MATCHES IUCP9122 FOR THE ACTUAL TMC.      *
          265:       *       INSTITUTIONAL CLAIMS IS IN IUCP9122.                     *
          310:            05  WS-MODULE-ID               PIC X(08) VALUE 'IUCP9120'.
          678:            IF  SIAPC-MODULE-NAME(1) = CWSNM-IUCP2002-NAME
         1170:       *    KEEP THE FOLLOWING IN SYNC WITH IUCP9118
         1301: IP3511*    KEEP IN SYNC WITH IUCP9112, IUCP9118, IUCP9164, IULP9360
         2509:       *                DISPLAY 'IUCP9120 - NON-ZERO-CHRG ZERO-COV PAID'
0    ELEMENT   IUCP9122
            2:        PROGRAM-ID.                     IUCP9122.
           10:       *   MODULE      : IUCP9122                                       *
          236:       *       THE PRECEDING PORTION OF THIS EDIT IS IN IUCP9120.       *
          248: R20503*       BECAUSE THE UE074 LOGIC IN IUCP9132 HANDLES THIS EDIT.   *
          276:            05  WS-MODULE-ID               PIC X(08) VALUE 'IUCP9122'.
1    ELEMENT   IUCP9124
            2:        PROGRAM-ID.                     IUCP9124.
           10:       *   MODULE      : IUCP9124                                       *
          236:       *                                 C350-CALL-ITCP9732. DELETED    *
          238:       *                                 CALL TO ITCP9732 ALWAYS DONE.  *
          243:       *                                 T600-CALL-ITCP9732. DELETED    *
          267:       *                                 CALL TO IUCP9180.              *
          309:       *         UNSUCCESSFUL RETURN FROM IUCP9180 EVEN IF NO RETURN    *00050013
          314:       *         AFTER THE CALL TO IUCP9180 TO DETERMINE IF WE NEED     *
          394:            05  WS-MODULE-ID               PIC X(08) VALUE 'IUCP9124'.
          744:            '***  IUCP9124 WORKING-STORAGE ENDS HERE  ***'.
          915:                PERFORM C350-CALL-ITCP9732
          956:       *    DISPLAY 'IUCP9124 A200 CIAIF NO DF ' CIAIF-NO-SCDF-GEN-IND
          998:       *              DISPLAY 'IUCP9124 - B077 INVOKED FROM A200 FINAL'
         1008:       *              DISPLAY 'IUCP9124 - B075 INVOKED FROM A200 FINAL'
         1148:       *              DISPLAY 'IUCP9124 - B077 INVOKED FROM A300 PREV'
         1158:       *              DISPLAY 'IUCP9124 - B075 INVOKED FROM A300 PREV'
         1218:       *        DISPLAY 'IUCP9124 NEW PARAGRAPH B110'
         1229:       *            DISPLAY 'IUCP9124 PARAGRAPH B150'
         1278:                PERFORM C350-CALL-ITCP9732
         1480:                        MOVE CWSEC-SEVERE-SYS-ERR-IUCP9124
         1498:            MOVE CWSNM-IUCP9180-NAME TO WS-REQUESTED-MODULE.
         1662:       *      DISPLAY 'IUCP9124 - B075 RT'
         1697:                            MOVE CWSEC-SEVERE-SYS-ERR-IUCP9124
         1754:                            MOVE CWSEC-SEVERE-SYS-ERR-IUCP9124
         1813:                          MOVE CWSEC-SEVERE-SYS-ERR-IUCP9124
         1878:                          MOVE CWSEC-SEVERE-SYS-ERR-IUCP9124
         1914:                   MOVE CWSEC-SEVERE-SYS-ERR-IUCP9124
         1920:                   MOVE CWSEC-SEVERE-SYS-ERR-IUCP9124
         1950:                   MOVE CWSEC-SEVERE-SYS-ERR-IUCP9124
         1969:       *SWITCH WILL NOT BE SET CORRECTLY AND CAN'T BE USED AS IUCP9180  *
         1995:                       MOVE CWSEC-SEVERE-SYS-ERR-IUCP9124
         2095:                PERFORM C350-CALL-ITCP9732.
         2143:            PERFORM C350-CALL-ITCP9732.
         2560:       *    DISPLAY 'IUCP9124 C250 ' CIADR-CLM-STAT-CD
         2583:       *        DISPLAY 'IUCP9124 C250 NOT SUCCESSFUL, SC-DR-GEN-IND-Y'
         2629:        C350-CALL-ITCP9732.
         2635:            MOVE CWSNM-ITCP9732-NAME TO WS-REQUESTED-MODULE.
         2642:            PERFORM T600-CALL-ITCP9732.
         2682:            PERFORM C350-CALL-ITCP9732.
         3025:       *            DISPLAY 'IUCP9124 D150 1, MAP DF TO DR = YES'
         3030:       *            DISPLAY 'IUCP9124 D150 1, MAP DF TO DR = NO'
         3035:       *            DISPLAY 'IUCP9124 D150 NOT 1'
         5520:        T600-CALL-ITCP9732.
0    ELEMENT   IUCP9130
           67:       *         IUCP9120 TO PERSIST.  DO NOT OVERRIDE SF VALUE TO '1'. *
0    ELEMENT   IUCP9132
            2:        PROGRAM-ID.                    IUCP9132.
           10:       *   MODULE      : IUCP9132                                       *
          490: 117939*         TO IUCP9150/IUCP9152.                                  *
          515: R20012*         CIAIF-NOT-USE-PLAN-PROFILE SHOULD BE SET IN IUCP9150/52*
          561:            05  WS-MODULE-ID               PIC X(08) VALUE 'IUCP9132'.
         1420: 117939     IF  SIAPC-MODULE-NAME(1) = CWSNM-IUCP2002-NAME
         1596:       *    NOTE:  IUCP9152 SHARES THIS COPYBOOK
         1622:       *EVALUATE IUCP9152/B600- ANY CHANGES TO SETTING CIAIF SWITCH
         4127:                        MOVE CWSEC-SEVERE-SYS-ERR-IUCP9132 TO
         5958:       *    KEEP IN SYNC WITH IUCP9152 AND IULP9352
1    ELEMENT   IUCP9134
            2:        PROGRAM-ID.                     IUCP9134.
           10:       *   MODULE      : IUCP9134                                       *
          110:            05  WS-MODULE-ID               PIC X(08) VALUE 'IUCP9134'.
          228: 117939     IF  SIAPC-MODULE-NAME(1) = CWSNM-IUCP2002-NAME
          268: IP3511*  ONLY INVOKED IN IUCP9150/IUCP9152 WITH THESE FUNCTION SETTINGS.
          274: IP3511*  ONLY INVOKED IN IUCP9150/IUCP9152 WITH THESE FUNCTION SETTINGS.
0    ELEMENT   IUCP9150
            3:        PROGRAM-ID.                     IUCP9150.
           11:       *   MODULE      : IUCP9150                                       *
          214:       *                                 IUCP9122 IN CIAIF-PREV-PMT-DISP*
          282:       *         TOTALS AND PASS INTO IUCP9104 & IUCP9116.              *
          294:       *         FOR VOIDS AND REISSUES BETWEEN IUCP9152 AND IUCP9150.  *
          321:       *         CONSISTENT WITH IUCP9152 AND TO MORE EASILY            *
          434: 132363*         IUCP9132 BEGINNING WITH 19.5.1.                        *
          440: R20012*         CIAIF-NOT-USE-PLAN-PROFILE SHOULD BE SET IN IUCP9150/52*
          441: R20012*         RATHER THAN IN IUCP9132.                               *
          471: IP3511*         FROM IUCP9132, ELIMINATE MOST REFERENCES TO SINF.      *
          497:            05  WS-MODULE-ID               PIC X(08) VALUE 'IUCP9150'.
         1620:            IF SIAPC-MODULE-NAME (1) = CWSNM-IUCP9018-NAME
         2234:                PERFORM  J230-SETUP-FOR-CALL-IUCP9134
         3232:       *    AT THIS POINT IN IUCP9152:
         3233:       *        THE KERNEL EDIT IUCP9132 IS INVOKED.
         4001:            PERFORM  J060-SETUP-FOR-CALL-IUCP9132.
         4024:            PERFORM  J060-SETUP-FOR-CALL-IUCP9132.
         4095:            PERFORM  J090-SETUP-FOR-CALL-IUCP9104.
         4359:            PERFORM J080-SETUP-FOR-CALL-ITCP9700.
         4406:            PERFORM  J150-SETUP-FOR-CALL-ITCP9248.
         4442:                PERFORM  J140-SETUP-FOR-CALL-IUCP9112
         4447:                PERFORM  J260-SETUP-FOR-CALL-IUCP9164.
         5003:            PERFORM  J230-SETUP-FOR-CALL-IUCP9134.
         5352:       *!!!!!!!! D1000- THRU D1075- ARE DUPLICATED IN IUCP9152 !!!!!!!!
         6556:       *    INVOKED AFTER IUCP9104, IUCP9132
         6795:            PERFORM    J120-SETUP-FOR-CALL-IUCP9108.
         6897:        F260-SEVERE-LOG-SETUP-IUCP9150.
         7875:       *    PROCESSES ERRORS FROM IUCP9104, IUCP9132, IUCP9158
         7978:       *    STORES ERRORS FROM IUCP9104, IUCP9116, IUCP9132, IUCP9158
         8283:        J060-SETUP-FOR-CALL-IUCP9132.
         8288:            MOVE       CWSNM-IUCP9132-NAME        TO
         8356:        J080-SETUP-FOR-CALL-ITCP9700.
         8361:            MOVE       CWSNM-ITCP9700-NAME        TO
         8433:        J090-SETUP-FOR-CALL-IUCP9104.
         8438:            MOVE       CWSNM-IUCP9104-NAME        TO
         8554:        J120-SETUP-FOR-CALL-IUCP9108.
         8559:            MOVE       CWSNM-IUCP9108-NAME        TO
         8635:        J140-SETUP-FOR-CALL-IUCP9112.
         8640:            MOVE       CWSNM-IUCP9112-NAME        TO
         8706:        J150-SETUP-FOR-CALL-ITCP9248.
         8733:            MOVE       CWSNM-ITCP9248-NAME        TO
         8911:        J190-SETUP-FOR-CALL-IUCP9124.
         8916:            MOVE     CWSNM-IUCP9124-NAME          TO
         9034:        J230-SETUP-FOR-CALL-IUCP9134.
         9039:            MOVE       CWSNM-IUCP9134-NAME        TO
         9171:        J260-SETUP-FOR-CALL-IUCP9164.
         9176:            MOVE       CWSNM-IUCP9164-NAME        TO
         9345:            MOVE       CWSNM-IUCP9150-NAME        TO
         9393:            PERFORM  J190-SETUP-FOR-CALL-IUCP9124.
         0198:              WHEN     CWSNM-IUCP9150-NAME
         0200:                MOVE   CWSEC-SEVERE-SYS-ERR-IUCP9150   TO
1        0218:              WHEN     CWSNM-IUCP9104-NAME
         0220:                MOVE   CWSEC-SEVERE-SYS-ERR-IUCP9104   TO
         0228:              WHEN     CWSNM-IUCP9108-NAME
         0230:                MOVE   CWSEC-SEVERE-SYS-ERR-IUCP9108   TO
         0238:              WHEN     CWSNM-IUCP9112-NAME
         0240:                MOVE   CWSEC-SEVERE-SYS-ERR-IUCP9112   TO
         0253:              WHEN     CWSNM-IUCP9118-NAME
         0255:                MOVE   CWSEC-SEVERE-SYS-ERR-IUCP9118   TO
         0258:              WHEN     CWSNM-IUCP9120-NAME
         0260:                MOVE   CWSEC-SEVERE-SYS-ERR-IUCP9120   TO
         0263:              WHEN     CWSNM-IUCP9122-NAME
         0265:                MOVE   CWSEC-SEVERE-SYS-ERR-IUCP9122   TO
         0268:              WHEN     CWSNM-IUCP9124-NAME
         0270:                MOVE   CWSEC-SEVERE-SYS-ERR-IUCP9124   TO
         0278:              WHEN     CWSNM-IUCP9132-NAME
         0280:                MOVE   CWSEC-SEVERE-SYS-ERR-IUCP9132   TO
         0336:              WHEN     CWSNM-ITCP9700-NAME
         0338:                MOVE   CWSEC-SEVERE-SYS-ERR-ITCP9700   TO
         0599:                MOVE CWSNM-IUCP9150-NAME                    TO
         0613:                MOVE CWSNM-IUCP9150-NAME                    TO
         0627:                MOVE CWSNM-IUCP9150-NAME                    TO
         0641:                MOVE CWSNM-IUCP9150-NAME                    TO
         0659:                MOVE CWSNM-IUCP9150-NAME                    TO
         1832:            MOVE       CWSEC-SEVERE-SYS-ERR-IUCP9150 TO
         1838:            PERFORM    F260-SEVERE-LOG-SETUP-IUCP9150.
0    ELEMENT   IUCP9152
            3:        PROGRAM-ID.                     IUCP9152.
           11:       *   MODULE      : IUCP9152                                       *00000110
           38:       *                                 IUCP9122.                      *
          229:       *                                 IUCP9122 IN CIAIF-PREV-PMT-DISP*
          285: 002810*         PROPERLY TO PREVENT S0C7 IN IUCP9122                   *
          315:       *         FOR VOIDS AND REISSUES BETWEEN IUCP9152 AND IUCP9150.  *
          340: 007500*         CONSISTENT WITH IUCP9150 AND TO MORE EASILY            *
          488: 132363*         IUCP9132 BEGINNING WITH 19.5.1.                        *
          497: R20012*         CIAIF-NOT-USE-PLAN-PROFILE SHOULD BE SET IN IUCP9150/52*
          498: R20012*         RATHER THAN IN IUCP9132.  REMOVE OBSOLETE LOGIC C120-. *
          510: R21011*         IUCP9150 VIA IUCP9102) STILL HAS LINE INFO WHEN THE    *
          542: IP3511*         FROM IUCP9132, ELIMINATE MOST REFERENCES TO SINF.      *
          570:            05  WS-MODULE-ID               PIC X(08) VALUE 'IUCP9152'.
         3077: 020490         PERFORM  J210-SETUP-FOR-CALL-IUCP9134                    00020490
         3205:       *05/13/2010 E_47079  BZXDJL1 ADDED TO MATCH IUCP9150
         3207:       *05/13/2010 E_47079  BZXDJL1 ADDED TO MATCH IUCP9150
         3420:       *    C2 ALIM CALLS DO NOT INVOKE IUCP9132 WHERE THE CIAIF               60
         3422:       *    SWITCHES MUST BE RESET PRIOR TO INVOKING IUCP9164.                 60
         3425:       *    KEEP IN SYNC WITH IUCP9132 AND IULP9352                            60
         3496:       *    NOTE:  IUCP9132 SHARES THIS COPYBOOK
         4225:       *05/13/2010 E_47079  BZXDJL1 ADDED TO MATCH IUCP9150
         4227:       *05/13/2010 E_47079  BZXDJL1 ADDED TO MATCH IUCP9150
         4259:       *    AT THIS POINT IN IUCP9150:
         4261:       *        THE KERNEL EDIT IUCP9132 IS INVOKED.
         4907:            PERFORM    N500-SETUP-FOR-CALL-IUCP9124.
         4977:            PERFORM  J050-SETUP-FOR-CALL-IUCP9132.
         5022:            PERFORM  J050-SETUP-FOR-CALL-IUCP9132.
         5271: 117939*R19.5   E_117939  DJL BEGIN MIMIC IUCP9150; MOVE TO L3, C3
         5278: 117939*R19.5   E_117939  DJL END   MIMIC IUCP9150; MOVE TO L3, C3
         5437:            PERFORM J070-SETUP-FOR-CALL-ITCP9700.
         5481: 129517*    MUST BE KEPT IN SYNC WITH LOGIC IN IULP9144
         5517:                PERFORM  J120-SETUP-FOR-CALL-IUCP9112
         5522:                PERFORM  J230-SETUP-FOR-CALL-IUCP9164.
1        5828:            PERFORM  J210-SETUP-FOR-CALL-IUCP9134.
         6268: 042010*    IUCP9150 PARAGRAPH D360 CONTAINS MUCH ADDITIONAL LOGIC
         6866:       *!!!!!!!! D1000- THRU D1075- ARE DUPLICATED IN IUCP9150 !!!!!!!!
         7676:            PERFORM    J110-SETUP-FOR-CALL-IUCP9108.
         8198:       *    INVOKED AFTER IUCP9132
         8568:        F180-SEVERE-LOG-SETUP-IUCP9152.
         9973:       *    INVOKED AFTER IUCP9132, IUCP9158                             00055750
         0104:       *    INVOKED AFTER IUCP9116, IUCP9132, IUCP9158                   00055750
         0143:            MOVE       CWSNM-ITCP9248-NAME        TO
         0147:            PERFORM    J130-SETUP-FOR-CALL-ITCP9248.
         0437:        J050-SETUP-FOR-CALL-IUCP9132.
         0442:            MOVE       CWSNM-IUCP9132-NAME        TO
         0512:        J070-SETUP-FOR-CALL-ITCP9700.
         0517:            MOVE       CWSNM-ITCP9700-NAME        TO
         0709:        J110-SETUP-FOR-CALL-IUCP9108.
         0714:            MOVE       CWSNM-IUCP9108-NAME        TO
         0746:        J120-SETUP-FOR-CALL-IUCP9112.
         0751:            MOVE       CWSNM-IUCP9112-NAME        TO
         0818:        J130-SETUP-FOR-CALL-ITCP9248.
         0827:            MOVE       CWSNM-ITCP9248-NAME        TO
         1096:        J210-SETUP-FOR-CALL-IUCP9134.
         1101:            MOVE       CWSNM-IUCP9134-NAME        TO
         1189:        J230-SETUP-FOR-CALL-IUCP9164.
         1194:            MOVE       CWSNM-IUCP9164-NAME        TO
         1523:            MOVE       CWSNM-IUCP9152-NAME        TO
         1562:            PERFORM  N500-SETUP-FOR-CALL-IUCP9124.
         1979:        N500-SETUP-FOR-CALL-IUCP9124.
         1984:            MOVE     CWSNM-IUCP9124-NAME          TO
         2491: 092100       WHEN     CWSNM-IUCP9152-NAME                               00091970
         2493:                MOVE   CWSEC-SEVERE-SYS-ERR-IUCP9152   TO
         2501: 093100       WHEN     CWSNM-IUCP9108-NAME                               00092150
         2503:                MOVE   CWSEC-SEVERE-SYS-ERR-IUCP9108   TO
         2506: 093600       WHEN     CWSNM-IUCP9112-NAME                               00092270
         2508:                MOVE   CWSEC-SEVERE-SYS-ERR-IUCP9112   TO
         2521: 095100       WHEN     CWSNM-IUCP9118-NAME                               00092450
         2523:                MOVE   CWSEC-SEVERE-SYS-ERR-IUCP9118   TO
         2526: 095600       WHEN     CWSNM-IUCP9120-NAME                               00092510
         2528:                MOVE   CWSEC-SEVERE-SYS-ERR-IUCP9120   TO
         2531: 096100       WHEN     CWSNM-IUCP9122-NAME                               00092570
         2533:                MOVE   CWSEC-SEVERE-SYS-ERR-IUCP9122   TO
         2536: 096600       WHEN     CWSNM-IUCP9124-NAME                               00092630
         2538:                MOVE   CWSEC-SEVERE-SYS-ERR-IUCP9124   TO
         2546: 097600       WHEN     CWSNM-IUCP9132-NAME                               00092750
         2548:                MOVE   CWSEC-SEVERE-SYS-ERR-IUCP9132   TO
         2604: 104600       WHEN     CWSNM-ITCP9700-NAME                               00093590
         2606:                MOVE   CWSEC-SEVERE-SYS-ERR-ITCP9700   TO
         2780:                MOVE CWSNM-IUCP9152-NAME                    TO
         2794:                MOVE CWSNM-IUCP9152-NAME                    TO
         2808:                MOVE CWSNM-IUCP9152-NAME                    TO
         2822:                MOVE CWSNM-IUCP9152-NAME                    TO
         2840:                MOVE CWSNM-IUCP9152-NAME                    TO
         4155:            MOVE       CWSEC-SEVERE-SYS-ERR-IUCP9152 TO
         4158:            PERFORM    F180-SEVERE-LOG-SETUP-IUCP9152.
0    ELEMENT   IUCP9160
           24:       *                                 WHEN CALLING IUCP9132.         *
           73:       *         TO PASS OVERRIDE TOTALS TO IUCP9104/IUCP9116.          *
           76:       *       INTO IUCP9132 & IUCP9184.                                *
           79:       *       PASS ITCIAAI INTO ITCP9700.                              *
           81:       *       PASS IUCIAQD INTO IUCP9134.  REMOVE UNUSED COPYBOOKS AND *
1          87:       *         ITCP9248 FOR ZERO PRICING.                             *
          548:              WHEN CWSNM-ITCP9248-NAME
          549:                PERFORM J030-SETUP-FOR-CALL-ITCP9248
          557:              WHEN CWSNM-ITCP9700-NAME
          558:                PERFORM J060-SETUP-FOR-CALL-ITCP9700
          566:              WHEN CWSNM-IUCP9104-NAME
          567:                PERFORM J100-SETUP-FOR-CALL-IUCP9104
          572:              WHEN CWSNM-IUCP9108-NAME
          573:                PERFORM J120-SETUP-FOR-CALL-IUCP9108
          578:              WHEN CWSNM-IUCP9112-NAME
          579:                PERFORM J140-SETUP-FOR-CALL-IUCP9112
          587:              WHEN CWSNM-IUCP9124-NAME
          588:                PERFORM J170-SETUP-FOR-CALL-IUCP9124
          593:              WHEN CWSNM-IUCP9132-NAME
          594:                PERFORM J190-SETUP-FOR-CALL-IUCP9132
          596:              WHEN CWSNM-IUCP9134-NAME
          597:                PERFORM J200-SETUP-FOR-CALL-IUCP9134
          608:              WHEN CWSNM-IUCP9164-NAME
          609:                PERFORM J260-SETUP-FOR-CALL-IUCP9164
          684:        J030-SETUP-FOR-CALL-ITCP9248.
          689:            MOVE       CWSNM-ITCP9248-NAME        TO
          695:            MOVE       CWSNM-ITCP9248-NAME        TO
          718:            PERFORM    T030-CALL-ITCP9248.
          794:        J060-SETUP-FOR-CALL-ITCP9700.
          799:            MOVE       CWSNM-ITCP9700-NAME        TO
          805:            MOVE       CWSNM-ITCP9700-NAME        TO
          834:            PERFORM    T060-CALL-ITCP9700.
          935:        J100-SETUP-FOR-CALL-IUCP9104.
          940:            MOVE       CWSNM-IUCP9104-NAME        TO
          946:            MOVE       CWSNM-IUCP9104-NAME        TO
          969:            PERFORM    T100-CALL-IUCP9104.
          998:        J120-SETUP-FOR-CALL-IUCP9108.
         1003:            MOVE       CWSNM-IUCP9108-NAME        TO
         1009:            MOVE       CWSNM-IUCP9108-NAME        TO
         1018:            PERFORM    T120-CALL-IUCP9108.
         1057:        J140-SETUP-FOR-CALL-IUCP9112.
         1062:            MOVE       CWSNM-IUCP9112-NAME        TO
         1068:            MOVE       CWSNM-IUCP9112-NAME        TO
         1105:            PERFORM    T140-CALL-IUCP9112.
         1187:        J170-SETUP-FOR-CALL-IUCP9124.
         1192:            MOVE     CWSNM-IUCP9124-NAME          TO
         1198:            MOVE     CWSNM-IUCP9124-NAME          TO
         1220:            PERFORM T170-CALL-IUCP9124.
         1246:        J190-SETUP-FOR-CALL-IUCP9132.
         1251:            MOVE       CWSNM-IUCP9132-NAME        TO
         1257:            MOVE       CWSNM-IUCP9132-NAME        TO
         1273:            PERFORM    T190-CALL-IUCP9132.
         1279:        J200-SETUP-FOR-CALL-IUCP9134.
         1284:            MOVE       CWSNM-IUCP9134-NAME        TO
         1290:            MOVE       CWSNM-IUCP9134-NAME        TO
         1293:            PERFORM    T200-CALL-IUCP9134.
         1373:        J260-SETUP-FOR-CALL-IUCP9164.
         1378:            MOVE       CWSNM-IUCP9164-NAME        TO
         1384:            MOVE       CWSNM-IUCP9164-NAME        TO
         1387:            PERFORM    T260-CALL-IUCP9164.
         1507:        T030-CALL-ITCP9248.
         1512:            CALL 'ITCP9248'          USING  ITSIAPC
         1553:        T060-CALL-ITCP9700.
         1558:            CALL 'ITCP9700'          USING ITSIAPC
         1619:        T100-CALL-IUCP9104.
1        1624:            CALL 'IUCP9104'          USING ITSIAPC
         1652:        T120-CALL-IUCP9108.
         1657:            CALL 'IUCP9108'          USING ITSIAPC
         1679:        T140-CALL-IUCP9112.
         1684:            CALL 'IUCP9112'          USING ITSIAPC
         1789:        T170-CALL-IUCP9124.
         1794:            CALL 'IUCP9124'          USING ITSIAPC
         1836:        T190-CALL-IUCP9132.
         1841:            CALL 'IUCP9132'          USING ITSIAPC
         1858:        T200-CALL-IUCP9134.
         1863:            CALL 'IUCP9134'          USING ITSIAPC
         1988:        T260-CALL-IUCP9164.
         1993:            CALL 'IUCP9164'          USING ITSIAPC
0    ELEMENT   IUCP9162
          216:       *12.0   E_41233  KJO PASS IN ITCIACP FROM IUCP9124
0    ELEMENT   IUCP9164
            2:        PROGRAM-ID.                       IUCP9164.
           10:       *   MODULE      : IUCP9164                                       *
           20:       *                 UNLIKE IUCP9112, THIS MODULE ONLY LOOKS AT     *
          128:            05  WS-MODULE-ID               PIC X(08) VALUE 'IUCP9164'.
          842: IP3511*    KEEP IN SYNC WITH IUCP9112, IUCP9118, IUCP9120, IULP9360
         1610:       *       D500 INVOKES ITCP9248 THAT WILL BUILD THE CIACF
         1987:            MOVE     CWSNM-ITCP9248-NAME          TO
         1994:            MOVE     CWSNM-ITCP9248-NAME          TO
         1997:            PERFORM  T100-CALL-ITCP9248.
         3237:        T100-CALL-ITCP9248.
         3242:            CALL 'ITCP9248'          USING  ITSIAPC
0    ELEMENT   IUCP9170
           26:       *         GROUPINGS - REMOVE AJR FROM CALL TO IUCP9172           *00050013
           99:               PERFORM B100-CALL-IUCP9172.
          103:        B100-CALL-IUCP9172.
          110:            MOVE       CWSNM-IUCP9172-NAME        TO
          113:       *TRIGON    CALL CWSNM-IUCP9172-NAME  USING ITSIAPC
          114:            CALL 'IUCP9172'           USING ITSIAPC
0    ELEMENT   IUCP9172
            2:        PROGRAM-ID.                 IUCP9172.
           10:       *   MODULE:       IUCP9172                                       *
           64:              VALUE 'IUCP9172 VERSION 03.5 RELEASED 11/12/15'.
         2021:            MOVE CWSEC-SEVERE-SYS-ERR-IUCP9172  TO
0    ELEMENT   IUCP9180
            2:        PROGRAM-ID.                     IUCP9180.
           11:       *   MODULE:       IUCP9180                                       *
           35:       *                 IUCIASSC TO PASS AREAS RECEIVED FROM IUCP9124. *
           97:            05  WS-MODULE-ID               PIC X(8)  VALUE 'IUCP9180'.   00030002
          104:                    'IUCP9180-HPA DF REALTIME PRCS'.                     00100002
          298:            MOVE CWSNM-IUCP9180-NAME        TO SIAPC-MODULE-NAME(1).
          623:            MOVE CWSNM-IUCP9180-NAME TO CSAPI-CALLING-PGM-ID.            00045400
          734:            MOVE CWSNM-IUCP9180-NAME     TO CSAPI-CALLING-PGM-ID.
          763:       *    DISPLAY 'IUCP9180/T500-1 MQMD   = ' MQM-MESSAGE-DESCRIPTOR.
          764:       *    DISPLAY 'IUCP9180/T500-1 CIART  = ' ITCIART.
          765:       *    DISPLAY 'IUCP9180/T500-1 SIAPC  = ' ITSIAPC.
          766:       *    DISPLAY 'IUCP9180/T500-1 MQINP  = ' WS-MQ-INPUT.
          767:       *    DISPLAY 'IUCP9180/T500-1 CRT001 = ' WS-ITCRT001.
          768:       *    DISPLAY 'IUCP9180/T500-1 CIANAP = ' WS-ITCIANAP.
          791:            MOVE CWSNM-IUCP9180-NAME TO CSAPI-CALLING-PGM-ID.            00056100
1         861:            MOVE CWSNM-IUCP9180-NAME      TO CSAPI-CALLING-PGM-ID.
0    ELEMENT   IUCP9356
          606:                        PERFORM J300-SETUP-FOR-CALL-ITCP9358
         1559:        J300-SETUP-FOR-CALL-ITCP9358.
         1564:            MOVE       CWSPN-ITCP9358-NAME             TO
         1576:            MOVE       CWSPN-ITCP9358-NAME             TO
         1579:            PERFORM    T300-CALL-ITCP9358.
         1682:        T300-CALL-ITCP9358.
         1687:            CALL 'ITCP9358'          USING ITSIAPC
0    ELEMENT   IUCV9006
          141:            05  WS-CALL-ITCP9730        PIC X(08) VALUE 'ITCP9730'.      00830438
         1647:       * SETUP AND CALL THE AIDCOMM DISASSEMBLE MODULE ITCP9730          03008438
         1659:            CALL WS-CALL-ITCP9730 USING ITSIAPC,                         03009638
0    ELEMENT   IUCV9007
          145:            05  WS-CALL-ITCP9730        PIC X(08) VALUE 'ITCP9730'.      00830438
         1769:       * SETUP AND CALL THE RECON DISASSEMBLE MODULE ITCP9730            03020386
         1782:            CALL WS-CALL-ITCP9730 USING ITSIAPC,                         03021686
0    ELEMENT   IUCV9014
          388: 011200           15 QIACS-IULP9220-ENTERED-IND           PIC X.         01144954
         2263:       ** FOLLOWING CODE FROM ITCP9732                                   03851371
         2275:       **   CODE FROM ITCP9732 END                                       03852571
0    ELEMENT   IUCV9108
           28:       *R15.5   05/14/2015  01.0  I_103710  DJL: CLONE ITPCA003 AND *00276400
1ENVIRONMENT  BCBS01    SYSTEM  ITS       SUBSYSTEM  ITS
 TYPE  COBOL     STAGE NUMBER 2 .
0    ELEMENT   ITCA0001
          167:            05 WS-ITCP9102             PIC X(08) VALUE 'ITCP9102'.       00780031
          189:            05 WS-ITCA0013             PIC X(08) VALUE 'ITCA0013'.
         2320:            MOVE WS-ITCP9102       TO                                    18140024
         2330:            CALL WS-ITCP9102 USING WS-ITSIAPC                            18230024
         2363:               DISPLAY 'ITCA0001-3100 SEVERE ERROR IN ITCP9102: '
         6117:       *PARA TO CALL PROGRAM ITCA0013
         6122:            MOVE WS-ITCA0013       TO
         6136:            CALL WS-ITCA0013 USING WS-ITSIAPC
         6294:       *PARA TO CALL PROGRAM ITCA0013
         6299:            MOVE WS-ITCA0013       TO
         6308:            CALL WS-ITCA0013 USING WS-ITSIAPC
         7927:       *PARA TO CALL PROGRAM ITCA0013
         7932:            MOVE WS-ITCA0013       TO
         7942:            CALL WS-ITCA0013 USING WS-ITSIAPC
0    ELEMENT   ITCA0011
           42:       *         ADD IUCIAQD TO IUCP9134                                *00336000
          129:        01  WS-ITPCA002-NAME               PIC X(08) VALUE 'ITPCA002'.   01020000
          473:            MOVE    CWSNM-IUCP9134-NAME TO                               04970000
          475:            PERFORM 7330-CALL-TO-IUCP9134.                               04990000
          501:       *    NOTE THAT LK-ITSIAPC IS NOT PASSED TO ITPCA002               05300000
          503:            MOVE    WS-ITPCA002-NAME TO                                  05320000
          505:            PERFORM 7500-CALL-TO-ITPCA002.                               05340000
          641:        7210-CALL-TO-ITCP9358.                                           06620000
          644: TRIGON*    CALL CWSNM-ITCP9358-NAME USING LK-ITSIAPC                    06650001
          645: TRIGON     CALL 'ITCP9358'          USING LK-ITSIAPC                    06651001
          666:        7330-CALL-TO-IUCP9134.                                           06850000
          669: TRIGON*    CALL CWSNM-IUCP9134-NAME USING LK-ITSIAPC                    06880001
          670: TRIGON     CALL 'IUCP9134'          USING LK-ITSIAPC                    06881002
          697:        7500-CALL-TO-ITPCA002.                                           07130000
          700:            CALL WS-ITPCA002-NAME    USING ITCCSAPI                      07160000
0    ELEMENT   ITCA0012
           46:       *         ADD IUCIAQD TO IUCP9134                                *00335000
          156:        01  WS-ITPCA002-NAME               PIC X(08) VALUE 'ITPCA002'.   01140000
          559:            MOVE    CWSNM-IUCP9134-NAME TO                               05310000
          561:            PERFORM 7330-CALL-TO-IUCP9134.                               05330000
          696:            MOVE    CWSNM-IUCP9134-NAME TO                               06620000
          698:            PERFORM 7330-CALL-TO-IUCP9134.                               06640000
          871:            MOVE    CWSNM-IUCP9134-NAME TO                               08710000
          873:            PERFORM 7330-CALL-TO-IUCP9134.                               08730000
          954:       *    NOTE THAT LK-ITSIAPC IS NOT PASSED TO ITPCA002               09360000
          956:            MOVE    WS-ITPCA002-NAME TO                                  09380000
          958:            PERFORM 7500-CALL-TO-ITPCA002.                               09400000
         1110:        7210-CALL-TO-ITCP9358.                                           10680000
         1113: TRIGON*    CALL CWSNM-ITCP9358-NAME USING LK-ITSIAPC                    10710000
         1114: TRIGON     CALL 'ITCP9358'          USING LK-ITSIAPC                    10711000
         1135:        7330-CALL-TO-IUCP9134.                                           10910000
         1138: TRIGON*    CALL CWSNM-IUCP9134-NAME USING LK-ITSIAPC                    10940000
         1139: TRIGON     CALL 'IUCP9134'          USING LK-ITSIAPC                    10941000
         1183:        7500-CALL-TO-ITPCA002.                                           11350000
         1186:            CALL WS-ITPCA002-NAME    USING ITCCSAPI                      11380000
0    ELEMENT   ITCA0013
            2:        PROGRAM-ID.             ITCA0013.                                00020000
           11:       *   MODULE      : ITCA0013                                       *00110000
1          91:            05  WS-MODULE-ID               PIC X(08) VALUE 'ITCA0013'.   00264200
          158:        01  WS-ITPCA002-NAME               PIC X(08) VALUE 'ITPCA002'.   00920000
          159:        01  WS-ITPCA003-NAME               PIC X(08) VALUE 'ITPCA003'.   00930000
          386:       *            DISPLAY 'ITCA0013 - EDIT FOR HPA DF'                 02931300
          713:       *    POPULATED BY ITPCA002    TO CA1-FMT-TXN-ID.                  07780000
          716:       *    NOTE THAT LK-ITSIAPC IS NOT PASSED TO ITPCA002               07810000
          718:            MOVE    WS-ITPCA002-NAME TO                                  07830000
          720:            PERFORM 7200-CALL-TO-ITPCA002.                               07850000
          765:       *    NOTE THAT LK-ITSIAPC IS NOT PASSED TO ITPCA003               08280000
          767:            MOVE    WS-ITPCA003-NAME TO                                  08300000
          769:            PERFORM 7300-CALL-TO-ITPCA003.                               08320000
         1316:       *    NOTE THAT LK-ITSIAPC IS NOT PASSED TO ITPCA003               13060000
         1318:            MOVE    WS-ITPCA003-NAME TO                                  13080000
         1320:            PERFORM 7300-CALL-TO-ITPCA003.                               13100000
         1380:        7200-CALL-TO-ITPCA002.                                           13600000
         1383:            CALL WS-ITPCA002-NAME    USING ITCCSAPI                      13630000
         1396:        7300-CALL-TO-ITPCA003.                                           13750000
         1399:            CALL WS-ITPCA003-NAME    USING ITCCSAPI                      13780000
0    ELEMENT   ITCA0015
           30:       *                 ONLY TO ACCOMODATE ITPCA003.                   *00210000
           77:        01  WS-ITPCA003-NAME               PIC X(08) VALUE 'ITPCA003'.   00660000
          322:       *    NOTE THAT LK-ITSIAPC IS NOT PASSED TO ITPCA003               02950000
          324:            MOVE    WS-ITPCA003-NAME TO                                  02970000
          326:            PERFORM 7300-CALL-TO-ITPCA003.                               02990000
          352:        7300-CALL-TO-ITPCA003.                                           03250000
          355:            CALL WS-ITPCA003-NAME    USING LK-ITCCSAPI                   03280000
0    ELEMENT   ITCA9080
           26: 002000*                - OPTION TO CALL SF EDIT MODULE ITCP9102 TO     *00002400
           85: 002700*         ITCP9102 USING' STATEMENT                              *00003200
          239: 110116         10  WS-ITCP9102           PIC X(08) VALUE 'ITCP9102'.    00013710
          299: 110185     05  WS-CALL-ITCP9102-IND      PIC X(01) VALUE 'N'.           00018600
          300: 110186         88  WS-CALL-ITCP9102                VALUE 'Y'.           00018700
          301: 110187         88  WS-BYP-CALL-ITCP9102            VALUE 'N'.           00018800
          392: 110271     05  WS-RPT-MESSAGE-ITCP9102        PIC X(41)                 00027200
          393: 110272         VALUE 'ITCP9102-SEVERE EDIT ERR- CLAIM BYPASSED '.       00027300
         1207:            SET WS-CALL-ITCP9102 TO TRUE
         1224:                 SET WS-BYP-CALL-ITCP9102 TO TRUE
         1346:                   IF WS-BYP-CALL-ITCP9102
         1373: 600793****     ITCP9102
         1382: 612900*****SO THAT IT DOESN'T AFFECT ITCP9102 PROCESSING
         1466:       *ITCP9102 LOOKS AT THE SLOT AFTER THE X0/90 RECORD
         1480: 600860     MOVE WS-ITCP9102       TO                                    00101093
         1495: 602000     CALL WS-ITCP9102 USING ITSIAPC-RECORD                        00101126
         1504:                DISPLAY 'ITCA9080- CALL TO ITCP9102 -  2050-'
         1515:       **** SEVERE ERROR FROM ITCP9102 - BYPASS THIS SF
         1526:               MOVE WS-RPT-MESSAGE-ITCP9102
         1548:       ***** ERROR LINE NUMBERS PASSED BACK FROM ITCP9102
         1578: 605000        DISPLAY 'ITCA9080  -  SEVERE ERROR IN ITCP9102: '         00101156
         2699:       ****     LET ITCP9102 ISSUE IT040 IF USING THE LINE ERROR
         2701:                IF WS-BYP-CALL-ITCP9102  AND
         4795:       ****     LET ITCP9102 ISSUE PT040 IF USING THE LINE ERROR
         4797:                IF WS-BYP-CALL-ITCP9102  AND
0    ELEMENT   ITCB9000
            2:        PROGRAM-ID.  ITCB9000.                                           00000200
            8:       * MODULE       : ITCB9000                                        *00000900
          230:            05  WS-PROGRAM-ID           PIC X(08) VALUE 'ITCB9000'.      00005300
          460:             'WORKING STORAGE ENDS HERE FOR PROGRAM - ITCB9000 '.        00010200
1         530:                    DISPLAY 'ITCB9000 - MORE THAN 99 BOIDS ASSIGNED'
          807:            MOVE 'ITCB9000'  TO CSAPI-CALLING-PGM-ID.                    07810000
          819:                DISPLAY 'ITCB9000 - RETURN CODE OF ' WS-RETURN-CODE-DIS  07930000
          892:            MOVE 'ITCB9000'              TO CB1-BLUE2-USER-ID.           08660001
          950:                    DISPLAY 'ITCB9000 - STATUS CODE OF ' WS-UPDT-STATUS  00016400
         1207:            MOVE 'ITCB9000' TO CSAPI-CALLING-PGM-ID.                     11810000
         1223:                DISPLAY 'ITCB9000: UNABLE TO CREATE SCCF FOR:'
         1250:                DISPLAY 'ITCB9000 - INVALID DATA FOUND DURING HOME '     00016400
         1288:            MOVE 'ITCB9000'  TO CSAPI-CALLING-PGM-ID.                    12610000
         1299:                DISPLAY 'ITCB9000 RETURNED CODE OF ' WS-RETURN-CODE-DIS  12720000
         1309:                DISPLAY 'ITCB9000 BLANK BOID RETURNED FROM ITPEXCB3'     00016400
         1346:            MOVE 'ITCB9000'  TO CSAPI-CALLING-PGM-ID.                    13190000
         1360:                DISPLAY 'ITCB9000: INVALID RETURN CODE OF '              13330000
         1412:            MOVE 'ITCB9000'  TO CSAPI-CALLING-PGM-ID.                    13850000
         1426:                DISPLAY 'ITCB9000: INVALID RETURN CODE OF '              13990000
         1472:            MOVE 'ITCB9000'  TO CSAPI-CALLING-PGM-ID.                    14450000
         1494:       *                DISPLAY 'ITCB9000 - STATUS CODE OF '             00016400
         1509:       *            DISPLAY 'ITCB9000: INVALID RETURN CODE OF '          00016400
         1526:                DISPLAY 'ITCB9000: INVALID RETURN CODE OF '              00016400
         1580:            DISPLAY 'ITCB9000 TAKING CHECKPOINT #' X01-CHKP-CNT          00016400
         1586:                DISPLAY 'ITCB9000 - CHECKPOINT INSERT OR COMMIT '        00016400
         1627:            MOVE 'ITCB9000'  TO CSAPI-CALLING-PGM-ID.                    15960000
         1643:                DISPLAY 'ITCB9000: INVALID RETURN CODE OF '              00016400
         1701:                DISPLAY 'ITCB9000 - STATUS CODE OF '                     00016400
         1732:            MOVE 'ITCB9000'  TO CSAPI-CALLING-PGM-ID.                    16950000
         1754:                DISPLAY 'ITCB9000: INVALID RETURN CODE OF '              00016400
         1783:            MOVE 'ITCB9000'  TO CSAPI-CALLING-PGM-ID.                    17460000
         1799:                DISPLAY 'ITCB9000: INVALID RETURN CODE OF '              00016400
         1829:                DISPLAY 'ITCB9000: NOT FOUND ON UPDATE OF:'              00016400
         1857:            MOVE 'ITCB9000' TO SIAPC-MODULE-NAME (SIAPC-MODULE-LEVEL)    00012900
         1867:                DISPLAY 'ITCB9000 - STATUS CODE OF ' WS-BDR-STATUS       00016400
         1875:                DISPLAY 'ITCB9000 - STATUS CODE OF ' WS-PARM-STATUS      00016400
         1883:                    DISPLAY 'ITCB9000 - NO PARMETER FILE READ'           00016400
         1890:                DISPLAY 'ITCB9000 - STATUS CODE OF ' WS-PARM-STATUS      00016400
         1898:                DISPLAY 'ITCB9000 - PARAMETER HOST/HOME CODE IS '        00016400
         1947:                        DISPLAY 'ITCB9000 - STATUS CODE OF '             00016400
         1956:                        DISPLAY 'ITCB9000 - STATUS CODE OF '             00016400
         1969:                    DISPLAY 'ITCB9000 - STATUS CODE OF ' WS-RPT-STATUS   00016400
         1977:                    DISPLAY 'ITCB9000 - STATUS CODE OF '                 00016400
         1995:                DISPLAY 'ITCB9000 - BAD RETURN CODE OF '                 00016400
         2017:                DISPLAY 'ITCB9000 BAD RETURN FROM ITDP01S1 OF '          00016400
         2039:                    DISPLAY 'ITCB9000 - RESTART PROCESSING ERROR '       00016400
         2089:                DISPLAY 'ITCB9000 - STATUS CODE OF ' WS-RPT-STATUS       00016400
         2097:                DISPLAY 'ITCB9000 - STATUS CODE OF ' WS-INVALID-STATUS   00016400
         2117:                DISPLAY 'ITCB9000 - STATUS CODE OF ' WS-RPT-STATUS       00016400
         2125:                DISPLAY 'ITCB9000 - STATUS CODE OF ' WS-INVALID-STATUS   00016400
         2144:                DISPLAY 'ITCB9000 - STATUS CODE OF ' WS-RPT-STATUS       00016400
         2156:                DISPLAY 'ITCB9000 - STATUS CODE OF ' WS-RPT-STATUS       00016400
         2180:                DISPLAY 'ITCB9000 - STATUS CODE OF ' WS-INVALID-STATUS   00016400
         2192:                DISPLAY 'ITCB9000 - STATUS CODE OF ' WS-INVALID-STATUS   00016400
         2217:                DISPLAY 'ITCB9000 - STATUS CODE OF ' WS-UPDT-STATUS      00016400
         2232:                DISPLAY 'ITCB9000 - STATUS CODE OF ' WS-UPDT-STATUS 00016400
         2246:                DISPLAY 'ITCB9000 - STATUS CODE OF ' WS-ERROR-STATUS     00016400
         2261:                DISPLAY 'ITCB9000 - STATUS CODE OF ' WS-ERROR-STATUS 00016400
         2280:                DISPLAY 'ITCB9000 - STATUS CODE OF ' WS-UPDT-STATUS      00016400
         2292:                DISPLAY 'ITCB9000 - STATUS CODE OF ' WS-UPDT-STATUS      00016400
         2316:                DISPLAY 'ITCB9000 - STATUS CODE OF ' WS-ERROR-STATUS     00016400
         2328:                DISPLAY 'ITCB9000 - STATUS CODE OF ' WS-ERROR-STATUS     00016400
         2357:                DISPLAY 'ITCB9000 - STATUS CODE OF ' WS-BDR-STATUS       00016400
         2365:                DISPLAY 'ITCB9000 - STATUS CODE OF ' WS-PARM-STATUS      00016400
1        2381:                        DISPLAY 'ITCB9000 - STATUS CODE OF '             00016400
         2390:                        DISPLAY 'ITCB9000 - STATUS CODE OF '             00016400
         2404:                    DISPLAY 'ITCB9000 - STATUS CODE OF ' WS-RPT-STATUS   00016400
         2412:                    DISPLAY 'ITCB9000 - STATUS CODE OF '                 00016400
         2446:                DISPLAY 'ITCB9000 - CHECKPOINT COMMIT '                  00016400
         2466:                DISPLAY 'ITCB9000 - ROLLBACK TO POINT OF LAST COMMIT'    00016400
         2468:                DISPLAY 'ITCB9000- ROLLBACK TO START OF THE JOB'         00016400
         2485:                DISPLAY 'ITCB9000 - STATUS CODE OF ' WS-BDR-STATUS       00016400
         2518:                DISPLAY 'ITCB9000 - STATUS CODE OF ' WS-RPT-STATUS       00016400
0    ELEMENT   ITCB9006
           32: R215S2*ITCB9000-01 REPORT                                              *
          160:                          VALUE 'REPORT ID: ITCB9000-0'.                 00009500
0    ELEMENT   ITCDB1U1
           60:       *         A RETRO-TERM OR ADJUSTMENTS IN ITCB9000.               *
0    ELEMENT   ITCPDLR0
           50:            05  WS-ITDBR0U1                PIC X(08) VALUE 'ITDBR0U1'.   00011490
           68:            CALL WS-ITDBR0U1 USING ITCCSAPI-RECORD                       00021634
0    ELEMENT   ITCP1172
          185: 012900* CHECK FUNCTION CODES FROM INVOKING MODULE ITCP9242.......       ITCP1172
0    ELEMENT   ITCP2010
           48: 003830*                            CODE DATABASE) ON CALL TO ITCP9102. *00043
           78: 004200*           A20718   AND TO CALL FOR ITCP9102.                   *00420000
           80: 004200*                    DATABASE PCB TO CALL FOR ITCP9102.          *00420000
           84: TRIGON*            ITCP9102                                            *
          130: 008500     05  WS-MODULE-ITCP9102           PIC X(8)  VALUE 'ITCP9102'. ITCP2010
          383: 025800     MOVE WS-MODULE-ITCP9102       TO SIAPC-MODULE-NAME (2)       ITCP2010
          393: 026800     CALL WS-MODULE-ITCP9102 USING WS-PROCESS-CONTROL             ITCP2010
0    ELEMENT   ITCP2078
          128: 015800      MOVE 'ITCP9078'              TO  WS-CALL-PROGRAM,           00158
0    ELEMENT   ITCP2172
          202:       * CHECK FUNCTION CODES FROM INVOKING MODULE ITCP9242.......       00161
0    ELEMENT   ITCP4010
           30: 002703*         ITCP9102 USING' STATEMENT                              *
           33: 002800*           A20718   AND TO CALL FOR ITCP9102.                   *00420000
           35: 003000*                    DATABASE PCB TO CALL FOR ITCP9102.          *00420000
           48: TRIGON*     CLAIMS ARE NOT PRICED AGAIN IN ITCP9102.                   *
          102: 007800     05 WS-ITCP9102                  PIC X(8) VALUE 'ITCP9102'.
          454: 034500* CALL ITCP9102 TO EDIT SF                                   *
          459: 035000     MOVE WS-ITCP9102  TO SIAPC-MODULE-NAME(SIAPC-MODULE-LEVEL).
          472: 036200     CALL WS-ITCP9102 USING WS-ITSIAPC
          507: 036810        MOVE '2200-CALL-ITCP9102   ' TO WS-PARAGRAPH
0    ELEMENT   ITCP4026
          268:       *     HOLD AREA FOR VOID PASSING AREA FOR THE EDIT PGM-ITCP9180
0    ELEMENT   ITCP4166
           60:            05  WS-ITDBR0U1                 PIC X(08) VALUE 'ITDBR0U1'.  00065
          223:            PERFORM 9100-CALL-ITDBR0U1 THRU 9100-EXIT                    00178
          246:        9100-CALL-ITDBR0U1.                                              00278
          248:            CALL WS-ITDBR0U1 USING CSAPI-HEADER-DATA                     00178
0    ELEMENT   ITCP4426
1           2:        PROGRAM-ID.             ITCP4426.                                00030000
            8:       * MODULE       : ITCP4426                                        *00090000
           72:            05  WS-PROGRAM-ID            PIC X(08) VALUE 'ITCP4426'.     00550000
          218:             'WORKING STORAGE ENDS HERE FOR PROGRAM - ITCP4426 '.        03260000
          771:                DISPLAY '              - ITCP4426 ERROR -'               09094700
          773:                DISPLAY 'ITCP4426 MESSAGE          : ' WS-ERR-DESC       09094900
          801:                DISPLAY '              - ITCP4426 ERROR -             '  09097700
          803:                DISPLAY 'ITCP4426 MESSAGE        : ' WS-ERR-DESC         09097900
          816:                DISPLAY '        - ITCP4426 ERROR -'                     09099200
          827:                DISPLAY '        - ITCP4426 ERROR -'                     09100300
          844:                DISPLAY '              - ITCP4426 ERROR -'               09102000
          846:                DISPLAY 'ITCP4426 MESSAGE          : ' WS-ERR-DESC       09102200
          926:                DISPLAY '            - ITCP4426 ERROR -              '   09110200
          928:                DISPLAY 'ITCP4426 MESSAGE        : ' WS-ERR-DESC         09110400
          968:                DISPLAY '              - ITCP4426 ERROR -'               09370000
          970:                DISPLAY 'ITCP4426 MESSAGE          : ' WS-ERR-DESC       09390000
         1019:            DISPLAY '             - ITCP4426 ERROR -'.                   09850000
         1020:            DISPLAY 'DB2 ERROR ENCOUNTERD IN ITCP4426'.                  09860000
0    ELEMENT   ITCP9036
           68:       *         FIX PARAMETERS PASSED TO ITCP9730                      *
         1238:               MOVE CWSPN-ITCP9730-NAME TO WS-REQUESTED-MODULE
         1298:               MOVE CWSPN-ITCP9730-NAME TO WS-REQUESTED-MODULE
         1403:               MOVE CWSPN-ITCP9730-NAME TO WS-REQUESTED-MODULE
         1463:               MOVE CWSPN-ITCP9730-NAME TO WS-REQUESTED-MODULE
0    ELEMENT   ITCP9050
          668:                DISPLAY 'ITCB9000 BAD RETURN FROM ITDP01S1 OF '          00031502
0    ELEMENT   ITCP9054
          521:                DISPLAY 'ITCB9000 BAD RETURN FROM ITDP01S1 OF '          00031502
0    ELEMENT   ITCP9056
         1105:                DISPLAY 'ITCB9000 BAD RETURN FROM ITDP01S1 OF '          00031502
0    ELEMENT   ITCP9058
          459:                DISPLAY 'ITCB9000 BAD RETURN FROM ITDP01S1 OF '          00031502
0    ELEMENT   ITCP9066
           21: 002100*                 (ITCP9068) TO DO THE ACTUAL COMPARISON TO      *ITCP9066
          105: 008100     88  WS-MODULE-ITCP9068     VALUE 'ITCP9068'.                 ITCP9066
          607: 058200     PERFORM 9060-CALL-ITCP9068 THRU 9060-EXIT                    ITCP9066
         1032: 089300     PERFORM 9060-CALL-ITCP9068 THRU 9060-EXIT                    ITCP9066
         1553: 207800 9060-CALL-ITCP9068.                                              ITCP9066
         1555: 208000     SET WS-MODULE-ITCP9068          TO TRUE                      ITCP9066
         1580: 210500     PERFORM 9060-CALL-ITCP9068           THRU 9060-EXIT          ITCP9066
0    ELEMENT   ITCP9068
            2: 000030 PROGRAM-ID.      ITCP9068.                                       00003000
           13: 000150*   MODULE      : ITCP9068                                       *00015000
           84: R20004*         FM115-TIER-DESIG-IND-CLM TO ITCP9068-01 REPORT.        *
          115: 000740     VALUE 'ITCP9068-W O R K I N G  S T O R A G E STARTS HERE '.  ITCP9068
          119: R20004     05  WS-MODULE-ID               PIC X(08) VALUE 'ITCP9068'.
          285: 018900* ADJUSTMENT COMPARE REPORT    = ITCP9068                 **      ITCP9068
          292: 005970     05  WS-RPT-ID                  PIC X(08) VALUE 'ITCP9068'.   ITCP9068
          622: 042800     '******** W O R K I N G  S T O R A G E ENDS FOR ITCP9068 *'. ITCP9068
          646: 045700 0000-ITCP9068-STARTS.                                            ITCP9068
0    ELEMENT   ITCP9078
            2: 000200 PROGRAM-ID.  ITCP9078.                                                ...
1          12: 001200*   MODULE:       ITCP9078                                       *00012
          534: 003900                   VALUE 'BEGIN ITCP9078  WORKING-STORAGE'.       00039
          784: 014900                 'END OF ITCP9078  WORKING-STORAGE'.              00149
          845: 018800       MOVE 'ITCP9078'  TO WS-PROG-NAME.                          00198
          847: 019000       MOVE 'ITCP9078'  TO SIAPC-MODULE-NAME (2).                 00200
0    ELEMENT   ITCP9102
            3:        PROGRAM-ID.  ITCP9102.
           20: 001400*   MODULE      : ITCP9102                                       *
          132:       *           A20718   AND TO CALL FOR ITCP9102.                   *
          134:       *                    DATABASE PCB TO CALL FOR ITCP9102.          *
          209: TRIGON*       BEFORE ALL BCA EDITS IN ITCP9102.                      *
          211: TRIGON*       CIAEP-PLACE-SERV-IND WILL SET PP049 IN ITCP9558        *
          238: CAMISC*     THE PROCESSING TO ITCP9102, AS CA CLAIMS ARE ONLINE.      *
          344: 005900     '**** ITCP9102 WORKING-STORAGE STARTS HERE ****'.            ITCP9102
          348: R20006     05  WS-MODULE-ID               PIC X(08) VALUE 'ITCP9102'.
          601: 118300         88  WS-ITCP9526                        VALUE 'ITCP9526'.
          602: 118400         88  WS-ITCP9528                        VALUE 'ITCP9528'.
          603: 118500         88  WS-ITCP9556                        VALUE 'ITCP9556'.
          604: 118600         88  WS-ITCP9558                        VALUE 'ITCP9558'.
         1114: 523403     '**** ITCP9102 WORKING-STORAGE ENDS HERE ****'.
         1528: 656770** ITCP9102 FOR THE FIRST TIME
         1549: 656800     MOVE 'ITCP9102'               TO CSAPI-CALLING-PGM-ID.
         1611: 657660     MOVE 'ITCP9102'               TO CSAPI-CALLING-PGM-ID.
         1854: 660040     MOVE 'ITCP9102'               TO CSAPI-CALLING-PGM-ID.
         2001: 665018     MOVE 'ITCP9102'               TO CSAPI-CALLING-PGM-ID.
         2035: 771831     MOVE 'ITCP9102'               TO CSAPI-CALLING-PGM-ID.
         2232: 149100        MOVE '      ITCP9102 - INVALID RELEASE'
         3273: 265100            DISPLAY 'ITCP9102/1050 - BAD SELECT FROM CCF TABLE'
         5719: 476300     MOVE 'ITCP9102'                TO CSAPI-CALLING-PGM-ID.
         5774: 482820           DISPLAY 'ITCP9102/1310 - BAD SELECT IPP_MSG_ADJ'
         5992: 501303     MOVE 'ITCP9102'                TO CSAPI-CALLING-PGM-ID.
         6019: 501328           DISPLAY 'ITCP9102/1340 - BAD SELECT FROM CA SEARCH TBL'
         6038: 501347     MOVE 'ITCP9102'                TO CSAPI-CALLING-PGM-ID.
         6066: 501382           DISPLAY 'ITCP9102/1350 - BAD SELECT FROM CLM SEARCH'
         6174: 354300****  ITCP9528 - INSTITUTIONAL LEVEL 2 EDIT MODULE            *** 05030
         6176: 806259        SET WS-ITCP9528              TO TRUE
         6190: 806270****  ITCP9526 - PROFESSIONAL LEVEL 2 EDIT MODULE             ***
         6192: 806272        SET WS-ITCP9526              TO TRUE
         6220: 205700****  ITCP9556 - INSTITUTIONAL LEVEL 3 EDIT MODULE            ****ITCP9102
         6222: 806299        SET WS-ITCP9556              TO TRUE
         6234: 206900****  ITCP9558 - PROFESSIONAL LEVEL 3 EDIT MODULE             ****ITCP9102
         6236: 806313        SET WS-ITCP9558              TO TRUE
         6661: R20502*          DISPLAY 'ITCP9102-BAD SELECT IPP_PROVIDER_COST_GROUP'  59660000
         6751: 806337     MOVE 'ITCP9102'                 TO CSAPI-CALLING-PGM-ID.
         6796: 807448     MOVE 'ITCP9102'                 TO CSAPI-CALLING-PGM-ID.
         7116: 807930     MOVE 'ITCP9102'                 TO CSAPI-CALLING-PGM-ID.
         7388: 444280     MOVE 'ITCP9102'                 TO CSAPI-CALLING-PGM-ID.
         7435: 444342     MOVE 'ITCP9102'                 TO CSAPI-CALLING-PGM-ID.
         7483:            MOVE 'ITCP9102'                 TO CSAPI-CALLING-PGM-ID.     67470000
         7521:                 DISPLAY 'ITCP9102/2530- BAD ACCESS TAXONOMY '           67850000
         7607:            MOVE 'ITCP9102'             TO CSAPI-CALLING-PGM-ID.         68620000
         7813: 584300     MOVE 'ITCP9102'                 TO CSAPI-CALLING-PGM-ID.     60140000
         8098: 811423     MOVE 'ITCP9102'                 TO CSAPI-CALLING-PGM-ID.
         8167: 572500     MOVE 'ITCP9102 - 1230-BAD READ IPP-MSG-SEARCH '              55959400
         8201: 573700     MOVE 'ITCP9102'                 TO CSAPI-CALLING-PGM-ID.     55960600
         8390: 812100     MOVE 'ITCP9102'         TO CSAPI-CALLING-PGM-ID.
         8540: 813042     MOVE 'ITCP9102'          TO CSAPI-CALLING-PGM-ID.
         8621: 504907     MOVE 'ITCP9102'                 TO CSAPI-CALLING-PGM-ID.
         8632: 504918     MOVE 'ITCP9102'                 TO CSAPI-CALLING-PGM-ID.
1        8647: 504933     MOVE 'ITCP9102'                 TO CSAPI-CALLING-PGM-ID.
         9662: 734052              DISPLAY '* CALL TO DSNTIAR FAILED IN ITCP9102 '
0    ELEMENT   ITCP9104
           21: 00021 *                 AND IS CALLED BY MODULE 'ITCP9102'.            *
0    ELEMENT   ITCP9112
          687: 059000         'INVALID FUNCTION PASSED FROM ITCP9102'.                 ITCP9112
0    ELEMENT   ITCP9174
           12: 001300*                           DYNAMIC CALLS TO ITCP9242 & ITCP9358 *
          182: 016000*                                  CALLING ITCP9178 AND ITCP9180.*ITCP9174
          511: 049400*   STATEMENT.  THE UPF CALCULATOR MODULE (ITCP9242) WILL BE     *00489
          514: 049700*   PROGRAM ITCP9164 WILL BE CALLED TO DO EXTENDED BALANCING AND *00492
          561: 791742*   PARAMETER LIST BEING PASSED TO ITCP9164.                     *00539
          891:       *         UNIQUE DF MSG CDS FROOM ITCP9180 FOR DXR64 PROCESS.    *
          904:       *         TO ITCP9178 & ITCP9180                                 *
          925:       *         ERRORS BETWEEN 9178/9180 IN ITCP9180                   *
          943:       *         TO CHARGES MOVE 'ALL' TO RULES BEFORE CALL TO ITCP9164.*
          975: BLD4  *       DRL2F AND PASS TO ITCP9180.  ALIGN COPY STATEMENTS       *
         1032: R21008*        REF_DATA 'PAT RELATION' VALUES AND PASS TO ITCP9180.   *
         1096: 081100     05  WS-ITCP9164                PIC X(08) VALUE 'ITCP9164'.
         1098: 081400     05  WS-DISP-EDIT-DATA-FIELDS   PIC X(08) VALUE 'ITCP9180'.
         1366:       *    ARGUMENT TO ITCP9180
         1459: 048000*     HOLD AREA FOR VOID PASSING AREA FOR THE EDIT PGM-ITCP9180   ITCP9174
         1461:       *    ARGUMENT TO ITCP9180
         1761: IP3511*    ARGUMENT TO ITCP9180 - DXR58
         1925:       *    ARGUMENT TO ITCP9180
         2032:       *    ARGUMENT TO ITCP9180, ITCP9178, ITCP9164
         2050:       *    ARGUMENT TO ITCP9180, ITDS01S1
         2103:       *    ARGUMENT TO ITCP9180
         2110:       *    ARGUMENT TO ITCP9180
         2160:       *    ARGUMENT TO ITCP9178, ITCP9180, ITCP9182
         2165:       *    ARGUMENT TO ITCP9178, ITCP9180, ITCP9182, ITCP9164
         2172:       *    ARGUMENT TO ITCP9180, ITCP9182
         2193:       *    ARGUMENT TO ITCP9178, ITCP9180, ITCP9164
         2199: R21008*    ARGUMENT TO ITCP9180
         2228:       *    ARGUMENT TO ITCP9164
         2244:       *    ARGUMENT TO ITCP9180, ITCP9164
         2259:       *    ARGUMENT TO ITCP9180
         2266:       *    ARGUMENT TO ITCP9178, ITCP9180, ITCP9182, ITCP9208, ITCP9164
         2274:       *    ARGUMENT TO ITCP9178, ITCP9180, ITCP9182, ITCP9208, ITCP9164,
         2355:       *    ARGUMENT TO ITCP9180, ITCQRQU0, ITCP9107
         9087: 173300**********ITCP9180 (DATA FIELDS EDIT)************************     17330000
         9130:       *            ITCP9180
         9638: 777600*****ITCP9164 (EXTENDED BALANCING AND UPF CALCULATIONS)******     07750
         9674: 802900        MOVE WS-ITCP9164             TO WS-CALL-PROGRAM
         9679: 779210            CALL 'ITCP9164'      USING                            07766
         9681:       *            ITCP9164
0    ELEMENT   ITCP9178
          139: 010490*                                  FROM PROGRAM ITCP9180 AND     *ITCP9178
          301:       *         ERRORS BETWEEN 9178/9180 IN ITCP9180                   *
          308:       *         WILL ALL BE ISSUED OUT OF ITCP9180 AFTER THIS UPDATE   *
0    ELEMENT   ITCP9180
            2: 00002  PROGRAM-ID.    ITCP9180.                                         ITCP9180
            9: 000090*   MODULE      : ITCP9180                                       *
          423: 00062      '****** ITCP9180 WORKING-STORAGE STARTS HERE ******'.        ITCP9180
          428: R20003     05  WS-MODULE-ID               PIC X(08) VALUE 'ITCP9180'.
1        1707: 00121      VALUE '** ITCP9180 WORKING-STORAGE ENDS HERE **'.            ITCP9180
         9912: IP4162*         DISPLAY 'ITCP9180 ' FM21A-SCCF-SER-NUM ' MA / MEDICAID'
         8014:                     DISPLAY ' ITCP9180: BAD RETURN CODE FROM ITDB22S1.'
         3772: IP3745*    DISPLAY 'ITCP9180 ALL ERRORS CAPTURED ' FM21A-SCCF-SER-NUM.
         4196: IP3745*    DISPLAY 'ITCP9180 ALL WARNINGS CAPTURED ' FM21A-SCCF-SER-NUM.
0    ELEMENT   ITCP9526
            3: 000300 PROGRAM-ID.      ITCP9526.                                       00030000
           14: 001400*   MODULE      : ITCP9526                                       *00140000
          137:            'ITCP9526-W O R K I N G  S T O R A G E STARTS HERE *******'.
          140: R20503     05  WS-MODULE-ID             PIC X(08) VALUE 'ITCP9526'.     01270000
          369: 012900             'INVALID FUNCTION PASSED FROM ITCP9102         '.    ITCP9526
          386: 042500     '      ITCP9526 WORKING STORAGE ENDS HERE      '.            ITCP9526
          955: 193300*R12.0 E_19137 DSL BEGIN MOVE CHECK TO ITCP9102                   00193300
         5300: 597700        DISPLAY '*** ITCP9526 PROCESSING TERMINATED ***'
0    ELEMENT   ITCP9528
            3: 000300 PROGRAM-ID.      ITCP9528.                                       00030000
           14: 001400*   MODULE      : ITCP9528                                       *00140000
           72: 109303*         CONSOLIDATE LOGIC FROM ITCP9556                        *00180
          144:            'ITCP9528-W O R K I N G  S T O R A G E STARTS HERE *******'.
          147:            05  WS-MODULE-ID             PIC X(08) VALUE 'ITCP9528'.     01150000
          336: 042200             'INVALID FUNCTION PASSED FROM ITCP9102         '.    ITCP9528
          381: 044200     '      ITCP9528 WORKING STORAGE ENDS HERE      '.            ITCP9528
         4933: 581700        DISPLAY '*** ITCP9528 PROCESSING TERMINATED ***'
0    ELEMENT   ITCP9556
            3:        PROGRAM-ID.    ITCP9556.
           14: R20504*   MODULE      : ITCP9556                                       *00014000
          110: 012670*         PERTAINING TO IS007 - THEY ARE DONE IN ITCP9528        *00180
          283: 012940     '**** ITCP9556 WORKING-STORAGE STARTS HERE ****'.            00216000
          287: R20504     05  WS-MODULE-ID               PIC X(08) VALUE 'ITCP9556'.   00242300
          302: 007000 01  WS-MODULE-ID                     PIC X(8)  VALUE 'ITCP9556'. ITCP9556
          926: 029300         'INVALID FUNCTION PASSED FROM ITCP9102         '.        ITCP9556
          965: 030800     '**** ITCP9556 WORKING-STORAGE ENDS HERE ****'.              ITCP9556
         1172: 021770        MOVE 'ITCP9556: 0080-CALL-ITCP9158-PGM' TO WS-PARAGRAPH   00186400
         5813: 065020        MOVE 'ITCP9556- 6580-CALL-ITCP9158-FOR-MSG ' TO           00186400
         1221: 888200        DISPLAY '*** ITCP9556 PROCESSING TERMINATED ***'
0    ELEMENT   ITCP9558
            2: 000200 PROGRAM-ID.      ITCP9558.                                       00020000
           12: 001300*   MODULE      : ITCP9558                                       *00120000
          211: 006800     '**** ITCP9558 WORKING-STORAGE STARTS HERE ****'.            ITCP9558
          215:            05  WS-MODULE-ID               PIC X(08) VALUE 'ITCP9558'.   01910000
          786: 022300         'INVALID FUNCTION PASSED FROM ITCP9102         '.        ITCP9558
          853: 023600     '**** ITCP9558 WORKING-STORAGE ENDS HERE ****'.              ITCP9558
         1024: 192000        MOVE 'ITCP9558: 0080-CALL-ITCP9158-PGM' TO WS-PARAGRAPH   00186400
         1032: 192400        DISPLAY 'ITCP9558 - BDC PROGRAM TABLE IS NOT POPULATED'   00187700
         2168:               DISPLAY 'ITCP9558/6108 BYPASS BDC -INVALID DATE- SCCF-ID:'18905103
         2201: 298500        MOVE 'ITCP9558- 6108-BDC-PROCESS ' TO                     00186400
         2458: 303700        MOVE 'ITCP9558- 6110-BDC-PROCESS ' TO WS-PARAGRAPH        22120000
         2636:               MOVE 'ITCP9558/6122-BDC- ' TO WS-PARAGRAPH                23580000
         9544: 678200        DISPLAY '*** ITCP9558 PROCESSING TERMINATED ***'
0    ELEMENT   ITCP9614
           44: 002500*                            RECORD TO ITCP9616.                 *00277100
           46: 002500*                            CR00-0046: CALL ITCP9616 AT END OF  *00045
           83:       *R15.5   05/14/2015  02.6 E_97189    RCM: WHERE ITCP9616 IS  *
          259: 024900     05  WS-MODULE-ITCP9616       PIC X(08) VALUE 'ITCP9616'.     01740002
          657: 166461        CALL WS-MODULE-ITCP9616 USING                             ITCP9614
1         868: 166461     CALL WS-MODULE-ITCP9616 USING                                00761
0    ELEMENT   ITCP9616
            2: 000200 PROGRAM-ID.    ITCP9616.                                         ITCP9616
           11: 001200*   MODULE:       ITCP9616                                       *ITCP9616
          737: 003800     'ITCP9616-W O R K I N G  S T O R A G E STARTS HERE *******'. ITCP9616
          742:            05  WS-MODULE-ID               PIC X(08) VALUE 'ITCP9616'.
          754:                'ITCP9616-PDF-PROV DATA EDIT                       '.
         2420:       *          DISPLAY 'DB2 ERROR ENCOUNTERD IN ITCP9616'
         2441:            MOVE 'ITCP9616'     TO CSAPI-CALLING-PGM-ID.
         2458:               DISPLAY 'DB2 ERROR ENCOUNTERD IN ITCP9616'
         2478:            MOVE 'ITCP9616'      TO CSAPI-CALLING-PGM-ID.
         2494:               DISPLAY 'DB2 ERROR ENCOUNTERD IN ITCP9616'
         2525:            MOVE 'ITCP9616'             TO CSAPI-CALLING-PGM-ID.
         2543:               DISPLAY 'DB2 ERROR ENCOUNTERD IN ITCP9616'
         2555:            MOVE 'ITCP9616'             TO CSAPI-CALLING-PGM-ID.
         2570:               DISPLAY 'DB2 ERROR ENCOUNTERD IN ITCP9616'
         2581:            MOVE 'ITCP9616'             TO CSAPI-CALLING-PGM-ID.
         2600:               DISPLAY 'DB2 ERROR ENCOUNTERD IN ITCP9616'
         2637:            MOVE 'ITCP9616'             TO CSAPI-CALLING-PGM-ID.
         2656:               DISPLAY 'DB2 ERROR ENCOUNTERD IN ITCP9616'
         2669:            MOVE 'ITCP9616'             TO CSAPI-CALLING-PGM-ID.
         2697:               DISPLAY 'DB2 ERROR ENCOUNTERD IN ITCP9616'
         2728:            MOVE 'ITCP9616'             TO CSAPI-CALLING-PGM-ID.
         2746:               DISPLAY 'DB2 ERROR ENCOUNTERD IN ITCP9616'
         2768:            MOVE 'ITCP9616'             TO CSAPI-CALLING-PGM-ID.
         2785:               DISPLAY 'DB2 ERROR ENCOUNTERD IN ITCP9616'
0    ELEMENT   ITCP9896
          662: 002800*                 INST LEVEL THREE EDIT MODULE, ITCP9556.        *ITCP9896
0    ELEMENT   ITCP9898
          558: 023728*                 PROF LEVEL THREE EDIT MODULE, ITCP9558.        *00433
0    ELEMENT   ITDBR0U1
            2:        PROGRAM-ID.                      ITDBR0U1.                            ...
           11:       *   MODULE:       ITDBR0U1                                       *00011
           55:            VALUE '**  ITDBR0U1 WORKING STORAGE STARTS  ***'.            00064
           58:            05  WS-PROGRAM-ID               PIC X(08) VALUE 'ITDBR0U1'.  00062
           63:                    'ITDBR0U1 - RECON_DUP UPDATE I/O'.                   00062
0    ELEMENT   ITDCA1S1
          509:       * CALLED FROM ITCP9102                                            03743600
0    ELEMENT   ITDP01S1
          426: 027700* CALLED FROM ITCP9102 TO GET ALL THE ROWS
          519: 027700* CALLED FROM ITCP9102 TO GET ALL THE ROWS
0    ELEMENT   ITDRTE00
            2:        PROGRAM-ID.  ITDRTE00.
            9:       * MODULE       : ITDRTE00                                        *
           74:            05  WS-MODULE-ID                 PIC X(8)  VALUE 'ITDRTE00'.
           79:                   'ITDRTE00-UPF RULE READ'.
           94:            03  WS-PROGRAM-ID               PIC X(08)  VALUE 'ITDRTE00'.
          156:             'WORKING STORAGE ENDS HERE FOR PROGRAM - ITDRTE00 '.
0    ELEMENT   ITPCA002
            2:        PROGRAM-ID.             ITPCA002.                                00020000
           11:       *   MODULE:       ITPCA002                                       *00110000
           42:            'ITPCA002-WORKING STORAGE STARTS HERE'.                      00360000
1          45:            05  WS-PROGRAM-ID               PIC X(08) VALUE 'ITPCA002'.  00390000
          140:            'ITPCA002-W O R K I N G  S T O R A G E ENDS **************'. 01310000
0    ELEMENT   ITPCA003
            2:        PROGRAM-ID.             ITPCA003.                                00020000
           11:       *   MODULE:       ITPCA003                                       *00110000
           57:            'ITPCA003-WORKING STORAGE STARTS HERE'.                      00370000
           60:            05  WS-PROGRAM-ID               PIC X(08) VALUE 'ITPCA003'.  00400000
          210:            'ITPCA003-W O R K I N G  S T O R A G E ENDS **************'. 01520000
0    ELEMENT   ITPCA004
           24:       *   THIS PROGRAM RELIES ON ITCA9178 AND IUCP9124 RETAINING       *00231000
           38: R20014*         -  'DELETE PREVIOUS' PROCESS FROM IUCP9124 IS INTENDED *00277002
0    ELEMENT   ITPEXBS1
          158: 734052              DISPLAY '* CALL TO DSNTIAR FAILED IN ITCP9102 '
0    ELEMENT   ITPEXCS1
          223: 734052              DISPLAY '* CALL TO DSNTIAR FAILED IN ITCP9102 '
0    ELEMENT   ITPP01U1
          302:               SIAPC-MODULE-NAME (2) = 'ITCP9078')
0    ELEMENT   ITRT0001
          131:            05  WS-ITCP9102                  PIC X(8)  VALUE 'ITCP9102'.
         2333:            MOVE 'ITCP9102'        TO
         2346:       *** R14.5 E_34072  EXL ADDED ITDCA1X1 TO 'CALL ITCP9102 USING'    23330000
         2347:            CALL WS-ITCP9102 USING WS-ITSIAPC-AREA
0    ELEMENT   ITRT0002
           82:       *         CHECK IF COMING FROM HPA - IT IS DONE IN IUCP9180      *00003400
0    ELEMENT   WIT1500P
          122:       *                       BY BCBSA IN PROGRAM ITCP9616.            *00760018
          127:       *                       BY BCBSA IN PROGRAM ITCP9616.            *00760018
          137:       *                       BY BCBSA IN PROGRAM ITCP9616.            *00760018
          427:       **  THIS CODE IS COPIED FROM BCA PROGRAM ITCP9616.  IF BCA
          428:       **  CHANGES THE VALUES IN THE ITCP9616 PROGRAM, THIS CODE
1ENVIRONMENT  BCBS01    SYSTEM  ITS       SUBSYSTEM  ITSCONV
 TYPE  COBOL     STAGE NUMBER 2 .
0    ELEMENT   ITCP9242
            2:        PROGRAM-ID.                     ITCP9242.
           11:       *   MODULE:       ITCP9242                                       *
           26:       *                                ITCP9260 TO ITCP9286.           *00002613
           43:       *                                DATE IS PASSED TO ITCP9242      *
           46:       *                                ITCP9248 FOR USE IN PRORATION   *
           99:       *         ITDRTE00 WHEN RULES NOT IN ITCIARD WS TABLE.  THIS WILL*
          147:            05  WS-MODULE-ID               PIC X(8)  VALUE 'ITCP9242'.   00030002
          154:                    'ITCP9242-UPF STD&COB RECALC '.                      00100002
          177:        01  WS-ITDRTE00-NAME                 PIC X(08) VALUE 'ITDRTE00'.
          294:            05  WS-BYPASS-ITDRTE00-SW        PIC X(01) VALUE 'N'.        00013700
          295:                88  WS-BYPASS-ITDRTE00-YES             VALUE 'Y'.        00013800
          296:                88  WS-BYPASS-ITDRTE00-NO              VALUE 'N'.        00013900
          560:               SET WS-BYPASS-ITDRTE00-NO  TO TRUE
          562:               IF  WS-BYPASS-ITDRTE00-NO
          783:            PERFORM J300-SETUP-FOR-CALL-ITCP9246.
          797:            PERFORM J400-SETUP-FOR-CALL-ITCP9248.
          825:            PERFORM J700-SETUP-FOR-CALL-ITCP9258.                        00080613
          878:                SET WS-BYPASS-ITDRTE00-YES TO TRUE
          893:                        SET WS-BYPASS-ITDRTE00-YES TO TRUE
          918:                            SET WS-BYPASS-ITDRTE00-YES TO TRUE
          949:            PERFORM J110-SETUP-FOR-CALL-ITDRTE00.
         1157:            PERFORM J650-SETUP-FOR-CALL-ITCP9732.                        00112900
         1189:        J110-SETUP-FOR-CALL-ITDRTE00.
         1196:            MOVE WS-ITDRTE00-NAME       TO WS-REQUESTED-MODULE.
         1202:            PERFORM T110-CALL-ITDRTE00.
         1241:        J300-SETUP-FOR-CALL-ITCP9246.
         1246:            MOVE CWSPN-ITCP9246-NAME TO WS-REQUESTED-MODULE.             00125313
         1250:            PERFORM T300-CALL-ITCP9246.                                  00126013
         1257:        J400-SETUP-FOR-CALL-ITCP9248.
         1262:            MOVE CWSPN-ITCP9248-NAME TO WS-REQUESTED-MODULE.             00127213
         1266:            PERFORM T400-CALL-ITCP9248.                                  00127913
         1289:        J650-SETUP-FOR-CALL-ITCP9732.                                    00132300
         1298:            MOVE CWSPN-ITCP9732-NAME TO WS-REQUESTED-MODULE.             00132800
         1302:            PERFORM T650-CALL-ITCP9732.                                  00133400
         1311:        J700-SETUP-FOR-CALL-ITCP9258.
         1316:            MOVE CWSPN-ITCP9258-NAME TO WS-REQUESTED-MODULE.             00136713
         1320:            PERFORM T700-CALL-ITCP9258.                                  00137413
         1415:        T110-CALL-ITDRTE00.
         1446:        T300-CALL-ITCP9246.
         1451:            CALL 'ITCP9246'          USING ITSIAPC
         1463:        T400-CALL-ITCP9248.
         1468:            CALL 'ITCP9248'          USING ITSIAPC
         1496:        T650-CALL-ITCP9732.                                              00162400
         1501:            CALL 'ITCP9732'          USING ITSIAPC                       00162700
         1515:        T700-CALL-ITCP9258.
         1520:            CALL 'ITCP9258'          USING ITSIAPC
         1561:            IF WS-REQUESTED-MODULE = CWSPN-ITCP9242-NAME                 00168517
         1563:                MOVE CWSEC-SEVERE-SYS-ERR-ITCP9242 TO WS-RSN-CD.         00168617
         1565:            IF WS-REQUESTED-MODULE = CWSPN-ITCP9246-NAME                 00168817
         1567:                MOVE CWSEC-SEVERE-SYS-ERR-ITCP9246 TO WS-RSN-CD.         00168917
         1569:            IF WS-REQUESTED-MODULE = CWSPN-ITCP9248-NAME                 00169117
         1571:                MOVE CWSEC-SEVERE-SYS-ERR-ITCP9248 TO WS-RSN-CD.         00169217
         1577:            IF WS-REQUESTED-MODULE = CWSPN-ITCP9258-NAME                 00169717
         1579:                MOVE CWSEC-SEVERE-SYS-ERR-ITCP9258 TO WS-RSN-CD.         00169817
         1581:            IF WS-REQUESTED-MODULE = CWSPN-ITCP9286-NAME                 00170017
         1583:                MOVE CWSEC-SEVERE-SYS-ERR-ITCP9286 TO WS-RSN-CD.         00170117
1        1594:            IF WS-REQUESTED-MODULE = CWSPN-ITDRTE00-NAME
         1596:                MOVE CWSEC-SEVERE-SYS-ERR-ITDRTE00 TO WS-RSN-CD.
         1604:            IF WS-REQUESTED-MODULE = CWSPN-ITCP9732-NAME                 00173000
         1606:                MOVE CWSEC-SEVERE-SYS-ERR-ITCP9732 TO WS-RSN-CD.         00173100
         1715:            IF  SIAPC-MODULE-NAME (3) = CWSPN-ITCP9242-NAME              01924
         1724:            IF  SIAPC-MODULE-NAME (2) = CWSPN-ITCP9700-NAME              01933
         1725:                MOVE CWSPN-ITCP9242-NAME TO                              00181017
         1735:                MOVE CWSPN-ITCP9242-NAME TO                              01944
         2013:            MOVE CWSPN-ITCP9242-NAME      TO CSAPI-CALLING-PGM-ID.
0    ELEMENT   ITCP9246
            2:        PROGRAM-ID.                     ITCP9246.
           11:       *   MODULE:       ITCP9246                                       *
          137:            05  WS-MODULE-ID               PIC X(8)  VALUE 'ITCP9246'.   00030002
          144:                    'ITCP9246-EDIT & VALIDATION'.                        00100002
0    ELEMENT   ITCP9248
            2:        PROGRAM-ID.                     ITCP9248.
           11:       *   MODULE:       ITCP9248                                       *
           95:            05  WS-MODULE-ID               PIC X(8)  VALUE 'ITCP9248'.   00030002
          102:                    'ITCP9248-UPF PRE-CALCULATION SETUP'.                00100002
0    ELEMENT   ITCP9250
          446:       *12.0   E_41233  KJO PASS ITCIACP FROM ITCP9242
0    ELEMENT   ITCP9258
            2: 000200 PROGRAM-ID.                     ITCP9258.                        00020024
           11: 001100*   MODULE:       ITCP9258                                      * 00110024
           29: 002900*                                 ITCP9286 TO ITCP9286.         * 00290024
           39: 003900*                                 TO ITCP9286                   * 00390024
          152:            05  WS-MODULE-ID               PIC X(8)  VALUE 'ITCP9258'.   00030002
          159:                    'ITCP9258-UPF FACTOR PRE-CALC '.                     00100002
         2661: 159700     MOVE       CWSPN-ITCP9286-NAME             TO                15970024
         2667: 160300     MOVE       CWSPN-ITCP9286-NAME             TO                16030024
         2670: 160600     PERFORM    T100-CALL-MODULE-ITCP9286.                        16060024
         4854: 301800 T100-CALL-MODULE-ITCP9286.                                       30180024
         4857: 302000      CALL 'ITCP9286'        USING ITSIAPC                        30201099
0    ELEMENT   ITCP9286
            2:        PROGRAM-ID.                     ITCP9286.
           11:       *   MODULE:       ITCP9286                                      *
           33:       *                                 ITCP9260 TO ITCP9286.         *
          111:            05  WS-MODULE-ID               PIC X(8)  VALUE 'ITCP9286'.   00030002
          118:                    'ITCP9286-UPF STD FCTR RED'.                         00100002
          517:       *12.0   E_41233  KJO CWSCI DATA PASSED FROM ITCP9258              00010008
0    ELEMENT   ITCP9356
          273: 028900         PERFORM J300-SETUP-FOR-CALL-ITCP9358.                    ITCP9356
          329: 034500 J300-SETUP-FOR-CALL-ITCP9358.                                    ITCP9356
          333: 034900     MOVE       CWSPN-ITCP9358-NAME             TO                ITCP9356
          345: 036100     MOVE       CWSPN-ITCP9358-NAME             TO                ITCP9356
          348: 036400     PERFORM    T300-CALL-ITCP9358.                               ITCP9356
          411: 042400 T300-CALL-ITCP9358.                                              ITCP9356
          416: 042700     CALL 'ITCP9358'          USING ITSIAPC                       ITCP9356
0    ELEMENT   ITCP9358
            2:        PROGRAM-ID.                     ITCP9358.
           11:       *   MODULE:       ITCP9358                                       *
          114:            05  WS-MODULE-ID               PIC X(8)  VALUE 'ITCP9358'.   00030002
          121:                    'ITCP9358-BLD ITCIACP FROM FDB'.                     00100002
1    ELEMENT   ITCP9700
            2:        PROGRAM-ID.                     ITCP9700.                             ...
           11:       *   MODULE:       ITCP9700                                       *00011
           42: 003120*                                MPP E_34835 - BYP LINK ITCP9732 *
           95:            05  WS-MODULE-ID               PIC X(8)  VALUE 'ITCP9700'.
          102:                    'ITCP9700-UPF STD/COB CONTRLLR'.                     00100002
          729:            PERFORM J100-SETUP-FOR-CALL-ITCP9242.                        00621
          736:            PERFORM J900-SETUP-FOR-CALL-ITCP9702.                        00634
          941:            PERFORM J650-SETUP-FOR-CALL-ITCP9732.
          973:        J100-SETUP-FOR-CALL-ITCP9242.                                    00850
          978:            MOVE CWSPN-ITCP9242-NAME    TO WS-REQUESTED-MODULE.          00855
          986:            PERFORM T100-CALL-ITCP9242.                                  00862
         1020:        J650-SETUP-FOR-CALL-ITCP9732.
         1029: 100300     MOVE CWSPN-ITCP9732-NAME TO WS-REQUESTED-MODULE.             00958
         1034: 101700         PERFORM T650-CALL-ITCP9732                               00968
         1038: 102100         PERFORM T655-CALL-ITCP9732.                              00972
         1083:        J900-SETUP-FOR-CALL-ITCP9702.                                    00961
         1096:            MOVE CWSPN-ITCP9702-NAME    TO WS-REQUESTED-MODULE.          00967
         1100:            PERFORM T900-CALL-ITCP9702.                                  00974
         1190:        T100-CALL-ITCP9242.                                              01064
         1195:            CALL 'ITCP9242'          USING  ITSIAPC
         1227:        T650-CALL-ITCP9732.                                              00162400
         1242:        T655-CALL-ITCP9732.                                              00162400
         1280:        T900-CALL-ITCP9702.                                              01163
         1285:            CALL 'ITCP9702'          USING  ITSIAPC
         1323:            IF WS-REQUESTED-MODULE = CWSPN-ITCP9242-NAME                 01231
         1325:                MOVE CWSEC-SEVERE-SYS-ERR-ITCP9242 TO WS-RSN-CD.         01232
         1327:            IF WS-REQUESTED-MODULE = CWSPN-ITCP9246-NAME                 01234
         1329:                MOVE CWSEC-SEVERE-SYS-ERR-ITCP9246 TO WS-RSN-CD.         01235
         1331:            IF WS-REQUESTED-MODULE = CWSPN-ITCP9248-NAME                 01237
         1333:                MOVE CWSEC-SEVERE-SYS-ERR-ITCP9248 TO WS-RSN-CD.         01238
         1344: 146400     IF WS-REQUESTED-MODULE = CWSPN-ITDRTE00-NAME
         1346: 146500         MOVE CWSEC-SEVERE-SYS-ERR-ITDRTE00 TO WS-RSN-CD.
         1353:            IF WS-REQUESTED-MODULE = CWSPN-ITCP9702-NAME                 01267
         1355:                MOVE CWSEC-SEVERE-SYS-ERR-ITCP9702 TO WS-RSN-CD.         01268
         1357:            IF WS-REQUESTED-MODULE = CWSPN-ITCP9704-NAME                 01270
         1359:                MOVE CWSEC-SEVERE-SYS-ERR-ITCP9704 TO WS-RSN-CD.         01271
         1365:            IF WS-REQUESTED-MODULE = CWSPN-ITCP9708-NAME                 01276
         1367:                MOVE CWSEC-SEVERE-SYS-ERR-ITCP9708 TO WS-RSN-CD.         01277
         1385:            IF WS-REQUESTED-MODULE = CWSPN-ITCP9718-NAME                 01291
         1387:                MOVE CWSEC-SEVERE-SYS-ERR-ITCP9718 TO WS-RSN-CD.         01292
         1405: 150300     IF WS-REQUESTED-MODULE = CWSPN-ITCP9728-NAME                 01423
         1407: 150400         MOVE CWSEC-SEVERE-SYS-ERR-ITCP9728 TO WS-RSN-CD.         01424
         1409: 150300     IF WS-REQUESTED-MODULE = CWSPN-ITCP9730-NAME                 01423
         1411: 150400         MOVE CWSEC-SEVERE-SYS-ERR-ITCP9730 TO WS-RSN-CD.         01424
         1413: 150300     IF WS-REQUESTED-MODULE = CWSPN-ITCP9732-NAME                 01423
         1415: 150400         MOVE CWSEC-SEVERE-SYS-ERR-ITCP9732 TO WS-RSN-CD.         01424
         1515: 161100     IF  SIAPC-MODULE-NAME (3) = CWSPN-ITCP9242-NAME              01611
         1524: 162000     IF  SIAPC-MODULE-NAME (2) = CWSPN-ITCP9700-NAME              01620
         1533:                MOVE CWSPN-ITCP9700-NAME TO                              01386
0    ELEMENT   ITCP9702
            2:        PROGRAM-ID.                     ITCP9702.                             ...
           11:       *   MODULE:       ITCP9702                                       *00011
           49:       *         ITDRTE00 WHEN RULES NOT IN ITCIARD WS TABLE.  THIS WILL*
           93:            05  WS-MODULE-ID               PIC X(8)  VALUE 'ITCP9702'.
          100:                    'ITCP9702-UPF COB MAIN MODULE '.                     00100002
          118:        01  WS-ITDRTE00-NAME                 PIC X(08) VALUE 'ITDRTE00'.
          226:            05  WS-BYPASS-ITDRTE00-SW        PIC X(01) VALUE 'N'.        00013700
          227:                88  WS-BYPASS-ITDRTE00-YES             VALUE 'Y'.        00013800
1         228:                88  WS-BYPASS-ITDRTE00-NO              VALUE 'N'.        00013900
          524:               SET WS-BYPASS-ITDRTE00-NO  TO TRUE
          526:               IF  WS-BYPASS-ITDRTE00-NO
          590:       *********CALL ITCP9704                                            00629
          643:            PERFORM J400-SETUP-FOR-CALL-ITCP9704.                        00790
          687:            PERFORM J110-SETUP-FOR-CALL-ITDRTE00.
          726:       *******CHANGE TO CALL ITCP9732 --- NOT ITCP2172*******************00891
          727:            PERFORM J650-SETUP-FOR-CALL-ITCP9732.                        00882
          728:       *******END CHANGE TO CALL ITCP9732 FOR RELEASE 10-1***************00891
          742:                SET WS-BYPASS-ITDRTE00-YES TO TRUE
          757:                        SET WS-BYPASS-ITDRTE00-YES TO TRUE
          782:                            SET WS-BYPASS-ITDRTE00-YES TO TRUE
          798:            PERFORM J110-SETUP-FOR-CALL-ITDRTE00.
          831:       *IF SEVERE ERROR RETURNED FROM ITDRTE00 - RESET TO UNSUCCESSFUL
         1048:            PERFORM J650-SETUP-FOR-CALL-ITCP9732.                        01118
         1076:        J110-SETUP-FOR-CALL-ITDRTE00.
         1083:            MOVE WS-ITDRTE00-NAME       TO WS-REQUESTED-MODULE.
         1089:            PERFORM T110-CALL-ITDRTE00.
         1120:        J400-SETUP-FOR-CALL-ITCP9704.                                    01269
         1125:            MOVE CWSPN-ITCP9704-NAME TO WS-REQUESTED-MODULE.             01274
         1130:            PERFORM T400-CALL-ITCP9704.                                  01281
         1152:        J650-SETUP-FOR-CALL-ITCP9732.
         1161: 100300     MOVE CWSPN-ITCP9732-NAME TO WS-REQUESTED-MODULE.             00958
         1168: 101700         PERFORM T650-CALL-ITCP9732                               00968
         1172: 102100         PERFORM T655-CALL-ITCP9732.                              00972
         1289:        T110-CALL-ITDRTE00.
         1316:        T400-CALL-ITCP9704.                                              01623
         1321:            CALL 'ITCP9704'          USING ITSIAPC
         1361:        T650-CALL-ITCP9732.                                              00162400
         1366:            CALL 'ITCP9732'          USING ITSIAPC                       00162700
         1378:        T655-CALL-ITCP9732.                                              00162400
         1383:            CALL 'ITCP9732'          USING ITSIAPC                       00162700
         1447:            IF WS-REQUESTED-MODULE = CWSPN-ITCP9704-NAME                 01806
         1449:                MOVE CWSEC-SEVERE-SYS-ERR-ITCP9704 TO WS-RSN-CD.         01807
         1467:            IF WS-REQUESTED-MODULE = CWSPN-ITCP9718-NAME                 02019
         1469:                MOVE CWSEC-SEVERE-SYS-ERR-ITCP9718 TO WS-RSN-CD.         02020
         1496:            IF WS-REQUESTED-MODULE = CWSPN-ITDRTE00-NAME
         1498:                MOVE CWSEC-SEVERE-SYS-ERR-ITDRTE00 TO WS-RSN-CD.
         1505:            IF WS-REQUESTED-MODULE = CWSPN-ITCP9728-NAME                 01773
         1507:                MOVE CWSEC-SEVERE-SYS-ERR-ITCP9728 TO WS-RSN-CD.         01774
         1509:            IF WS-REQUESTED-MODULE = CWSPN-ITCP9730-NAME                 01773
         1511:                MOVE CWSEC-SEVERE-SYS-ERR-ITCP9730 TO WS-RSN-CD.         01774
         1513:            IF WS-REQUESTED-MODULE = CWSPN-ITCP9732-NAME                 01773
         1515:                MOVE CWSEC-SEVERE-SYS-ERR-ITCP9732 TO WS-RSN-CD.         01774
         1613:                CWSPN-ITCP9702-NAME                                      01918
         1616:                MOVE CWSPN-ITCP9702-NAME TO                              01922
0    ELEMENT   ITCP9704
            2:        PROGRAM-ID.                     ITCP9704.                             ...
           11:       *   MODULE:       ITCP9704                                       *00011
           54:       *       OF ITCIACO LINES PRIOR TO CALLING ITCP9248.              *00060001
           90:            05  WS-MODULE-ID               PIC X(8)  VALUE 'ITCP9704'.
           97:                    'ITCP9704-COB CALCULATOR EDIT '.
          603:       **** THE FORMATS FILE MAY BE OPENED BEFORE UPF (ITCP9242) IS      00706
          604:       **** INVOKED. ITCP9242 WILL LEAVE THE FORMATS FILE IN THE SAME    00707
          725:            PERFORM J300-SETUP-FOR-CALL-ITCP9246.                        00779
          756:            PERFORM J400-SETUP-FOR-CALL-ITCP9248.                        00813
          773:            PERFORM J700-SETUP-FOR-CALL-ITCP9708.                        00830
         1072:        J300-SETUP-FOR-CALL-ITCP9246.                                    01161
         1077:            MOVE CWSPN-ITCP9246-NAME TO WS-REQUESTED-MODULE.             01166
1        1082:            PERFORM T300-CALL-ITCP9246.                                  01173
         1106:        J400-SETUP-FOR-CALL-ITCP9248.                                    01205
         1133:            MOVE CWSPN-ITCP9248-NAME TO WS-REQUESTED-MODULE.             01217
         1138:            PERFORM T400-CALL-ITCP9248.                                  01224
         1145:        J700-SETUP-FOR-CALL-ITCP9708.                                    01234
         1150:            MOVE CWSPN-ITCP9708-NAME TO WS-REQUESTED-MODULE.             01239
         1155:            PERFORM T700-CALL-ITCP9708.                                  01246
         1480:        T300-CALL-ITCP9246.                                              01694
         1485:            CALL 'ITCP9246'          USING ITSIAPC
         1512:        T400-CALL-ITCP9248.                                              01718
         1517:            CALL 'ITCP9248'          USING ITSIAPC
         1528:        T700-CALL-ITCP9708.                                              01731
         1533:            CALL 'ITCP9708'          USING ITSIAPC
         1560:            IF WS-REQUESTED-MODULE = CWSPN-ITCP9246-NAME                 01760
         1561:                MOVE CWSEC-SEVERE-SYS-ERR-ITCP9246 TO WS-RSN-CD.         01761
         1563:            IF WS-REQUESTED-MODULE = CWSPN-ITCP9248-NAME                 01763
         1564:                MOVE CWSEC-SEVERE-SYS-ERR-ITCP9248 TO WS-RSN-CD.         01764
         1578:            IF WS-REQUESTED-MODULE = CWSPN-ITCP9708-NAME                 01778
         1579:                MOVE CWSEC-SEVERE-SYS-ERR-ITCP9708 TO WS-RSN-CD.         01779
         1657:                CWSPN-ITCP9704-NAME                                      01857
         1661:                MOVE CWSPN-ITCP9704-NAME TO                              01861
0    ELEMENT   ITCP9708
            2:        PROGRAM-ID.                     ITCP9708.                             ...
           11:       *   MODULE:       ITCP9708                                       *00011
           71:            05  WS-MODULE-ID               PIC X(8)  VALUE 'ITCP9708'.   00030002
           78:                    'ITCP9708-COB OUTPT EDIT/BUILD'.                     00100002
0    ELEMENT   ITCP9710
          392:       *    PERFORMED IN ITCP9258
          524:            MOVE CWSPN-ITCP9286-NAME  TO
          530:            MOVE CWSPN-ITCP9286-NAME  TO
          533:            PERFORM T100-CALL-MODULE-ITCP9286.
          544:        T100-CALL-MODULE-ITCP9286.                                       00288
0    ELEMENT   ITCP9712
           23:       *                 2.  ITCP9718 RECALCULATES COST SHARING AND/OR  *00020
           25:       *                     BY INVOKING ITCP9242 AND REREADING THE     *00020
           52:       *         ADD ITCIAAI.  PASS ITCIAAI TO ITCP9718.                *00033
          320:       *********CALL ITCP9718                                            00469
          359:            PERFORM J200-SETUP-FOR-CALL-ITCP9718.                        00508
          534:        J200-SETUP-FOR-CALL-ITCP9718.                                    00718
          539:            MOVE CWSPN-ITCP9718-NAME TO WS-REQUESTED-MODULE.             00723
          546:            PERFORM T200-CALL-ITCP9718.                                  00730
          647:        T200-CALL-ITCP9718.                                              00834
          651:       *******WHICH CALLS ITCP9242                                       00838
          654:            CALL 'ITCP9718'          USING ITSIAPC
          691:            IF WS-REQUESTED-MODULE = CWSPN-ITCP9718-NAME                 00897
          693:                MOVE CWSEC-SEVERE-SYS-ERR-ITCP9718 TO WS-RSN-CD.         00898
0    ELEMENT   ITCP9718
            2:        PROGRAM-ID.                     ITCP9718.                             ...
           11:       *   MODULE:       ITCP9718                                       *00011
           40:       *         ADD ITCIAAI AND PASS INTO ITCP9242.                    *00033
           66:            05  WS-MODULE-ID               PIC X(8)  VALUE 'ITCP9718'.
           73:                    'ITCP9718-COB SCNDRY RECALC DRVR'.
          354:       *********CALL ITCP9242                                            00471
          465:            PERFORM J200-SETUP-FOR-CALL-ITCP9242.                        00503
          674:        J200-SETUP-FOR-CALL-ITCP9242.                                    00744
          679:            MOVE CWSPN-ITCP9242-NAME TO WS-REQUESTED-MODULE.             00749
1         690:            PERFORM T200-CALL-ITCP9242.                                  00756
          866:        T200-CALL-ITCP9242.                                              00989
          870:            CALL 'ITCP9242'          USING ITSIAPC
          906:            IF WS-REQUESTED-MODULE = CWSPN-ITCP9242-NAME                 01060
          907:                MOVE CWSEC-SEVERE-SYS-ERR-ITCP9242 TO WS-RSN-CD.         01061
0    ELEMENT   ITCP9732
            2: 000200 PROGRAM-ID.           ITCP9732.                                  00000200
            7: 000700* MODULE       : ITCP9732                                        *00000700
           66:            05  WS-MODULE-ID               PIC X(8)  VALUE 'ITCP9732'.   00030002
           73:                    'ITCP9732-RECON TABLE PRETRANS'.                     00100002
          192: 005600        VALUE 'WORKING STORAGE ENDS HERE FOR PROGRAM - ITCP9732'. 00009800
0    ELEMENT   IUCP1004
           81:       *                                 PARAMETERS TO IUCP9134         *
          210:       *       ADD IUCIAQD TO CALL TO IUCP9134                          *
         2077:               PERFORM S1083-SET-UP-FOR-IUCP9134
         2709:            PERFORM       S1070-SET-UP-FOR-ITCP9358.
         2804:                PERFORM S1082-SET-UP-FOR-IUCP9134.
         4307:               OR  CWSNM-IUCP9134-NAME
         4311:               OR  CWSNM-ITCP9358-NAME
         4482:                CWSNM-IUCP9134-NAME
         4483:                PERFORM T330-CALL-TO-IUCP9134
         4494:            IF  WS-INVOKED-MODULE EQUAL CWSNM-ITCP9358-NAME
         4495:                PERFORM T265-CALL-TO-ITCP9358
         4893:        S1070-SET-UP-FOR-ITCP9358.
         4901:            MOVE    CWSNM-ITCP9358-NAME                       TO
         4962:        S1082-SET-UP-FOR-IUCP9134.
         4970:            MOVE    CWSNM-IUCP9134-NAME                       TO
         4977:        S1083-SET-UP-FOR-IUCP9134.
         4985:            MOVE    CWSNM-IUCP9134-NAME                       TO
         6076:        T265-CALL-TO-ITCP9358.
         6196:        T330-CALL-TO-IUCP9134.
0    ELEMENT   IUCP9102
           37:       *                                 PARM WHEN INVOKING IUCP9112.   *
           41:       *                                 IUCP9112                       *
          153:       *                                 CALL OF IUCP9108.              *
          155:       *                                 CALL OF IUCP9108.              *
          166:       *                                 FROM CALL OF IUCP9108.         *
          175:       *                                 IUCP9112.                      *
          275:       *                               - RESTRUCTURED TO CALL IUCP9150  *
          277:       *                                 HPA AND TO CALL IUCP9152 FOR   *
          281:       *                                 IUCP9102 TO IUCP9150 AND       *
          282:       *                                 IUCP9152.                      *
          336:       *       INTO IUCP9150 & IUCP9152.                                *
          803:            PERFORM  J160-SETUP-FOR-CALL-IUCP9150.
          815:            PERFORM  J170-SETUP-FOR-CALL-IUCP9152.
          874:            PERFORM  J110-SETUP-FOR-CALL-IUCP9124.
          919:            PERFORM J110-SETUP-FOR-CALL-IUCP9124.
          995:        J110-SETUP-FOR-CALL-IUCP9124.
         1000:            MOVE     CWSNM-IUCP9124-NAME          TO
         1049:        J160-SETUP-FOR-CALL-IUCP9150.
         1054:            MOVE       CWSNM-IUCP9150-NAME        TO
         1057:            MOVE       CWSNM-IUCP9150-NAME        TO
         1063:            MOVE       CWSNM-IUCP9150-NAME        TO
         1066:            PERFORM    T200-CALL-IUCP9150.
         1072:        J170-SETUP-FOR-CALL-IUCP9152.
         1077:            MOVE       CWSNM-IUCP9152-NAME        TO
         1080:            MOVE       CWSNM-IUCP9152-NAME        TO
1        1086:            MOVE       CWSNM-IUCP9152-NAME        TO
         1089:            PERFORM    T300-CALL-IUCP9152.
         1272:        T200-CALL-IUCP9150.
         1276:            CALL 'IUCP9150'          USING ITSIAPC
         1332:        T300-CALL-IUCP9152.
         1337:            CALL 'IUCP9152'          USING ITSIAPC
0    ELEMENT   IUCP9104
            2:        PROGRAM-ID.                     IUCP9104.
           10:       *   MODULE:       IUCP9104                                       *
           34:       *                               - ADDED A CALL TO ITCP9248 TO    *
           94:            05  WS-MODULE-ID               PIC X(8)  VALUE 'IUCP9104'.   00030002
          101:                    'IUCP9104-PAYMENT OVERRIDE MAP'.                     00100002
          366:            '******    IUCP9104 WORKING-STORAGE ENDS HERE      *******'.
          418:            IF (SIAPC-MODULE-NAME(1) = CWSNM-IUCP2002-NAME OR
         1064:       *12.0   E_41233  KJO ALLOW ITCP9248 TO DETERMINE # NPLUS1 LINES
         1134:            MOVE     CWSNM-ITCP9248-NAME          TO
         1141:            MOVE     CWSNM-ITCP9248-NAME          TO
         1144:            PERFORM  TA-CALL-ITCP9248.
         1271:        TA-CALL-ITCP9248.
         1276:            CALL 'ITCP9248'          USING  ITSIAPC
0    ELEMENT   IUCP9108
            2:        PROGRAM-ID.                       IUCP9108.
           10:       *   MODULE:       IUCP9108                                       *
          100:            VALUE 'IUCP9108 VERSION 09.3 RELEASED 05/09/13'.
          167:                'INVALID FUNCTION - IUCP9108'.
0    ELEMENT   IUCP9112
            2:        PROGRAM-ID.                       IUCP9112.
           10:       *   MODULE:       IUCP9112                                       *
           69:       *                                 ITCP9248.                      *
          166:       *         EDITS IN LINE WITH THE DF EDIT PROGRAM ITCP9180.       *
          202:            05  WS-MODULE-ID               PIC X(8)  VALUE 'IUCP9112'.   00030002
          209:                    'IUCP9112-HPA PRIMARY SAVINGS CALC'.                 00100002
         1749:            MOVE     CWSNM-ITCP9248-NAME          TO
         1756:            MOVE     CWSNM-ITCP9248-NAME          TO
         1759:            PERFORM  T100-CALL-ITCP9248.
         2812:        T100-CALL-ITCP9248.
         2817:            CALL 'ITCP9248'          USING  ITSIAPC
0    ELEMENT   IUCP9116
           73:       *                               - UPON RETURN FROM IUCP9122,     *
          108:       *         COPYBOOK TO BE PASSED THROUGH TO IUCP9120.             *00040006
         1228:            PERFORM JA-SET-UP-CALL-IUCP9118
         1232:            PERFORM YA100-CALL-IUCP9118
         1241:            PERFORM JB-SET-UP-CALL-IUCP9120
         1244: TRIGON*    PERFORM YL-CALL-IUCP9120                                     12690000
         1247:            PERFORM YA200-CALL-IUCP9120
         1256:            PERFORM JC-SET-UP-CALL-IUCP9122.
         1258: TRIGON*    PERFORM YK-CALL-IUCP9122.                                    12790000
         1261:            PERFORM YA300-CALL-IUCP9122.
         1383:        JA-SET-UP-CALL-IUCP9118.
         1385:            MOVE CWSNM-IUCP9118-NAME TO WS-REQUESTED-MODULE
         1389:            MOVE CWSNM-IUCP9118-NAME TO
         1394:        JB-SET-UP-CALL-IUCP9120.
         1396:            MOVE CWSNM-IUCP9120-NAME TO WS-REQUESTED-MODULE
         1400:            MOVE CWSNM-IUCP9120-NAME TO
         1405:        JC-SET-UP-CALL-IUCP9122.
         1407:            MOVE CWSNM-IUCP9122-NAME TO WS-REQUESTED-MODULE
1        1411:            MOVE CWSNM-IUCP9122-NAME TO
         1761:        YA100-CALL-IUCP9118.
         1764:            CALL 'IUCP9118'          USING
         1783:        YA200-CALL-IUCP9120.
         1786:            CALL 'IUCP9120'          USING
         1806:        YA300-CALL-IUCP9122.
         1809:            CALL 'IUCP9122'          USING
         2039:        YK-CALL-IUCP9122.                                                19470000
         2061:        YL-CALL-IUCP9120.                                                19690000
0    ELEMENT   IUCP9118
            2:        PROGRAM-ID.                       IUCP9118.
           10:       *   MODULE:       IUCP9118                                       *
          264:            05  WS-MODULE-ID               PIC X(8)  VALUE 'IUCP9118'.
0    ELEMENT   IUCP9120
            2:        PROGRAM-ID.                     IUCP9120.
           10:       *   MODULE:       IUCP9120                                       *
          244:       *       THIS LOGIC NOW MATCHES IUCP9122 FOR THE ACTUAL TMC.      *
          260:            05  WS-MODULE-ID               PIC X(8)  VALUE 'IUCP9120'.   00030002
          267:                    'IUCP9120-HPA DF REC 23X BLD  '.                     00100002
          558:            IF (SIAPC-MODULE-NAME(1) = CWSNM-IUCP2002-NAME OR
0    ELEMENT   IUCP9122
            2:        PROGRAM-ID.                     IUCP9122.
           10:       *   MODULE:       IUCP9122                                       *
          235:            05  WS-MODULE-ID               PIC X(8)  VALUE 'IUCP9122'.   00030002
          242: 020500             'IUCP9122-HPA DF OTHER 21X-29X'.                     00100002
0    ELEMENT   IUCP9124
            2:        PROGRAM-ID.                     IUCP9124.
           10:       *   MODULE:       IUCP9124                                       *
          236:       *                                 C350-CALL-ITCP9732. DELETED    *
          238:       *                                 CALL TO ITCP9732 ALWAYS DONE.  *
          243:       *                                 T600-CALL-ITCP9732. DELETED    *
          267:       *                                 CALL TO IUCP9180.              *
          318:            05  WS-MODULE-ID               PIC X(8)  VALUE 'IUCP9124'.   00030002
          325:                    'IUCP9124-KERNEL FINALIZATION '.                     00100002
          628:            '***  IUCP9124 WORKING-STORAGE ENDS HERE  ***'.
          788:                PERFORM C350-CALL-ITCP9732
         1041:                PERFORM C350-CALL-ITCP9732
         1161:            MOVE CWSNM-IUCP9180-NAME TO WS-REQUESTED-MODULE.
         1335:                PERFORM C350-CALL-ITCP9732.
         1371:            PERFORM C350-CALL-ITCP9732.
         1830:        C350-CALL-ITCP9732.
         1836:            MOVE CWSNM-ITCP9732-NAME TO WS-REQUESTED-MODULE.
         1843:            PERFORM T600-CALL-ITCP9732.
         1877:            PERFORM C350-CALL-ITCP9732.
         4492:        T600-CALL-ITCP9732.
0    ELEMENT   IUCP9130
           67:       *         IUCP9120 TO PERSIST.  DO NOT OVERRIDE SF VALUE TO '1'. *
0    ELEMENT   IUCP9132
            2:        PROGRAM-ID.                    IUCP9132.
           10:       *   MODULE:       IUCP9132                                       *
          405:            05  WS-MODULE-ID               PIC X(8)  VALUE 'IUCP9132'.
          412:                    'IUCP9132-HPA KERNEL EDIT     '.
         1022:            IF (SIAPC-MODULE-NAME(1) = CWSNM-IUCP2002-NAME OR
         2440:            DISPLAY 'IUCP9132 - C370 ' FM32A-CFA-PRCSS-DT
1        2461:            DISPLAY 'IUCP9132 - C380 ' CIARF-CFA-STAT-CD (1)
         2484:            DISPLAY 'IUCP9132 - C390 ' FM32A-CFA-DEFLT-PMT-DT
         3573:            DISPLAY 'IUCP9132 - D320 ' CWSDT-G-DATE
0    ELEMENT   IUCP9134
            2:        PROGRAM-ID.                     IUCP9134.
           10:       *   MODULE:       IUCP9134                                       *
          104:            05  WS-MODULE-ID               PIC X(8)  VALUE 'IUCP9134'.   00030002
          111:                    'IUCP9134-HPA AJR/PF IA BUILD '.                     00100002
          249:            IF (SIAPC-MODULE-NAME(1) = CWSNM-IUCP2002-NAME OR
0    ELEMENT   IUCP9150
            3:        PROGRAM-ID.                     IUCP9150.
           11:       *   MODULE:       IUCP9150                                       *
          209:       *                                 IUCP9122 IN CIAIF-PREV-PMT-DISP*
          277:       *         TOTALS AND PASS INTO IUCP9104 & IUCP9116.              *
          289:       *         FOR VOIDS AND REISSUES BETWEEN IUCP9152 AND IUCP9150.  *
          316:       *         CONSISTENT WITH IUCP9152 AND TO MORE EASILY            *
          338:            05  WS-MODULE-ID               PIC X(8)  VALUE 'IUCP9150'.   00030002
          345:                    'IUCP9150-HPA CLM-LEVEL KERNEL'.                     00100002
         1231:            IF SIAPC-MODULE-NAME (1) = CWSNM-IUCP9018-NAME
         1633:                PERFORM  J230-SETUP-FOR-CALL-IUCP9134
         2539:       *    AT THIS POINT IN IUCP9152:
         2540:       *        THE KERNEL EDIT IUCP9132 IS INVOKED.
         3145:            PERFORM  J060-SETUP-FOR-CALL-IUCP9132.
         3167:            PERFORM  J060-SETUP-FOR-CALL-IUCP9132.
         3234:            PERFORM  J090-SETUP-FOR-CALL-IUCP9104.
         3360:            PERFORM J080-SETUP-FOR-CALL-ITCP9700.
         3406:            PERFORM  J150-SETUP-FOR-CALL-ITCP9248.
         3440:                PERFORM  J140-SETUP-FOR-CALL-IUCP9112
         3445:                PERFORM  J260-SETUP-FOR-CALL-IUCP9164.
         3715:            PERFORM  J230-SETUP-FOR-CALL-IUCP9134.
         5071:            PERFORM    J120-SETUP-FOR-CALL-IUCP9108.
         5167:        F260-SEVERE-LOG-SETUP-IUCP9150.
         6440:        J060-SETUP-FOR-CALL-IUCP9132.
         6445:            MOVE       CWSNM-IUCP9132-NAME        TO
         6513:        J080-SETUP-FOR-CALL-ITCP9700.
         6518:            MOVE       CWSNM-ITCP9700-NAME        TO
         6590:        J090-SETUP-FOR-CALL-IUCP9104.
         6595:            MOVE       CWSNM-IUCP9104-NAME        TO
         6711:        J120-SETUP-FOR-CALL-IUCP9108.
         6716:            MOVE       CWSNM-IUCP9108-NAME        TO
         6792:        J140-SETUP-FOR-CALL-IUCP9112.
         6797:            MOVE       CWSNM-IUCP9112-NAME        TO
         6863:        J150-SETUP-FOR-CALL-ITCP9248.
         6890:            MOVE       CWSNM-ITCP9248-NAME        TO
         7068:        J190-SETUP-FOR-CALL-IUCP9124.
         7073:            MOVE     CWSNM-IUCP9124-NAME          TO
         7191:        J230-SETUP-FOR-CALL-IUCP9134.
         7196:            MOVE       CWSNM-IUCP9134-NAME        TO
         7307:        J260-SETUP-FOR-CALL-IUCP9164.
         7312:            MOVE       CWSNM-IUCP9164-NAME        TO
         7478:            MOVE       CWSNM-IUCP9150-NAME        TO
         7523:            PERFORM  J190-SETUP-FOR-CALL-IUCP9124.
         8204:              WHEN     CWSNM-IUCP9150-NAME
         8206:                MOVE   CWSEC-SEVERE-SYS-ERR-IUCP9150   TO
         8224:              WHEN     CWSNM-IUCP9104-NAME
         8226:                MOVE   CWSEC-SEVERE-SYS-ERR-IUCP9104   TO
         8234:              WHEN     CWSNM-IUCP9108-NAME
         8236:                MOVE   CWSEC-SEVERE-SYS-ERR-IUCP9108   TO
1        8244:              WHEN     CWSNM-IUCP9112-NAME
         8246:                MOVE   CWSEC-SEVERE-SYS-ERR-IUCP9112   TO
         8259:              WHEN     CWSNM-IUCP9118-NAME
         8261:                MOVE   CWSEC-SEVERE-SYS-ERR-IUCP9118   TO
         8264:              WHEN     CWSNM-IUCP9120-NAME
         8266:                MOVE   CWSEC-SEVERE-SYS-ERR-IUCP9120   TO
         8269:              WHEN     CWSNM-IUCP9122-NAME
         8271:                MOVE   CWSEC-SEVERE-SYS-ERR-IUCP9122   TO
         8274:              WHEN     CWSNM-IUCP9124-NAME
         8276:                MOVE   CWSEC-SEVERE-SYS-ERR-IUCP9124   TO
         8284:              WHEN     CWSNM-IUCP9132-NAME
         8286:                MOVE   CWSEC-SEVERE-SYS-ERR-IUCP9132   TO
         8354:              WHEN     CWSNM-ITCP9700-NAME
         8356:                MOVE   CWSEC-SEVERE-SYS-ERR-ITCP9700   TO
         8604:                MOVE CWSNM-IUCP9150-NAME                    TO
         8618:                MOVE CWSNM-IUCP9150-NAME                    TO
         8632:                MOVE CWSNM-IUCP9150-NAME                    TO
         8646:                MOVE CWSNM-IUCP9150-NAME                    TO
         8664:                MOVE CWSNM-IUCP9150-NAME                    TO
         9786:            MOVE       CWSEC-SEVERE-SYS-ERR-IUCP9150 TO
         9792:            PERFORM    F260-SEVERE-LOG-SETUP-IUCP9150.
0    ELEMENT   IUCP9152
            3:        PROGRAM-ID.                     IUCP9152.
           11:       *   MODULE:       IUCP9152                                       *
           35:       *                                 IUCP9122.                      *
          226:       *                                 IUCP9122 IN CIAIF-PREV-PMT-DISP*
          286: 002810*         PROPERLY TO PREVENT S0C7 IN IUCP9122                   *
          316:       *         FOR VOIDS AND REISSUES BETWEEN IUCP9152 AND IUCP9150.  *
          341: 007500*         CONSISTENT WITH IUCP9150 AND TO MORE EASILY            *
          367:            05  WS-MODULE-ID               PIC X(8)  VALUE 'IUCP9152'.   00030002
          374: 003090             'IUCP9152-HPA LN-LEVEL KERNEL '.                     00003090
         1327: 015200*    THIS IS WHERE A D150-/D155- IS LOCATED IN IUCP9150
         2182: 020490         PERFORM  J210-SETUP-FOR-CALL-IUCP9134                    00020490
         2298:       *05/13/2010 E_47079  BZXDJL1 ADDED TO MATCH IUCP9150
         2300:       *05/13/2010 E_47079  BZXDJL1 ADDED TO MATCH IUCP9150
         3077:       *05/13/2010 E_47079  BZXDJL1 ADDED TO MATCH IUCP9150
         3079:       *05/13/2010 E_47079  BZXDJL1 ADDED TO MATCH IUCP9150
         3111:       *    AT THIS POINT IN IUCP9150:
         3113:       *        THE KERNEL EDIT IUCP9132 IS INVOKED.
         3603:            PERFORM    N500-SETUP-FOR-CALL-IUCP9124.
         3665:            PERFORM  J050-SETUP-FOR-CALL-IUCP9132.
         3708:            PERFORM  J050-SETUP-FOR-CALL-IUCP9132.
         3922:            PERFORM J070-SETUP-FOR-CALL-ITCP9700.
         3983:                PERFORM  J120-SETUP-FOR-CALL-IUCP9112
         3988:                PERFORM  J230-SETUP-FOR-CALL-IUCP9164.
         4251:            PERFORM  J210-SETUP-FOR-CALL-IUCP9134.
         4404: 042010*    IUCP9150 PARAGRAPH D360 CONTAINS MUCH ADDITIONAL LOGIC
         5366:            PERFORM    J110-SETUP-FOR-CALL-IUCP9108.
         6152:        F180-SEVERE-LOG-SETUP-IUCP9152.
         7446:            MOVE       CWSNM-ITCP9248-NAME        TO
         7450:            PERFORM    J130-SETUP-FOR-CALL-ITCP9248.
         7768:        J050-SETUP-FOR-CALL-IUCP9132.
         7773:            MOVE       CWSNM-IUCP9132-NAME        TO
         7841:        J070-SETUP-FOR-CALL-ITCP9700.
         7846:            MOVE       CWSNM-ITCP9700-NAME        TO
         8034:        J110-SETUP-FOR-CALL-IUCP9108.
         8039:            MOVE       CWSNM-IUCP9108-NAME        TO
         8070:        J120-SETUP-FOR-CALL-IUCP9112.
         8075:            MOVE       CWSNM-IUCP9112-NAME        TO
1        8141:        J130-SETUP-FOR-CALL-ITCP9248.
         8150:            MOVE       CWSNM-ITCP9248-NAME        TO
         8413:        J210-SETUP-FOR-CALL-IUCP9134.
         8418:            MOVE       CWSNM-IUCP9134-NAME        TO
         8504:        J230-SETUP-FOR-CALL-IUCP9164.
         8509:            MOVE       CWSNM-IUCP9164-NAME        TO
         8793:            MOVE       CWSNM-IUCP9152-NAME        TO
         8828:            PERFORM  N500-SETUP-FOR-CALL-IUCP9124.
         9125:        N500-SETUP-FOR-CALL-IUCP9124.
         9130:            MOVE     CWSNM-IUCP9124-NAME          TO
         9593: 092100       WHEN     CWSNM-IUCP9152-NAME                               00091970
         9595:                MOVE   CWSEC-SEVERE-SYS-ERR-IUCP9152   TO
         9603: 093100       WHEN     CWSNM-IUCP9108-NAME                               00092150
         9605:                MOVE   CWSEC-SEVERE-SYS-ERR-IUCP9108   TO
         9608: 093600       WHEN     CWSNM-IUCP9112-NAME                               00092270
         9610:                MOVE   CWSEC-SEVERE-SYS-ERR-IUCP9112   TO
         9623: 095100       WHEN     CWSNM-IUCP9118-NAME                               00092450
         9625:                MOVE   CWSEC-SEVERE-SYS-ERR-IUCP9118   TO
         9628: 095600       WHEN     CWSNM-IUCP9120-NAME                               00092510
         9630:                MOVE   CWSEC-SEVERE-SYS-ERR-IUCP9120   TO
         9633: 096100       WHEN     CWSNM-IUCP9122-NAME                               00092570
         9635:                MOVE   CWSEC-SEVERE-SYS-ERR-IUCP9122   TO
         9638: 096600       WHEN     CWSNM-IUCP9124-NAME                               00092630
         9640:                MOVE   CWSEC-SEVERE-SYS-ERR-IUCP9124   TO
         9648: 097600       WHEN     CWSNM-IUCP9132-NAME                               00092750
         9650:                MOVE   CWSEC-SEVERE-SYS-ERR-IUCP9132   TO
         9718: 104600       WHEN     CWSNM-ITCP9700-NAME                               00093590
         9720:                MOVE   CWSEC-SEVERE-SYS-ERR-ITCP9700   TO
         9890:                MOVE CWSNM-IUCP9152-NAME                    TO
         9904:                MOVE CWSNM-IUCP9152-NAME                    TO
         9918:                MOVE CWSNM-IUCP9152-NAME                    TO
         9932:                MOVE CWSNM-IUCP9152-NAME                    TO
         9950:                MOVE CWSNM-IUCP9152-NAME                    TO
         1078:            MOVE       CWSEC-SEVERE-SYS-ERR-IUCP9152 TO
         1081:            PERFORM    F180-SEVERE-LOG-SETUP-IUCP9152.
0    ELEMENT   IUCP9160
           25:       *                                 WHEN CALLING IUCP9132.         *
           78:       *         TO PASS OVERRIDE TOTALS TO IUCP9104/IUCP9116.          *
           81:       *       INTO IUCP9132 & IUCP9184.                                *
           84:       *       PASS ITCIAAI INTO ITCP9700.                              *
           86:       *       PASS IUCIAQD INTO IUCP9134.  REMOVE UNUSED COPYBOOKS AND *
          514:              WHEN CWSNM-ITCP9248-NAME
          515:                PERFORM J030-SETUP-FOR-CALL-ITCP9248
          523:              WHEN CWSNM-ITCP9700-NAME
          524:                PERFORM J060-SETUP-FOR-CALL-ITCP9700
          535:              WHEN CWSNM-IUCP9104-NAME
          536:                PERFORM J100-SETUP-FOR-CALL-IUCP9104
          541:              WHEN CWSNM-IUCP9108-NAME
          542:                PERFORM J120-SETUP-FOR-CALL-IUCP9108
          547:              WHEN CWSNM-IUCP9112-NAME
          548:                PERFORM J140-SETUP-FOR-CALL-IUCP9112
          556:              WHEN CWSNM-IUCP9124-NAME
          557:                PERFORM J170-SETUP-FOR-CALL-IUCP9124
          562:              WHEN CWSNM-IUCP9132-NAME
          563:                PERFORM J190-SETUP-FOR-CALL-IUCP9132
          565:              WHEN CWSNM-IUCP9134-NAME
          566:                PERFORM J200-SETUP-FOR-CALL-IUCP9134
          577:              WHEN CWSNM-IUCP9164-NAME
          578:                PERFORM J260-SETUP-FOR-CALL-IUCP9164
1         642:        J030-SETUP-FOR-CALL-ITCP9248.
          647:            MOVE       CWSNM-ITCP9248-NAME        TO
          653:            MOVE       CWSNM-ITCP9248-NAME        TO
          676:            PERFORM    T030-CALL-ITCP9248.
          749:        J060-SETUP-FOR-CALL-ITCP9700.
          754:            MOVE       CWSNM-ITCP9700-NAME        TO
          760:            MOVE       CWSNM-ITCP9700-NAME        TO
          789:            PERFORM    T060-CALL-ITCP9700.
          911:        J100-SETUP-FOR-CALL-IUCP9104.
          916:            MOVE       CWSNM-IUCP9104-NAME        TO
          922:            MOVE       CWSNM-IUCP9104-NAME        TO
          945:            PERFORM    T100-CALL-IUCP9104.
          972:        J120-SETUP-FOR-CALL-IUCP9108.
          977:            MOVE       CWSNM-IUCP9108-NAME        TO
          983:            MOVE       CWSNM-IUCP9108-NAME        TO
          992:            PERFORM    T120-CALL-IUCP9108.
         1029:        J140-SETUP-FOR-CALL-IUCP9112.
         1034:            MOVE       CWSNM-IUCP9112-NAME        TO
         1040:            MOVE       CWSNM-IUCP9112-NAME        TO
         1077:            PERFORM    T140-CALL-IUCP9112.
         1156:        J170-SETUP-FOR-CALL-IUCP9124.
         1161:            MOVE     CWSNM-IUCP9124-NAME          TO
         1167:            MOVE     CWSNM-IUCP9124-NAME          TO
         1189:            PERFORM T170-CALL-IUCP9124.
         1213:        J190-SETUP-FOR-CALL-IUCP9132.
         1218:            MOVE       CWSNM-IUCP9132-NAME        TO
         1224:            MOVE       CWSNM-IUCP9132-NAME        TO
         1240:            PERFORM    T190-CALL-IUCP9132.
         1245:        J200-SETUP-FOR-CALL-IUCP9134.
         1250:            MOVE       CWSNM-IUCP9134-NAME        TO
         1256:            MOVE       CWSNM-IUCP9134-NAME        TO
         1259:            PERFORM    T200-CALL-IUCP9134.
         1335:        J260-SETUP-FOR-CALL-IUCP9164.
         1340:            MOVE       CWSNM-IUCP9164-NAME        TO
         1346:            MOVE       CWSNM-IUCP9164-NAME        TO
         1349:            PERFORM    T260-CALL-IUCP9164.
         1457:        T030-CALL-ITCP9248.
         1462:            CALL 'ITCP9248'          USING  ITSIAPC
         1498:        T060-CALL-ITCP9700.
         1503:            CALL 'ITCP9700'          USING ITSIAPC
         1575:        T100-CALL-IUCP9104.
         1580:            CALL 'IUCP9104'          USING ITSIAPC
         1604:        T120-CALL-IUCP9108.
         1609:            CALL 'IUCP9108'          USING ITSIAPC
         1629:        T140-CALL-IUCP9112.
         1634:            CALL 'IUCP9112'          USING ITSIAPC
         1728:        T170-CALL-IUCP9124.
         1733:            CALL 'IUCP9124'          USING ITSIAPC
         1773:        T190-CALL-IUCP9132.
         1778:            CALL 'IUCP9132'          USING ITSIAPC
         1794:        T200-CALL-IUCP9134.
         1799:            CALL 'IUCP9134'          USING ITSIAPC
         1918:        T260-CALL-IUCP9164.
         1923:            CALL 'IUCP9164'          USING ITSIAPC
0    ELEMENT   IUCP9162
          216:       *12.0   E_41233  KJO PASS IN ITCIACP FROM IUCP9124
0    ELEMENT   IUCP9164
            2:        PROGRAM-ID.                       IUCP9164.
1          10:       *   MODULE:       IUCP9164                                       *
           97:            VALUE 'IUCP9164 VERSION 06.4 RELEASED 11/07/13'.
         1332:            MOVE     CWSNM-ITCP9248-NAME          TO
         1339:            MOVE     CWSNM-ITCP9248-NAME          TO
         1342:            PERFORM  T100-CALL-ITCP9248.
         2572:        T100-CALL-ITCP9248.
         2577:            CALL 'ITCP9248'          USING  ITSIAPC
0    ELEMENT   IUCP9170
           26:       *         GROUPINGS - REMOVE AJR FROM CALL TO IUCP9172           *00050013
           99:               PERFORM B100-CALL-IUCP9172.
          103:        B100-CALL-IUCP9172.
          110:            MOVE       CWSNM-IUCP9172-NAME        TO
          113:       *TRIGON    CALL CWSNM-IUCP9172-NAME  USING ITSIAPC
          114:            CALL 'IUCP9172'           USING ITSIAPC
0    ELEMENT   IUCP9172
            2:        PROGRAM-ID.                 IUCP9172.
           10:       *   MODULE:       IUCP9172                                       *
           56:              VALUE 'IUCP9172 VERSION 03.2 RELEASED 11/07/13'.
         1955:            MOVE CWSEC-SEVERE-SYS-ERR-IUCP9172  TO
0    ELEMENT   IUCP9356
          624:                        PERFORM J300-SETUP-FOR-CALL-ITCP9358
         1583:        J300-SETUP-FOR-CALL-ITCP9358.
         1588:            MOVE       CWSPN-ITCP9358-NAME             TO
         1600:            MOVE       CWSPN-ITCP9358-NAME             TO
         1603:            PERFORM    T300-CALL-ITCP9358.
         1728:        T300-CALL-ITCP9358.
         1733:            CALL 'ITCP9358'          USING ITSIAPC
1ENVIRONMENT  BCBS01    SYSTEM  ITS       SUBSYSTEM  UPF
 TYPE  COBOL     STAGE NUMBER 2 .
0    ELEMENT   ITCP6172
          194:       * CHECK FUNCTION CODES FROM INVOKING MODULE ITCP9242.......
0    ELEMENT   ITCP9164
            2: 000200 PROGRAM-ID. ITCP9164.                                                 ...
           13: 001300* MODULE     : ITCP9164                                           00001300
          361: R20006     05  WS-MODULE-ID               PIC X(08) VALUE 'ITCP9164'.
          379: 006100     05 WS-MODULE-ITCP9166           PIC X(8) VALUE 'ITCP9166'.   00061
         2828: 106000     MOVE WS-MODULE-ITCP9166      TO                              01172
         2836: 169000*    CALL WS-MODULE-ITCP9166 USING LS-ITSIAPC-RECORD,             00220001
         2837: 106600     CALL 'ITCP9166'         USING LS-ITSIAPC-RECORD,             00220101
0    ELEMENT   ITCP9166
            2:        PROGRAM-ID.                     ITCP9166.                             ...
           11:       *   MODULE:       ITCP9166                                       *00011
           20:       *                 IS POPULATED BY ITCP9242(UPF) AND RETURNED TO  *00020
           21:       *                 CALLER OF ITCP9166.                            *00021
           96:               VALUE '****  ITCP9166 WORKING-STORAGE STARTS HERE  ****'. 00057
           98:               10 WS-PROG-NAME              PIC X(09) VALUE 'ITCP9166 '. 00059
          275:            PERFORM J100-SETUP-FOR-CALL-ITCP9358.                        00404
          383:            PERFORM J200-SETUP-FOR-CALL-ITCP9242.                        00493
          412:            PERFORM J200-SETUP-FOR-CALL-ITCP9242.                        00522
          530:        J100-SETUP-FOR-CALL-ITCP9358.                                    00621
          533:            MOVE       CWSPN-ITCP9358-NAME             TO                00624
          545:            MOVE       CWSPN-ITCP9358-NAME             TO                00636
          547:            PERFORM    T100-CALL-ITCP9358.                               00638
          552:        J200-SETUP-FOR-CALL-ITCP9242.                                    00643
          561:            MOVE       CWSPN-ITCP9242-NAME     TO
          570:            MOVE       CWSPN-ITCP9242-NAME     TO
          591:            PERFORM    T200-CALL-ITCP9242.                               00662
          603:        T100-CALL-ITCP9358.                                              00667
          607:            CALL 'ITCP9358'          USING ITSIAPC                       00669
          614:        T200-CALL-ITCP9242.                                              00675
          618:            CALL 'ITCP9242'          USING ITSIAPC                       00677
0    ELEMENT   ITCP9242
            2:        PROGRAM-ID.                     ITCP9242.
           11:       *   MODULE:       ITCP9242                                       *
           26:       *                                ITCP9260 TO ITCP9286.           *00002613
           43:       *                                DATE IS PASSED TO ITCP9242      *
           46:       *                                ITCP9248 FOR USE IN PRORATION   *
           99:       *         ITDRTE00 WHEN RULES NOT IN ITCIARD WS TABLE.  THIS WILL*
          157:            05  WS-MODULE-ID               PIC X(8)  VALUE 'ITCP9242'.   00030002
          164:                    'ITCP9242-UPF STD&COB RECALC '.                      00100002
          186:        01  WS-ITDRTE00-NAME                 PIC X(08) VALUE 'ITDRTE00'.
          309:            05  WS-BYPASS-ITDRTE00-SW        PIC X(01) VALUE 'N'.        00013700
          310:                88  WS-BYPASS-ITDRTE00-YES             VALUE 'Y'.        00013800
          311:                88  WS-BYPASS-ITDRTE00-NO              VALUE 'N'.        00013900
          574:               SET WS-BYPASS-ITDRTE00-NO  TO TRUE
          577:               IF  WS-BYPASS-ITDRTE00-NO
          781:            PERFORM J300-SETUP-FOR-CALL-ITCP9246.
          795:            PERFORM J400-SETUP-FOR-CALL-ITCP9248.
          823:            PERFORM J700-SETUP-FOR-CALL-ITCP9258.                        00080613
          878:                  SET WS-BYPASS-ITDRTE00-YES TO TRUE
          893:                      SET WS-BYPASS-ITDRTE00-YES TO TRUE
          918:                      SET WS-BYPASS-ITDRTE00-YES TO TRUE
          949:            PERFORM J110-SETUP-FOR-CALL-ITDRTE00.
1        1157:            PERFORM J650-SETUP-FOR-CALL-ITCP9732.                        00112900
         1189:        J110-SETUP-FOR-CALL-ITDRTE00.
         1196:            MOVE WS-ITDRTE00-NAME       TO WS-REQUESTED-MODULE.
         1202:            PERFORM T110-CALL-ITDRTE00.
         1241:        J300-SETUP-FOR-CALL-ITCP9246.
         1246:            MOVE CWSPN-ITCP9246-NAME TO WS-REQUESTED-MODULE.             00125313
         1250:            PERFORM T300-CALL-ITCP9246.                                  00126013
         1257:        J400-SETUP-FOR-CALL-ITCP9248.
         1262:            MOVE CWSPN-ITCP9248-NAME TO WS-REQUESTED-MODULE.             00127213
         1266:            PERFORM T400-CALL-ITCP9248.                                  00127913
         1289:        J650-SETUP-FOR-CALL-ITCP9732.                                    00132300
         1298:            MOVE CWSPN-ITCP9732-NAME TO WS-REQUESTED-MODULE.             00132800
         1302:            PERFORM T650-CALL-ITCP9732.                                  00133400
         1311:        J700-SETUP-FOR-CALL-ITCP9258.
         1316:            MOVE CWSPN-ITCP9258-NAME TO WS-REQUESTED-MODULE.             00136713
         1320:            PERFORM T700-CALL-ITCP9258.                                  00137413
         1415:        T110-CALL-ITDRTE00.
         1448:        T300-CALL-ITCP9246.
         1453:            CALL 'ITCP9246'          USING ITSIAPC
         1465:        T400-CALL-ITCP9248.
         1470:            CALL 'ITCP9248'          USING ITSIAPC
         1500:        T650-CALL-ITCP9732.                                              00162400
         1505:            CALL 'ITCP9732'          USING ITSIAPC                       00162700
         1519:        T700-CALL-ITCP9258.
         1524:            CALL 'ITCP9258'          USING ITSIAPC
         1565:            IF WS-REQUESTED-MODULE = CWSPN-ITCP9242-NAME                 00168517
         1567:                MOVE CWSEC-SEVERE-SYS-ERR-ITCP9242 TO WS-RSN-CD.         00168617
         1569:            IF WS-REQUESTED-MODULE = CWSPN-ITCP9246-NAME                 00168817
         1571:                MOVE CWSEC-SEVERE-SYS-ERR-ITCP9246 TO WS-RSN-CD.         00168917
         1573:            IF WS-REQUESTED-MODULE = CWSPN-ITCP9248-NAME                 00169117
         1575:                MOVE CWSEC-SEVERE-SYS-ERR-ITCP9248 TO WS-RSN-CD.         00169217
         1581:            IF WS-REQUESTED-MODULE = CWSPN-ITCP9258-NAME                 00169717
         1583:                MOVE CWSEC-SEVERE-SYS-ERR-ITCP9258 TO WS-RSN-CD.         00169817
         1585:            IF WS-REQUESTED-MODULE = CWSPN-ITCP9286-NAME                 00170017
         1587:                MOVE CWSEC-SEVERE-SYS-ERR-ITCP9286 TO WS-RSN-CD.         00170117
         1598:            IF WS-REQUESTED-MODULE = CWSPN-ITDRTE00-NAME
         1600:                MOVE CWSEC-SEVERE-SYS-ERR-ITDRTE00 TO WS-RSN-CD.
         1608:            IF WS-REQUESTED-MODULE = CWSPN-ITCP9732-NAME                 00173000
         1610:                MOVE CWSEC-SEVERE-SYS-ERR-ITCP9732 TO WS-RSN-CD.         00173100
         1719:            IF  SIAPC-MODULE-NAME (3) = CWSPN-ITCP9242-NAME              01924
         1728:            IF  SIAPC-MODULE-NAME (2) = CWSPN-ITCP9700-NAME              01933
         1729:                MOVE CWSPN-ITCP9242-NAME TO                              00181017
         1739:                MOVE CWSPN-ITCP9242-NAME TO                              01944
         2008:            MOVE CWSPN-ITCP9242-NAME      TO CSAPI-CALLING-PGM-ID.
0    ELEMENT   ITCP9246
            2:        PROGRAM-ID.                     ITCP9246.
           11:       *   MODULE      : ITCP9246                                       *00011
          149:            05  WS-MODULE-ID               PIC X(08) VALUE 'ITCP9246'.
0    ELEMENT   ITCP9248
            2:        PROGRAM-ID.                     ITCP9248.
           11:       *   MODULE:       ITCP9248                                       *
          110:            05  WS-MODULE-ID               PIC X(8)  VALUE 'ITCP9248'.   00030002
          117:                    'ITCP9248-UPF PRE-CALCULATION SETUP'.                00100002
0    ELEMENT   ITCP9250
          446:       *12.0   E_41233  KJO PASS ITCIACP FROM ITCP9242
0    ELEMENT   ITCP9258
1           2: 000200 PROGRAM-ID.                     ITCP9258.                        00020024
           11:       *   MODULE      : ITCP9258                                      * 00011
           29: 002900*                                 ITCP9286 TO ITCP9286.         * 00290024
           39: 003900*                                 TO ITCP9286                   * 00390024
          161:            05  WS-MODULE-ID               PIC X(8)  VALUE 'ITCP9258'.   00030002
          173:                'ITCP9258-UPF FACTOR PRE-CALC                      '.
         2745: 159700     MOVE       CWSPN-ITCP9286-NAME             TO                15970024
         2751: 160300     MOVE       CWSPN-ITCP9286-NAME             TO                16030024
         2754: 160600     PERFORM    T100-CALL-MODULE-ITCP9286.                        16060024
         4977: 301800 T100-CALL-MODULE-ITCP9286.                                       30180024
         4980: 302000      CALL 'ITCP9286'        USING ITSIAPC                        30201099
0    ELEMENT   ITCP9286
            2:        PROGRAM-ID.                     ITCP9286.
           11:       *   MODULE:       ITCP9286                                      *
           33:       *                                 ITCP9260 TO ITCP9286.         *
          111:            05  WS-MODULE-ID               PIC X(8)  VALUE 'ITCP9286'.   00030002
          118:                    'ITCP9286-UPF STD FCTR RED'.                         00100002
          517:       *12.0   E_41233  KJO CWSCI DATA PASSED FROM ITCP9258              00010008
0    ELEMENT   ITCP9356
          211: 028900         PERFORM J300-SETUP-FOR-CALL-ITCP9358.                    ITCP9356
          218: 034500 J300-SETUP-FOR-CALL-ITCP9358.                                    ITCP9356
          222: 034900     MOVE       CWSPN-ITCP9358-NAME             TO                ITCP9356
          234: 036100     MOVE       CWSPN-ITCP9358-NAME             TO                ITCP9356
          237: 036400     PERFORM    T300-CALL-ITCP9358.                               ITCP9356
          244: 042400 T300-CALL-ITCP9358.                                              ITCP9356
          249: 042700     CALL 'ITCP9358'          USING ITSIAPC                       ITCP9356
0    ELEMENT   ITCP9358
            2:        PROGRAM-ID.                     ITCP9358.
           11: 001100*   MODULE      : ITCP9358                                       *00001100
          116:            05  WS-MODULE-ID               PIC X(08) VALUE 'ITCP9358'.
0    ELEMENT   ITCP9700
            2:        PROGRAM-ID.                     ITCP9700.                             ...
           11:       *   MODULE:       ITCP9700                                       *00011
           42: 003120*                                MPP E_34835 - BYP LINK ITCP9732 *
           97:            05  WS-MODULE-ID               PIC X(8)  VALUE 'ITCP9700'.   00030002
          104:                    'ITCP9700-UPF STD/COB CONTRLLR'.                     00100002
          749:            PERFORM J100-SETUP-FOR-CALL-ITCP9242.                        00621
          756:            PERFORM J900-SETUP-FOR-CALL-ITCP9702.                        00634
          961:            PERFORM J650-SETUP-FOR-CALL-ITCP9732.
          993:        J100-SETUP-FOR-CALL-ITCP9242.                                    00850
          998:            MOVE CWSPN-ITCP9242-NAME    TO WS-REQUESTED-MODULE.          00855
         1006:            PERFORM T100-CALL-ITCP9242.                                  00862
         1040:        J650-SETUP-FOR-CALL-ITCP9732.
         1049: 100300     MOVE CWSPN-ITCP9732-NAME TO WS-REQUESTED-MODULE.             00958
         1054: 101700         PERFORM T650-CALL-ITCP9732                               00968
         1058: 102100         PERFORM T655-CALL-ITCP9732.                              00972
         1103:        J900-SETUP-FOR-CALL-ITCP9702.                                    00961
         1116:            MOVE CWSPN-ITCP9702-NAME    TO WS-REQUESTED-MODULE.          00967
         1120:            PERFORM T900-CALL-ITCP9702.                                  00974
         1210:        T100-CALL-ITCP9242.                                              01064
         1215:            CALL 'ITCP9242'          USING  ITSIAPC
         1247:        T650-CALL-ITCP9732.                                              00162400
         1262:        T655-CALL-ITCP9732.                                              00162400
         1300:        T900-CALL-ITCP9702.                                              01163
         1305:            CALL 'ITCP9702'          USING  ITSIAPC
         1343:            IF WS-REQUESTED-MODULE = CWSPN-ITCP9242-NAME                 01231
1        1345:                MOVE CWSEC-SEVERE-SYS-ERR-ITCP9242 TO WS-RSN-CD.         01232
         1347:            IF WS-REQUESTED-MODULE = CWSPN-ITCP9246-NAME                 01234
         1349:                MOVE CWSEC-SEVERE-SYS-ERR-ITCP9246 TO WS-RSN-CD.         01235
         1351:            IF WS-REQUESTED-MODULE = CWSPN-ITCP9248-NAME                 01237
         1353:                MOVE CWSEC-SEVERE-SYS-ERR-ITCP9248 TO WS-RSN-CD.         01238
         1364: 146400     IF WS-REQUESTED-MODULE = CWSPN-ITDRTE00-NAME
         1366: 146500         MOVE CWSEC-SEVERE-SYS-ERR-ITDRTE00 TO WS-RSN-CD.
         1373:            IF WS-REQUESTED-MODULE = CWSPN-ITCP9702-NAME                 01267
         1375:                MOVE CWSEC-SEVERE-SYS-ERR-ITCP9702 TO WS-RSN-CD.         01268
         1377:            IF WS-REQUESTED-MODULE = CWSPN-ITCP9704-NAME                 01270
         1379:                MOVE CWSEC-SEVERE-SYS-ERR-ITCP9704 TO WS-RSN-CD.         01271
         1385:            IF WS-REQUESTED-MODULE = CWSPN-ITCP9708-NAME                 01276
         1387:                MOVE CWSEC-SEVERE-SYS-ERR-ITCP9708 TO WS-RSN-CD.         01277
         1405:            IF WS-REQUESTED-MODULE = CWSPN-ITCP9718-NAME                 01291
         1407:                MOVE CWSEC-SEVERE-SYS-ERR-ITCP9718 TO WS-RSN-CD.         01292
         1425: 150300     IF WS-REQUESTED-MODULE = CWSPN-ITCP9728-NAME                 01423
         1427: 150400         MOVE CWSEC-SEVERE-SYS-ERR-ITCP9728 TO WS-RSN-CD.         01424
         1429: 150300     IF WS-REQUESTED-MODULE = CWSPN-ITCP9730-NAME                 01423
         1431: 150400         MOVE CWSEC-SEVERE-SYS-ERR-ITCP9730 TO WS-RSN-CD.         01424
         1433: 150300     IF WS-REQUESTED-MODULE = CWSPN-ITCP9732-NAME                 01423
         1435: 150400         MOVE CWSEC-SEVERE-SYS-ERR-ITCP9732 TO WS-RSN-CD.         01424
         1535: 161100     IF  SIAPC-MODULE-NAME (3) = CWSPN-ITCP9242-NAME              01611
         1544: 162000     IF  SIAPC-MODULE-NAME (2) = CWSPN-ITCP9700-NAME              01620
         1553:                MOVE CWSPN-ITCP9700-NAME TO                              01386
0    ELEMENT   ITCP9702
            2:        PROGRAM-ID.                     ITCP9702.                             ...
           11:       *   MODULE:       ITCP9702                                       *00011
           49:       *         ITDRTE00 WHEN RULES NOT IN ITCIARD WS TABLE.  THIS WILL*
           97:            05  WS-MODULE-ID               PIC X(8)  VALUE 'ITCP9702'.   00030002
          104:                    'ITCP9702-UPF COB MAIN MODULE '.                     00100002
          122:        01  WS-ITDRTE00-NAME                 PIC X(08) VALUE 'ITDRTE00'.
          230:            05  WS-BYPASS-ITDRTE00-SW        PIC X(01) VALUE 'N'.        00013700
          231:                88  WS-BYPASS-ITDRTE00-YES             VALUE 'Y'.        00013800
          232:                88  WS-BYPASS-ITDRTE00-NO              VALUE 'N'.        00013900
          528:               SET WS-BYPASS-ITDRTE00-NO  TO TRUE
          530:               IF  WS-BYPASS-ITDRTE00-NO
          594:       *********CALL ITCP9704                                            00629
          647:            PERFORM J400-SETUP-FOR-CALL-ITCP9704.                        00790
          691:            PERFORM J110-SETUP-FOR-CALL-ITDRTE00.
          730:       *******CHANGE TO CALL ITCP9732 --- NOT ITCP2172*******************00891
          731:            PERFORM J650-SETUP-FOR-CALL-ITCP9732.                        00882
          732:       *******END CHANGE TO CALL ITCP9732 FOR RELEASE 10-1***************00891
          746:                SET WS-BYPASS-ITDRTE00-YES TO TRUE
          761:                        SET WS-BYPASS-ITDRTE00-YES TO TRUE
          786:                            SET WS-BYPASS-ITDRTE00-YES TO TRUE
          802:            PERFORM J110-SETUP-FOR-CALL-ITDRTE00.
          835:       *IF SEVERE ERROR RETURNED FROM ITDRTE00 - RESET TO UNSUCCESSFUL
         1052:            PERFORM J650-SETUP-FOR-CALL-ITCP9732.                        01118
         1080:        J110-SETUP-FOR-CALL-ITDRTE00.
         1087:            MOVE WS-ITDRTE00-NAME       TO WS-REQUESTED-MODULE.
         1093:            PERFORM T110-CALL-ITDRTE00.
         1124:        J400-SETUP-FOR-CALL-ITCP9704.                                    01269
         1129:            MOVE CWSPN-ITCP9704-NAME TO WS-REQUESTED-MODULE.             01274
         1134:            PERFORM T400-CALL-ITCP9704.                                  01281
         1156:        J650-SETUP-FOR-CALL-ITCP9732.
         1165: 100300     MOVE CWSPN-ITCP9732-NAME TO WS-REQUESTED-MODULE.             00958
         1172: 101700         PERFORM T650-CALL-ITCP9732                               00968
         1176: 102100         PERFORM T655-CALL-ITCP9732.                              00972
         1293:        T110-CALL-ITDRTE00.
1        1322:        T400-CALL-ITCP9704.                                              01623
         1327:            CALL 'ITCP9704'          USING ITSIAPC
         1367:        T650-CALL-ITCP9732.                                              00162400
         1372:            CALL 'ITCP9732'          USING ITSIAPC                       00162700
         1384:        T655-CALL-ITCP9732.                                              00162400
         1389:            CALL 'ITCP9732'          USING ITSIAPC                       00162700
         1453:            IF WS-REQUESTED-MODULE = CWSPN-ITCP9704-NAME                 01806
         1455:                MOVE CWSEC-SEVERE-SYS-ERR-ITCP9704 TO WS-RSN-CD.         01807
         1473:            IF WS-REQUESTED-MODULE = CWSPN-ITCP9718-NAME                 02019
         1475:                MOVE CWSEC-SEVERE-SYS-ERR-ITCP9718 TO WS-RSN-CD.         02020
         1502:            IF WS-REQUESTED-MODULE = CWSPN-ITDRTE00-NAME
         1504:                MOVE CWSEC-SEVERE-SYS-ERR-ITDRTE00 TO WS-RSN-CD.
         1511:            IF WS-REQUESTED-MODULE = CWSPN-ITCP9728-NAME                 01773
         1513:                MOVE CWSEC-SEVERE-SYS-ERR-ITCP9728 TO WS-RSN-CD.         01774
         1515:            IF WS-REQUESTED-MODULE = CWSPN-ITCP9730-NAME                 01773
         1517:                MOVE CWSEC-SEVERE-SYS-ERR-ITCP9730 TO WS-RSN-CD.         01774
         1519:            IF WS-REQUESTED-MODULE = CWSPN-ITCP9732-NAME                 01773
         1521:                MOVE CWSEC-SEVERE-SYS-ERR-ITCP9732 TO WS-RSN-CD.         01774
         1619:                CWSPN-ITCP9702-NAME                                      01918
         1622:                MOVE CWSPN-ITCP9702-NAME TO                              01922
0    ELEMENT   ITCP9704
            2:        PROGRAM-ID.                     ITCP9704.                             ...
           11:       *   MODULE:       ITCP9704                                       *00011
           54:       *       OF ITCIACO LINES PRIOR TO CALLING ITCP9248.              *00060001
           94:            05  WS-MODULE-ID               PIC X(8)  VALUE 'ITCP9704'.   00030002
          101:                    'ITCP9704-COB CALCULATOR EDIT '.                     00100002
          606:       **** THE FORMATS FILE MAY BE OPENED BEFORE UPF (ITCP9242) IS      00706
          607:       **** INVOKED. ITCP9242 WILL LEAVE THE FORMATS FILE IN THE SAME    00707
          728:            PERFORM J300-SETUP-FOR-CALL-ITCP9246.                        00779
          759:            PERFORM J400-SETUP-FOR-CALL-ITCP9248.                        00813
          776:            PERFORM J700-SETUP-FOR-CALL-ITCP9708.                        00830
         1075:        J300-SETUP-FOR-CALL-ITCP9246.                                    01161
         1080:            MOVE CWSPN-ITCP9246-NAME TO WS-REQUESTED-MODULE.             01166
         1085:            PERFORM T300-CALL-ITCP9246.                                  01173
         1109:        J400-SETUP-FOR-CALL-ITCP9248.                                    01205
         1136:            MOVE CWSPN-ITCP9248-NAME TO WS-REQUESTED-MODULE.             01217
         1141:            PERFORM T400-CALL-ITCP9248.                                  01224
         1148:        J700-SETUP-FOR-CALL-ITCP9708.                                    01234
         1153:            MOVE CWSPN-ITCP9708-NAME TO WS-REQUESTED-MODULE.             01239
         1158:            PERFORM T700-CALL-ITCP9708.                                  01246
         1483:        T300-CALL-ITCP9246.                                              01694
         1488:            CALL 'ITCP9246'          USING ITSIAPC
         1515:        T400-CALL-ITCP9248.                                              01718
         1520:            CALL 'ITCP9248'          USING ITSIAPC
         1533:        T700-CALL-ITCP9708.                                              01731
         1538:            CALL 'ITCP9708'          USING ITSIAPC
         1565:            IF WS-REQUESTED-MODULE = CWSPN-ITCP9246-NAME                 01760
         1566:                MOVE CWSEC-SEVERE-SYS-ERR-ITCP9246 TO WS-RSN-CD.         01761
         1568:            IF WS-REQUESTED-MODULE = CWSPN-ITCP9248-NAME                 01763
         1569:                MOVE CWSEC-SEVERE-SYS-ERR-ITCP9248 TO WS-RSN-CD.         01764
         1583:            IF WS-REQUESTED-MODULE = CWSPN-ITCP9708-NAME                 01778
         1584:                MOVE CWSEC-SEVERE-SYS-ERR-ITCP9708 TO WS-RSN-CD.         01779
         1662:                CWSPN-ITCP9704-NAME                                      01857
         1666:                MOVE CWSPN-ITCP9704-NAME TO                              01861
0    ELEMENT   ITCP9708
            2:        PROGRAM-ID.                     ITCP9708.                             ...
           11:       *   MODULE:       ITCP9708                                       *00011
           71:            05  WS-MODULE-ID               PIC X(8)  VALUE 'ITCP9708'.   00030002
1          78:                    'ITCP9708-COB OUTPT EDIT/BUILD'.                     00100002
0    ELEMENT   ITCP9710
          392:       *    PERFORMED IN ITCP9258
          524:            MOVE CWSPN-ITCP9286-NAME  TO
          530:            MOVE CWSPN-ITCP9286-NAME  TO
          533:            PERFORM T100-CALL-MODULE-ITCP9286.
          544:        T100-CALL-MODULE-ITCP9286.                                       00288
0    ELEMENT   ITCP9712
           23:       *                 2.  ITCP9718 RECALCULATES COST SHARING AND/OR  *00020
           25:       *                     BY INVOKING ITCP9242 AND REREADING THE     *00020
           52:       *         ADD ITCIAAI.  PASS ITCIAAI TO ITCP9718.                *00033
          320:       *********CALL ITCP9718                                            00469
          359:            PERFORM J200-SETUP-FOR-CALL-ITCP9718.                        00508
          534:        J200-SETUP-FOR-CALL-ITCP9718.                                    00718
          539:            MOVE CWSPN-ITCP9718-NAME TO WS-REQUESTED-MODULE.             00723
          546:            PERFORM T200-CALL-ITCP9718.                                  00730
          647:        T200-CALL-ITCP9718.                                              00834
          651:       *******WHICH CALLS ITCP9242                                       00838
          654:            CALL 'ITCP9718'          USING ITSIAPC
          691:            IF WS-REQUESTED-MODULE = CWSPN-ITCP9718-NAME                 00897
          693:                MOVE CWSEC-SEVERE-SYS-ERR-ITCP9718 TO WS-RSN-CD.         00898
0    ELEMENT   ITCP9718
            2:        PROGRAM-ID.                     ITCP9718.                             ...
           11:       *   MODULE:       ITCP9718                                       *00011
           40:       *         ADD ITCIAAI AND PASS INTO ITCP9242.                    *00033
           66:            05  WS-MODULE-ID               PIC X(8)  VALUE 'ITCP9718'.
           73:                    'ITCP9718-COB SCNDRY RECALC DRVR'.
          354:       *********CALL ITCP9242                                            00471
          465:            PERFORM J200-SETUP-FOR-CALL-ITCP9242.                        00503
          674:        J200-SETUP-FOR-CALL-ITCP9242.                                    00744
          679:            MOVE CWSPN-ITCP9242-NAME TO WS-REQUESTED-MODULE.             00749
          690:            PERFORM T200-CALL-ITCP9242.                                  00756
          866:        T200-CALL-ITCP9242.                                              00989
          870:            CALL 'ITCP9242'          USING ITSIAPC
          906:            IF WS-REQUESTED-MODULE = CWSPN-ITCP9242-NAME                 01060
          907:                MOVE CWSEC-SEVERE-SYS-ERR-ITCP9242 TO WS-RSN-CD.         01061
0    ELEMENT   ITCP9728
            2: 000200 PROGRAM-ID.           ITCP9728.
            7:       * MODULE       : ITCP9728                                       * 00070000
           15:       *                ONLY THE DISASSEMBLE FUNCTION IN ITCP9730 IS   * 00150000
          152: 012100     05 WS-PROGRAM-ID           PIC X(08) VALUE 'ITCP9728'.
          423: 053100        VALUE 'WORKING STORAGE ENDS HERE FOR PROGRAM - ITCP9728'.
          594:                  DISPLAY 'ITCP9728: DRILL DOWN PROCESSING REQUESTED'    04093237
          597:               DISPLAY 'ITCP9728: INVALID DRILL DOWN PARAMETER PASSED.'  04093530
         1424: 132600     PERFORM J200-SETUP-FOR-CALL-ITCP9730.                              00
         1463: 135600     PERFORM J200-SETUP-FOR-CALL-ITCP9730.                              00
         1553: 142010     PERFORM J200-SETUP-FOR-CALL-ITCP9730.                              00
         1730: 146710     PERFORM J200-SETUP-FOR-CALL-ITCP9730.                              00
         1769: 149910     PERFORM J200-SETUP-FOR-CALL-ITCP9730.                              00
         1811: 154410     PERFORM J200-SETUP-FOR-CALL-ITCP9730.                              00
         1851: 157510     PERFORM J200-SETUP-FOR-CALL-ITCP9730.                              00
         1890: 160600     PERFORM J200-SETUP-FOR-CALL-ITCP9730.
         1975:                  DISPLAY 'ITCP9728: DRILL-DOWN DRIVER FILE EMPTY.'      16775234
         2011: 162000 J200-SETUP-FOR-CALL-ITCP9730.
         2015:            MOVE CWSPN-ITCP9730-NAME TO SIAPC-MODULE-NAME(2).            16803000
         2017: 162200     MOVE CWSPN-ITCP9730-NAME TO WS-REQUESTED-MODULE.                   00
1        2018: 162300     PERFORM T200-CALL-ITCP9730.
         2041: 163300 T200-CALL-ITCP9730.
0    ELEMENT   ITCP9730
            2:        PROGRAM-ID.                       ITCP9730.
           10:       *   MODULE:       ITCP9730                                       *
           69:            05  WS-PROGRAM-ID                PIC X(08) VALUE 'ITCP9730'.
           73:            'ITCP9730-AIDCOMM/RECONCILIATION REASSEMBLE/DISASSEMBLE'.
          142:                  15 OIACS-IULP9220-ENTERED-IND       PIC X.
0    ELEMENT   ITCP9732
            2: 000200 PROGRAM-ID.           ITCP9732.                                  00000200
            7: 000700* MODULE       : ITCP9732                                        *00000700
           71:            05  WS-MODULE-ID               PIC X(8)  VALUE 'ITCP9732'.   00030002
           78:                    'ITCP9732-RECON TABLE PRETRANS'.                     00100002
          197: 005600        VALUE 'WORKING STORAGE ENDS HERE FOR PROGRAM - ITCP9732'. 00009800
