1           STATEMENT #1
            LIST ELEMENT '*'                                                        00120000
              FROM ENVIRONMENT 'BCBS01'                                             00130000
                  SYSTEM '*' SUBSYSTEM '*' TYPE 'COBOL' STAGE '2'                   00140090
              OPTIONS SHOW TEXT                                                     00150000
                                      WHERE TEXT EQ 'ITCAPD01'                      00170089
                                      WHERE TEXT EQ 'ITCDBERD'                      00180089
                                      WHERE TEXT EQ 'ITCDBF00'                      00190089
                                      WHERE TEXT EQ 'ITCIAAI '                      00200089
                                      WHERE TEXT EQ 'ITCIACO '                      00210089
                                      WHERE TEXT EQ 'ITCIACP '                      00220089
                                      WHERE TEXT EQ 'ITCIAED '                      00230089
                                      WHERE TEXT EQ 'ITCIARAP'                      00240089
                                      WHERE TEXT EQ 'ITCIARD '                      00250089
                                      WHERE TEXT EQ 'ITCIAUNQ'                      00260089
                                      WHERE TEXT EQ 'ITCPDEI '                      00270089
                                      WHERE TEXT EQ 'ITCPDEP '                      00280089
                                      WHERE TEXT EQ 'ITCWSEC '                      00290089
                                      WHERE TEXT EQ 'ITCWSMCD'                      00300089
                                      WHERE TEXT EQ 'ITCWSMR '                      00310089
                                      WHERE TEXT EQ 'ITCWSPN '                      00320089
                                      WHERE TEXT EQ 'ITDE00X2'                      00330089
                                      WHERE TEXT EQ 'IUCBT1CP'                      00340089
                                      WHERE TEXT EQ 'IUCDBF00'                      00341089
                                      WHERE TEXT EQ 'IUCDB1CP'                      00342089
                                      WHERE TEXT EQ 'IUCDB100'                      00343089
                                      WHERE TEXT EQ 'IUCIAAJR'                      00344089
                                      WHERE TEXT EQ 'IUCPDINV'                      00345089
                                      WHERE TEXT EQ 'IUCWSEC '                      00346089
                                      WHERE TEXT EQ 'IUCWSLN '                      00347089
                                      WHERE TEXT EQ 'IULDBFCS'                      00348089
                                      WHERE TEXT EQ 'IULDBF00'                      00349089
                                      WHERE TEXT EQ 'IULIAAJR'                      00349189
                                      WHERE TEXT EQ 'IULIACO '                      00349289
                                      WHERE TEXT EQ 'IULIACOP'                      00349389
                                      WHERE TEXT EQ 'IULIACS '                      00349489
                                      WHERE TEXT EQ 'IULIACSC'                      00349589
                                      WHERE TEXT EQ 'IULIACSS'                      00349689
                                      WHERE TEXT EQ 'IULIAREP'                      00349789
                                      WHERE TEXT EQ 'IULIASJR'                      00349889
                                      WHERE TEXT EQ 'IULIA2JR'                      00349989
                                      WHERE TEXT EQ 'IULWSCO '                      00350089
                                      WHERE TEXT EQ 'IULWSCP '                      00350189
                                      WHERE TEXT EQ 'IULWSEC '                      00350289
                                      WHERE TEXT EQ 'IULWSMR '                      00350389
                                      WHERE TEXT EQ 'ITCIARA '                      00350489
              BUILD ACTION LIST                                                     01220000
              .                                                                     01230000

1ENVIRONMENT  BCBS01    SYSTEM  CHIPS     SUBSYSTEM  CHIPS
 TYPE  COBOL     STAGE NUMBER 2 .
0    ELEMENT   RP153A00
          455: ITS112*                    1) INTIALIZE THE NEWLY ADDED IUCIAAJR       *
          458: ITS112*                    2) PASS THE FOLLOWING CLAIM LEVEL IUCIAAJR  *
          542: ITS140*                       ITCIACO, ITCIACP, IUCIAAJR FIELDS IN     *
          547: ITS140*                       ITCIACO COPYBOOK                         *
         1758:            COPY IUCIAAJR.
         1779:            COPY IULIACSS.
         1781: 017020     COPY IULIACOP.
         2251:            PERFORM 11500-INIT-IUCIAAJR-AREA.
         2493:        11500-INIT-IUCIAAJR-AREA  SECTION.
         4159:            PERFORM 24400-INIT-IUCIAAJR-LINE.
         5646:        24400-INIT-IUCIAAJR-LINE  SECTION.
         8881:       *ITCIACP AREA - UPF CALCULATOR INPUT PRICING AREA
         8886:       *IUCIAAJR AREA - HPA ADDITIONAL ADJUDICATION RESULTS INPUT AREA
         9976:            PERFORM 46200-INIT-IUCIAAJR-AREA.
         0150:        46200-INIT-IUCIAAJR-AREA  SECTION.
1ENVIRONMENT  BCBS01    SYSTEM  FEPMAYBE  SUBSYSTEM  FEPMAYBE
 TYPE  COBOL     STAGE NUMBER 2 .
0    ELEMENT   ITCP1124
           48: 00048  01  ITCDBF00-OUT-DATA.                                           ITCP1124
           49: 00049      COPY ITCDBF00.                                               ITCP1124
0    ELEMENT   ITCP1170
           60: 00060      COPY ITCDBERD.                                               ITCP1170
0    ELEMENT   ITCP1172
           60: 00060  01  ITCDBF00-OUT-DATA.                                           ITCP1172
           61: 00061      COPY ITCDBF00.                                               ITCP1172
           63: 00063  01  WS-FILE-NAME                    PIC X(8)  VALUE 'ITCDBF00'.  ITCP1172
          167: 00167                           ITCIACP                                 ITCP1172
          169: 00169                           ITCIACO                                 ITCP1172
0    ELEMENT   ITCP2170
           46: 00046          SELECT ITCDBERD-VSAM-FILE    ASSIGN TO  AS-ITCDBE00      ITCP2170
           58: 00058  FD  ITCDBERD-VSAM-FILE.                                          ITCP2170
           61: 00061      COPY ITCDBERD.                                               ITCP2170
          243: 00243      OPEN INPUT ITCDBERD-VSAM-FILE.                               ITCP2170
          305: 00305      READ ITCDBERD-VSAM-FILE                                      ITCP2170
          740: 00740      CLOSE ITCDBERD-VSAM-FILE.                                    ITCP2170
0    ELEMENT   ITCP2172
           40: 00040 *                          FROM FD FOR ITCDBF00-VSAM-FILE        *ITCP2172
           61: 00061          SELECT ITCDBF00-VSAM-FILE ASSIGN TO AS-ITCDBF00          ITCP2172
           67: 00067  FD  ITCDBF00-VSAM-FILE                                           ITCP2172
           70: 00070      DATA RECORD IS ITCDBF00-OUT-RECORD.                          ITCP2172
           72: 00072  01  ITCDBF00-OUT-RECORD.                                         ITCP2172
           73: 00073      COPY ITCDBF00.                                               ITCP2172
          190: 00190                           ITCIACP                                 ITCP2172
          192: 00192                           ITCIACO                                 ITCP2172
          283: 00283      OPEN EXTEND ITCDBF00-VSAM-FILE.                              ITCP2172
          355: 00355      MOVE SPACES                    TO ITCDBF00-OUT-RECORD.       ITCP2172
          380: 00380      MOVE SPACES                    TO ITCDBF00-OUT-RECORD.       ITCP2172
          387: 00387          MOVE SPACES                TO ITCDBF00-OUT-RECORD        ITCP2172
          423: 00423      MOVE SPACES                    TO ITCDBF00-OUT-RECORD.       ITCP2172
          464: 00464      MOVE SPACES                    TO ITCDBF00-OUT-RECORD.       ITCP2172
          551: 00551      CLOSE ITCDBF00-VSAM-FILE.                                    ITCP2172
0    ELEMENT   ITCP9036
           69: 00069      SELECT ITCDBF00-IN-FILE        ASSIGN TO UT-S-ITCDBF00.      ITCP9036
           89: 00089  FD  ITCDBF00-IN-FILE.                                            ITCP9036
           91: 00091  01  ITCDBF00-IN-RECORD.                                          ITCP9036
           92: 00092      COPY ITCDBF00.                                               ITCP9036
         1101: 01101      OPEN INPUT  ITCDBF00-IN-FILE.                                ITCP9036
         1151: 01151      READ ITCDBF00-IN-FILE                                        ITCP9036
         1449: 01449      CLOSE ITCDBF00-IN-FILE                                       ITCP9036
0    ELEMENT   ITCP9038
           69: 00069      SELECT ITCDBF00-IN-FILE        ASSIGN TO UT-S-ITCDBF00.      ITCP9038
           76: 00076  FD  ITCDBF00-IN-FILE                                             ITCP9038
           79: 00079  01  ITCDBF00-IN-RECORD.                                          ITCP9038
           80: 00080      COPY ITCDBF00.                                               ITCP9038
         2879: 02879      OPEN INPUT  ITCDBF00-IN-FILE.                                ITCP9038
         2902: 02902      READ ITCDBF00-IN-FILE                                        ITCP9038
         5316: 05316      CLOSE ITCDBF00-IN-FILE                                       ITCP9038
1    ELEMENT   ITCP9164
         1824: 01824 *                   ITCIACO -UPF CALCULATOR OUTPUT                ITCP9164
0    ELEMENT   ITCP9166
           19: 00019 *                 LIABILITES(FULL COVERAGE). THE ENTIRE ITCIACO  *ITCP9166
           86: 00086      COPY ITCIACO                                                 ITCP9166
           89: 00089           == DEPENDING ON CIACO-TBL-ENTRY-CNT OF WS-ITCIACO ==.   ITCP9166
          151: 00151      COPY ITCIACO                                                 ITCP9166
          154: 00154           == DEPENDING ON CIACO-TBL-ENTRY-CNT OF ITCIACO ==.      ITCP9166
          316: 00316                           ITCIACO                                 ITCP9166
          382: 00382         AND (CIACO-SUCCESSFUL OF ITCIACO                          ITCP9166
          387: 00387            AND (CIACO-SUCCESSFUL OF ITCIACO                       ITCP9166
          504: 00504      MOVE CIACO-SCCF-SER-NUM OF ITCIACO                           ITCP9166
          506: 00506      MOVE CIACO-CALC-RESULTS-CNTL-DATA OF ITCIACO                 ITCP9166
          508: 00508      MOVE CIACO-CALC-RESULTS-CLM-LVL OF ITCIACO                   ITCP9166
          510: 00510      MOVE CIACO-TBL-ENTRY-CNT OF ITCIACO                          ITCP9166
          513: 00513       UNTIL WS-S1 GREATER CIACO-TBL-ENTRY-CNT OF ITCIACO          ITCP9166
          527: 00527      IF CIACO-BCBS-PMT-AMT  OF WS-ITCIACO  NUMERIC                ITCP9166
          528: 00528      AND CIACO-SUB-LIAB     OF WS-ITCIACO  NUMERIC                ITCP9166
          529: 00529      AND CIACO-BCBS-PMT-AMT OF ITCIACO     NUMERIC                ITCP9166
          530: 00530      AND CIACO-SUB-LIAB     OF ITCIACO     NUMERIC                ITCP9166
          531: 00531         IF CIACO-BCBS-PMT-AMT OF WS-ITCIACO                       ITCP9166
          532: 00532            + CIACO-SUB-LIAB   OF WS-ITCIACO                       ITCP9166
          534: 00534            CIACO-BCBS-PMT-AMT OF ITCIACO                          ITCP9166
          535: 00535            + CIACO-SUB-LIAB   OF ITCIACO                          ITCP9166
          537: 00537            MOVE CIACO-SCCF-SER-NUM OF WS-ITCIACO                  ITCP9166
          538: 00538              TO CIACO-SCCF-SER-NUM OF ITCIACO                     ITCP9166
          539: 00539            MOVE CIACO-CALC-RESULTS-CNTL-DATA OF WS-ITCIACO        ITCP9166
          540: 00540              TO CIACO-CALC-RESULTS-CNTL-DATA OF ITCIACO           ITCP9166
          541: 00541            MOVE CIACO-CALC-RESULTS-CLM-LVL OF WS-ITCIACO          ITCP9166
          542: 00542              TO CIACO-CALC-RESULTS-CLM-LVL OF ITCIACO             ITCP9166
          543: 00543            MOVE CIACO-TBL-ENTRY-CNT OF WS-ITCIACO                 ITCP9166
          544: 00544              TO CIACO-TBL-ENTRY-CNT OF ITCIACO                    ITCP9166
          546: 00546             UNTIL WS-S1 GREATER CIACO-TBL-ENTRY-CNT OF WS-ITCIACO ITCP9166
          560: 00560      MOVE ZERO TO  CIACO-CLM-STAT-CD                   OF ITCIACO ITCP9166
          561: 00561                    CIACO-DED-REM-1                     OF ITCIACO ITCP9166
          562: 00562                    CIACO-DED-REM-2                     OF ITCIACO ITCP9166
          563: 00563                    CIACO-DED-REM-3                     OF ITCIACO ITCP9166
          564: 00564                    CIACO-REM-OOP-MAX                   OF ITCIACO ITCP9166
          565: 00565                    CIACO-BCBS-PMT-AMT                  OF ITCIACO ITCP9166
          566: 00566                    CIACO-PAY-MAX-REM-CLM-1             OF ITCIACO ITCP9166
          567: 00567                    CIACO-PAY-MAX-REM-CLM-2             OF ITCIACO ITCP9166
          568: 00568                    CIACO-PAY-MAX-REM-CLM-3             OF ITCIACO ITCP9166
          660: 00660      IF CIACO-TBL-ENTRY-CNT OF ITCIACO NOT NUMERIC                ITCP9166
          670: 00670                                     ITCIACP                       ITCP9166
          679: 00679                                     ITCIACP                       ITCP9166
          680: 00680                                     ITCIACO                       ITCP9166
0    ELEMENT   ITCP9180
          264: 00264 *                                    COPYMEMBER ITCWSMCD TO      *ITCP9180
         1160: 01160  01  ITCWSMCD-RECORD.                                             ITCP9180
         1161: 01161       COPY ITCWSMCD.                                              ITCP9180
0    ELEMENT   ITCP9182
           86: 00086 *                             ITCIAED - ERROR INDICATORS SET HERE*ITCP9182
0    ELEMENT   ITCP9206
           30: 00030 *                               UPF OUTPUT AREA ITCIACO          *ITCP9206
          223: 00223                           ITCIACP                                 ITCP9206
1    ELEMENT   ITCP9242
          437: 00437                           ITCIACP                                 ITCP9242
          438: 00438                           ITCIACO                                 ITCP9242
          737: 00737 *    INITIALIZE ITCIACP FIELDS                                    ITCP9242
          749: 00749 *    INITIALIZE ITCIACO FIELDS                                    ITCP9242
         1605: 01605                                     ITCIARD                       ITCP9242
         1615: 01615                                     ITCIACP                       ITCP9242
         1674: 01674                                     ITCIACP                       ITCP9242
         1675: 01675                                     ITCIACO                       ITCP9242
         1686: 01686                                     ITCIACP                       ITCP9242
         1687: 01687                                     ITCIACO                       ITCP9242
         1699: 01699                                     ITCIACO                       ITCP9242
         1712: 01712                                     ITCIACP                       ITCP9242
         1724: 01724                                     ITCIACP                       ITCP9242
         1736: 01736                                     ITCIACP                       ITCP9242
         1738: 01738                                     ITCIACO                       ITCP9242
         1749: 01749                                     ITCIACP                       ITCP9242
         1751: 01751                                     ITCIACO                       ITCP9242
         1761: 01761                                     ITCIACP                       ITCP9242
0    ELEMENT   ITCP9246
           48: 00048 *                               ITCWSMR TABLE                    *ITCP9246
          555: 00555                           ITCIACP                                 ITCP9246
          556: 00556                           ITCIACO                                 ITCP9246
0    ELEMENT   ITCP9248
          276: 00276                           ITCIACP                                 ITCP9248
          277: 00277                           ITCIACO                                 ITCP9248
0    ELEMENT   ITCP9250
          509: 00509                           ITCIACO                                 ITCP9250
0    ELEMENT   ITCP9258
          640: 00640                           ITCIACP                                 ITCP9258
          642: 00642                           ITCIACO                                 ITCP9258
         3340: 03340                                    ITCIACP                        ITCP9258
0    ELEMENT   ITCP9286
          454: 00454                           ITCIACP                                 ITCP9286
0    ELEMENT   ITCP9356
          196: 00196                           ITCIACP                                 ITCP9356
          433: 00433                                     ITCIACP                       ITCP9356
0    ELEMENT   ITCP9358
           19: 00019 *   FUNCTION:     THIS MODULE BUILDS ITCIACP FROM THE            *ITCP9358
          196: 00196                           LS-ITCIACP                              ITCP9358
0    ELEMENT   ITCP9396
         3119: 03119        'ON COMMON COPYBOOK ITCWSMCD                           '.  ITCP9396
0    ELEMENT   ITCP9438
         2971: 02971       'ON COMMON COPYBOOK ITCWSMCD                           '.   ITCP9438
0    ELEMENT   ITCP9556
          101: 00101 *                            AND ITCPDEI WERE UPDATED.           *ITCP9556
          951: 00951 *                        - MODIFIED COPYBOOK ITCPDEI             *ITCP9556
         1521: 01521 *    ...FOLLOWING 4 SUBSCRIPTS USED ONLY BY COPYMEMBER ITCPDEI    ITCP9556
0    ELEMENT   ITCP9558
1          94: 00094 *                            ITCPDEP WERE UPDATED.               *ITCP9558
          875: 00875 *                        - MODIFIED COPYBOOK ITCPDEP             *ITCP9558
          974: 00974 *... FOLLOWING SUBSCRIPTS USED BY COPYMEMBER ITCPDEP              ITCP9558
0    ELEMENT   ITCP9700
          224: 00224      COPY ITCIACP                                                 ITCP9700
          227: 00227           == DEPENDING ON CIACP-TBL-ENTRY-CNT OF WS-ITCIACP ==.   ITCP9700
          230: 00230      COPY ITCIACO                                                 ITCP9700
          233: 00233           == DEPENDING ON CIACO-TBL-ENTRY-CNT OF WS-ITCIACO ==.   ITCP9700
          265: 00265      COPY ITCIACP                                                 ITCP9700
          268: 00268           == DEPENDING ON CIACP-TBL-ENTRY-CNT OF ITCIACP ==.      ITCP9700
          278: 00278      COPY ITCIACO                                                 ITCP9700
          281: 00281           == DEPENDING ON CIACO-TBL-ENTRY-CNT OF ITCIACO ==.      ITCP9700
          448: 00448                           ITCIACP                                 ITCP9700
          450: 00450                           ITCIACO                                 ITCP9700
          621: 00621      IF CIACO-CLM-STAT-CD OF ITCIACO IS EQUAL TO                  ITCP9700
          740: 00740      EVALUATE  CIACO-SUCCESSFUL OF ITCIACO                        ITCP9700
          880: 00880 *****MOVE CIACP-SCCF-SER-NUM OF ITCIACP TO WS-CB-SCCF-SER-NUM     ITCP9700
          892: 00892      MOVE CIACP-SCCF-SER-NUM OF ITCIACP TO WS-CB-SCCF-SER-NUM.    ITCP9700
          931: 00931      IF CIACO-CLM-STAT-CD OF ITCIACO = WS-UNABLE-TO-CALC          ITCP9700
         1168: 01168      IF CIACO-CLM-ERR-MAX-IND OF ITCIACO NOT = WS-CONSTANT-YES    ITCP9700
         1221: 01221                                      ITCIACP                      ITCP9700
         1222: 01222                                      ITCIACO                      ITCP9700
         1273: 01273                                     ITCIACP                       ITCP9700
         1287: 01287                                     ITCIACP                       ITCP9700
         1289: 01289                                     ITCIACO                       ITCP9700
         1301: 01301                                     ITCIACP                       ITCP9700
         1314: 01314                                     ITCIACP                       ITCP9700
         1316: 01316                                     ITCIACO                       ITCP9700
         1329: 01329                                     ITCIACP                       ITCP9700
         1331: 01331                                     ITCIACO                       ITCP9700
         1343: 01343                                     ITCIACP                       ITCP9700
         1345: 01345                                     ITCIACO                       ITCP9700
         1370: 01370                                      ITCIACP                      ITCP9700
         1371: 01371                                      WS-ITCIACP                   ITCP9700
         1373: 01373                                      WS-ITCIACO                   ITCP9700
         1374: 01374                                      ITCIACO                      ITCP9700
         1423: 01423                                     ITCIACO                       ITCP9700
         1696: 01696           CIACP-SCCF-SER-NUM OF ITCIACP                           ITCP9700
         1697: 01697           CIACO-SCCF-SER-NUM OF ITCIACO                           ITCP9700
         1735: 01735      MOVE CIACP-SCCF-SER-NUM OF ITCIACP                           ITCP9700
         1736: 01736        TO CIACP-SCCF-SER-NUM OF WS-ITCIACP                        ITCP9700
         1737: 01737      MOVE CIACP-FDB-INV-CD   OF ITCIACP                           ITCP9700
         1738: 01738        TO CIACP-FDB-INV-CD   OF WS-ITCIACP                        ITCP9700
         1739: 01739      MOVE CIACP-PRC-DATA-PRESENT-IND OF ITCIACP                   ITCP9700
         1740: 01740        TO CIACP-PRC-DATA-PRESENT-IND OF WS-ITCIACP                ITCP9700
         1741: 01741      MOVE CIACP-CLM-LVL-DATA OF ITCIACP                           ITCP9700
         1742: 01742        TO CIACP-CLM-LVL-DATA OF WS-ITCIACP                        ITCP9700
         1743: 01743      MOVE CIACP-COB-DATA-CLM OF ITCIACP                           ITCP9700
         1744: 01744        TO CIACP-COB-DATA-CLM OF WS-ITCIACP                        ITCP9700
         1746: 01746      IF CIACP-TBL-ENTRY-CNT OF ITCIACP NUMERIC                    ITCP9700
         1747: 01747          IF CIACP-TBL-ENTRY-CNT OF ITCIACP NOT >                  ITCP9700
         1749: 01749              MOVE CIACP-TBL-ENTRY-CNT OF ITCIACP TO               ITCP9700
         1750: 01750                            CIACP-TBL-ENTRY-CNT OF WS-ITCIACP      ITCP9700
         1753: 01753                            CIACP-TBL-ENTRY-CNT OF WS-ITCIACP      ITCP9700
         1758: 01758      IF CIACP-TBL-ENTRY-CNT OF ITCIACP > ZERO                     ITCP9700
         1760: 01760           UNTIL WS-S1 GREATER CIACP-TBL-ENTRY-CNT OF ITCIACP      ITCP9700
         1769: 01769      MOVE CIACP-SCCF-SER-NUM OF WS-ITCIACP                        ITCP9700
         1770: 01770        TO CIACP-SCCF-SER-NUM OF ITCIACP                           ITCP9700
         1771: 01771      MOVE CIACP-FDB-INV-CD   OF WS-ITCIACP                        ITCP9700
1        1772: 01772        TO CIACP-FDB-INV-CD   OF ITCIACP                           ITCP9700
         1773: 01773      MOVE CIACP-PRC-DATA-PRESENT-IND OF WS-ITCIACP                ITCP9700
         1774: 01774        TO CIACP-PRC-DATA-PRESENT-IND OF ITCIACP                   ITCP9700
         1775: 01775      MOVE CIACP-CLM-LVL-DATA OF WS-ITCIACP                        ITCP9700
         1776: 01776        TO CIACP-CLM-LVL-DATA OF ITCIACP                           ITCP9700
         1777: 01777      MOVE CIACP-COB-DATA-CLM OF WS-ITCIACP                        ITCP9700
         1778: 01778        TO CIACP-COB-DATA-CLM OF ITCIACP                           ITCP9700
         1779: 01779      MOVE CIACP-TBL-ENTRY-CNT OF WS-ITCIACP                       ITCP9700
         1782: 01782      IF CIACP-TBL-ENTRY-CNT OF WS-ITCIACP > ZERO                  ITCP9700
         1784: 01784           UNTIL WS-S1 GREATER CIACP-TBL-ENTRY-CNT OF WS-ITCIACP   ITCP9700
         1793: 01793      MOVE CIACO-SCCF-SER-NUM OF ITCIACO                           ITCP9700
         1795: 01795      MOVE CIACO-CALC-RESULTS-CNTL-DATA OF ITCIACO                 ITCP9700
         1797: 01797      MOVE CIACO-CALC-RESULTS-CLM-LVL OF ITCIACO                   ITCP9700
         1799: 01799      MOVE CIACO-TBL-ENTRY-CNT OF ITCIACO                          ITCP9700
         1802: 01802       UNTIL WS-S1 GREATER CIACO-TBL-ENTRY-CNT OF ITCIACO          ITCP9700
         1811: 01811      MOVE CIACO-SCCF-SER-NUM OF WS-ITCIACO                        ITCP9700
         1814: 01814 *****MOVE CIACO-CALC-RESULTS-CNTL-DATA OF WS-ITCIACO              ITCP9700
         1817: 01817      MOVE CIACO-CALC-RESULTS-CLM-LVL OF WS-ITCIACO                ITCP9700
         1819: 01819      MOVE CIACO-TBL-ENTRY-CNT OF WS-ITCIACO                       ITCP9700
         1822: 01822       UNTIL WS-S1 GREATER CIACO-TBL-ENTRY-CNT OF WS-ITCIACO       ITCP9700
0    ELEMENT   ITCP9702
          212: 00212      COPY ITCIACO                                                 ITCP9702
          215: 00215           == DEPENDING ON CIACO-TBL-ENTRY-CNT OF CB-ITCIACO ==.   ITCP9702
          267: 00267      COPY ITCIACP                                                 ITCP9702
          270: 00270           == DEPENDING ON CIACP-TBL-ENTRY-CNT OF ITCIACP ==.      ITCP9702
          275: 00275      COPY ITCIACP                                                 ITCP9702
          278: 00278           == DEPENDING ON CIACP-TBL-ENTRY-CNT OF WS-ITCIACP ==.   ITCP9702
          283: 00283      COPY ITCIACO                                                 ITCP9702
          286: 00286           == DEPENDING ON CIACO-TBL-ENTRY-CNT OF WS-ITCIACO ==.   ITCP9702
          291: 00291      COPY ITCIACO                                                 ITCP9702
          294: 00294           == DEPENDING ON CIACO-TBL-ENTRY-CNT OF ITCIACO ==.      ITCP9702
          472: 00472                           ITCIACP                                 ITCP9702
          473: 00473                           WS-ITCIACP                              ITCP9702
          475: 00475                           WS-ITCIACO                              ITCP9702
          476: 00476                           ITCIACO                                 ITCP9702
          631: 00631          UNTIL SUB > CIACO-TBL-ENTRY-CNT OF CB-ITCIACO + 1        ITCP9702
          772: 00772 *    INITIALIZE ITCIACP FIELDS                                    ITCP9702
          802: 00802          MOVE CIACP-SCCF-SER-NUM OF ITCIACP TO                    ITCP9702
         1019: 01019      EVALUATE  CIACO-SUCCESSFUL OF ITCIACO                        ITCP9702
         1162: 01162      MOVE CIACP-SCCF-SER-NUM OF ITCIACP TO WS-CB-SCCF-SER-NUM.    ITCP9702
         1617: 01617      IF CIACO-CLM-ERR-MAX-IND OF ITCIACO NOT = WS-CONSTANT-YES    ITCP9702
         1644: 01644          OR CIACO-CLM-RSN-CD OF ITCIACO (ERR-SUB1) = SPACES.      ITCP9702
         1745: 01745                                     ITCIARD                       ITCP9702
         1755: 01755                                     ITCIACP                       ITCP9702
         1815: 01815                                     ITCIACP                       ITCP9702
         1816: 01816                                     WS-ITCIACP                    ITCP9702
         1818: 01818                                     ITCIACO                       ITCP9702
         1821: 01821                                     ITCIARD                       ITCP9702
         1822: 01822                                     WS-ITCIACO                    ITCP9702
         1823: 01823                                     CB-ITCIACO                    ITCP9702
         1873: 01873                                     CB-ITCIACO                    ITCP9702
         1886: 01886                                     ITCIACP                       ITCP9702
         1888: 01888                                     ITCIACO                       ITCP9702
         1900: 01900                                     ITCIACP                       ITCP9702
         1902: 01902                                     ITCIACO                       ITCP9702
         1914: 01914                                     ITCIACP                       ITCP9702
         1916: 01916                                     ITCIACO                       ITCP9702
         1929: 01929                                     ITCIACP                       ITCP9702
         1931: 01931                                     WS-ITCIACO                    ITCP9702
1        1932: 01932                                     CB-ITCIACO                    ITCP9702
         1933: 01933                                     ITCIARD                       ITCP9702
         1994: 01994                                     ITCIACO                       ITCP9702
         2245: 02245      MOVE SPACES        TO CIACO-CALC-RESULTS OF CB-ITCIACO       ITCP9702
         2249: 02249           CIACO-SCCF-SER-NUM OF CB-ITCIACO                        ITCP9702
         2252: 02252      MOVE ZEROES        TO CIACO-CLM-STAT-CD OF CB-ITCIACO        ITCP9702
         2253: 02253                            CIACO-CLM-STAT-CD OF ITCIACO           ITCP9702
         2254: 02254                            CIACO-DED-REM-1 OF CB-ITCIACO          ITCP9702
         2255: 02255                            CIACO-DED-REM-1 OF ITCIACO             ITCP9702
         2256: 02256                            CIACO-DED-REM-2 OF CB-ITCIACO          ITCP9702
         2257: 02257                            CIACO-DED-REM-2 OF ITCIACO             ITCP9702
         2258: 02258                            CIACO-DED-REM-3 OF CB-ITCIACO          ITCP9702
         2259: 02259                            CIACO-DED-REM-3 OF ITCIACO             ITCP9702
         2260: 02260                            CIACO-REM-OOP-MAX OF CB-ITCIACO        ITCP9702
         2261: 02261                            CIACO-REM-OOP-MAX OF ITCIACO           ITCP9702
         2262: 02262                            CIACO-BCBS-PMT-AMT OF CB-ITCIACO       ITCP9702
         2263: 02263                            CIACO-BCBS-PMT-AMT OF ITCIACO          ITCP9702
         2264: 02264                            CIACO-SUB-LIAB OF CB-ITCIACO           ITCP9702
         2265: 02265                            CIACO-SUB-LIAB OF ITCIACO              ITCP9702
         2266: 02266                            CIACO-PAY-MAX-REM-CLM-1 OF CB-ITCIACO  ITCP9702
         2267: 02267                            CIACO-PAY-MAX-REM-CLM-1 OF ITCIACO     ITCP9702
         2268: 02268                            CIACO-PAY-MAX-REM-CLM-2 OF CB-ITCIACO  ITCP9702
         2269: 02269                            CIACO-PAY-MAX-REM-CLM-2 OF ITCIACO     ITCP9702
         2270: 02270                            CIACO-PAY-MAX-REM-CLM-3 OF CB-ITCIACO  ITCP9702
         2273: 02273      MOVE WS-CONSTANT-NO TO CIACO-CLM-ERR-MAX-IND OF CB-ITCIACO   ITCP9702
         2280: 02280                   CIACO-TBL-ENTRY-CNT OF CB-ITCIACO               ITCP9702
         2281: 02281                   CIACO-TBL-ENTRY-CNT OF ITCIACO                  ITCP9702
         2284: 02284              CIACO-TBL-ENTRY-CNT OF CB-ITCIACO                    ITCP9702
         2285: 02285              CIACO-TBL-ENTRY-CNT OF ITCIACO                       ITCP9702
         2288: 02288               CIACO-TBL-ENTRY-CNT OF CB-ITCIACO                   ITCP9702
         2448: 02448      MOVE CIACP-SCCF-SER-NUM OF WS-ITCIACP                        ITCP9702
         2449: 02449        TO CIACP-SCCF-SER-NUM OF ITCIACP                           ITCP9702
         2450: 02450      MOVE CIACP-FDB-INV-CD   OF WS-ITCIACP                        ITCP9702
         2451: 02451        TO CIACP-FDB-INV-CD   OF ITCIACP                           ITCP9702
         2452: 02452      MOVE CIACP-PRC-DATA-PRESENT-IND OF WS-ITCIACP                ITCP9702
         2453: 02453        TO CIACP-PRC-DATA-PRESENT-IND OF ITCIACP                   ITCP9702
         2454: 02454      MOVE CIACP-CLM-LVL-DATA OF WS-ITCIACP                        ITCP9702
         2455: 02455        TO CIACP-CLM-LVL-DATA OF ITCIACP                           ITCP9702
         2456: 02456      MOVE CIACP-COB-DATA-CLM OF WS-ITCIACP                        ITCP9702
         2457: 02457        TO CIACP-COB-DATA-CLM OF ITCIACP                           ITCP9702
         2458: 02458      MOVE CIACP-TBL-ENTRY-CNT OF WS-ITCIACP                       ITCP9702
         2461: 02461      IF CIACP-TBL-ENTRY-CNT OF WS-ITCIACP > ZERO                  ITCP9702
         2463: 02463           UNTIL WS-S1 GREATER CIACP-TBL-ENTRY-CNT OF WS-ITCIACP   ITCP9702
         2473: 02473      MOVE CIACO-SCCF-SER-NUM OF WS-ITCIACO                        ITCP9702
         2476: 02476 *****MOVE CIACO-CALC-RESULTS-CNTL-DATA OF WS-ITCIACO              ITCP9702
         2479: 02479      MOVE CIACO-CALC-RESULTS-CLM-LVL OF WS-ITCIACO                ITCP9702
         2481: 02481      MOVE CIACO-TBL-ENTRY-CNT OF WS-ITCIACO                       ITCP9702
         2484: 02484       UNTIL WS-S1 GREATER CIACO-TBL-ENTRY-CNT OF WS-ITCIACO       ITCP9702
0    ELEMENT   ITCP9704
          276: 00276      COPY ITCIACP                                                 ITCP9704
          279: 00279           == DEPENDING ON CIACP-TBL-ENTRY-CNT OF ITCIACP ==.      ITCP9704
          284: 00284      COPY ITCIACP                                                 ITCP9704
          287: 00287           == DEPENDING ON CIACP-TBL-ENTRY-CNT OF WS-ITCIACP ==.   ITCP9704
          297: 00297      COPY ITCIACO                                                 ITCP9704
          300: 00300           == DEPENDING ON CIACO-TBL-ENTRY-CNT OF ITCIACO ==.      ITCP9704
          320: 00320      COPY ITCIACO                                                 ITCP9704
          323: 00323           == DEPENDING ON CIACO-TBL-ENTRY-CNT OF WS-ITCIACO ==.   ITCP9704
          328: 00328      COPY ITCIACO                                                 ITCP9704
          331: 00331           == DEPENDING ON CIACO-TBL-ENTRY-CNT OF CB-ITCIACO ==.   ITCP9704
1         494: 00494                           ITCIACP                                 ITCP9704
          495: 00495                           WS-ITCIACP                              ITCP9704
          497: 00497                           ITCIACO                                 ITCP9704
          500: 00500                           ITCIARD                                 ITCP9704
          501: 00501                           WS-ITCIACO                              ITCP9704
          502: 00502                           CB-ITCIACO                              ITCP9704
          667: 00667          IF CIACP-INV-FDB OF ITCIACP                              ITCP9704
          735: 00735 *    INITIALIZE ITCIACP FIELDS                                    ITCP9704
          767: 00767          MOVE CIACP-SCCF-SER-NUM OF ITCIACP TO                    ITCP9704
         1064: 01064 *****COPY ITCIACO CLM STAT AND CLM RSN TO CIACOP                  ITCP9704
         1065: 01065 *****PUT CX002 IN WS-ITCIACO                                      ITCP9704
         1083: 01083 *****PUT CX002 IN WS-ITCIACO                                      ITCP9704
         1112: 01112      IF CIACO-CLM-STAT-CD OF ITCIACO = WS-UNABLE-TO-CALC          ITCP9704
         1254: 01254          UNTIL SUB > CIACO-TBL-ENTRY-CNT OF ITCIACO + 1.          ITCP9704
         1347: 01347      IF CIACP-PRC-MTD-CLM OF ITCIACP = WS-PM-01                   ITCP9704
         1353: 01353             CIACP-TBL-ENTRY-CNT OF ITCIACP                        ITCP9704
         1367: 01367      IF CIACP-PRC-MTD-CLM OF ITCIACP  = SPACES OR LOW-VALUES      ITCP9704
         1368: 01368          MOVE SPACES  TO CIACP-PRC-MTD-CLM OF ITCIACP             ITCP9704
         1369: 01369          MOVE SPACES  TO CIACP-RULE-NUM-PRIM-CLM OF ITCIACP       ITCP9704
         1409: 01409                  UNTIL SUB > CIACP-TBL-ENTRY-CNT OF ITCIACP       ITCP9704
         1429: 01429          MOVE WS-TWO TO CIACP-FDB-INV-CD OF ITCIACP               ITCP9704
         1439: 01439      MOVE     CIACP-PRC-MTD-LN OF ITCIACP (SUB) TO                ITCP9704
         1442: 01442      MOVE     CIACP-PCT-FCTR-LN-X OF ITCIACP (SUB) TO             ITCP9704
         1445: 01445      MOVE     CIACP-RULE-NUM-LN OF ITCIACP (SUB) TO               ITCP9704
         1449: 01449               CIACP-PRC-MTD-LN OF ITCIACP (SUB).                  ITCP9704
         1452: 01452               CIACP-PCT-FCTR-LN OF ITCIACP (SUB).                 ITCP9704
         1455: 01455               CIACP-RULE-NUM-LN-4-6 OF ITCIACP (SUB).             ITCP9704
         1457: 01457      MOVE     CIACP-SF-MSG-CDS-LN OF ITCIACP (SUB) TO             ITCP9704
         1472: 01472               CIACP-PRC-MTD-LN OF ITCIACP (SUB).                  ITCP9704
         1475: 01475               CIACP-PCT-FCTR-LN-X OF ITCIACP (SUB)                ITCP9704
         1478: 01478               CIACP-RULE-NUM-LN OF ITCIACP (SUB)                  ITCP9704
         1481: 01481               CIACP-SF-MSG-CDS-LN OF ITCIACP (SUB).               ITCP9704
         1488: 01488      IF CIACP-SF-MSG-CD-LN OF ITCIACP (SUB SUBM)                  ITCP9704
         1493: 01493               CIACP-SF-MSG-CD-LN OF ITCIACP (SUB SUBM)            ITCP9704
         1501: 01501      IF CIACP-PRC-MTD-LN OF ITCIACP (SUB) = SPACES                ITCP9704
         1512: 01512      MOVE CIACP-PRC-MTD-CLM OF ITCIACP                            ITCP9704
         1515: 01515      MOVE CIACP-PCT-FCTR-CLM-X OF ITCIACP                         ITCP9704
         1518: 01518      MOVE CIACP-RULE-NUM-PRIM-CLM OF ITCIACP                      ITCP9704
         1533: 01533      IF CIACP-SF-MSG-CD-LN OF ITCIACP (SUB SUBM)                  ITCP9704
         1538: 01538           TO  CIACP-SF-MSG-CD-LN OF ITCIACP (SUB SUBM)            ITCP9704
         1539: 01539         MOVE  CIACP-SPEC-PRC-COND-CD-CLM OF ITCIACP (SUBM)        ITCP9704
         1540: 01540               TO CIACP-SPEC-PRC-COND-CD-LN OF ITCIACP (SUB SUBM)  ITCP9704
         1541: 01541         MOVE  CIACP-SPEC-PRC-COND-PCT-CLM OF ITCIACP (SUBM)       ITCP9704
         1542: 01542               TO CIACP-SPEC-PRC-COND-PCT-LN OF ITCIACP (SUB SUBM) ITCP9704
         1552: 01552      MOVE     CIACP-SF-MSG-CDS-CLM OF ITCIACP  TO                 ITCP9704
         1563: 01563      IF CIACP-SF-MSG-CD-CLM OF ITCIACP (SUB)                      ITCP9704
         1566: 01566               CIACP-SF-MSG-CD-CLM OF ITCIACP (SUB).               ITCP9704
         1578: 01578      IF CIACO-CLM-ERR-MAX-IND OF WS-ITCIACO                       ITCP9704
         1697: 01697                                     ITCIACP                       ITCP9704
         1756: 01756                                     ITCIACP                       ITCP9704
         1757: 01757                                     ITCIACO                       ITCP9704
         1767: 01767                                     ITCIACP                       ITCP9704
         1780: 01780                                     ITCIACP                       ITCP9704
         1781: 01781                                     ITCIACO                       ITCP9704
         1793: 01793                                     ITCIACP                       ITCP9704
         1794: 01794                                     ITCIACO                       ITCP9704
         1795: 01795                                     WS-ITCIACO                    ITCP9704
         1796: 01796                                     CB-ITCIACO                    ITCP9704
         1983: 01983      MOVE CIACP-SCCF-SER-NUM OF ITCIACP                           ITCP9704
         1984: 01984        TO CIACP-SCCF-SER-NUM OF WS-ITCIACP                        ITCP9704
1        1985: 01985      MOVE CIACP-FDB-INV-CD   OF ITCIACP                           ITCP9704
         1986: 01986        TO CIACP-FDB-INV-CD   OF WS-ITCIACP                        ITCP9704
         1987: 01987      MOVE CIACP-PRC-DATA-PRESENT-IND OF ITCIACP                   ITCP9704
         1988: 01988        TO CIACP-PRC-DATA-PRESENT-IND OF WS-ITCIACP                ITCP9704
         1989: 01989      MOVE CIACP-CLM-LVL-DATA OF ITCIACP                           ITCP9704
         1990: 01990        TO CIACP-CLM-LVL-DATA OF WS-ITCIACP                        ITCP9704
         1991: 01991      MOVE CIACP-COB-DATA-CLM OF ITCIACP                           ITCP9704
         1992: 01992        TO CIACP-COB-DATA-CLM OF WS-ITCIACP                        ITCP9704
         1994: 01994      IF CIACP-TBL-ENTRY-CNT OF ITCIACP NUMERIC                    ITCP9704
         1995: 01995          IF CIACP-TBL-ENTRY-CNT OF ITCIACP NOT >                  ITCP9704
         1997: 01997              MOVE CIACP-TBL-ENTRY-CNT OF ITCIACP TO               ITCP9704
         1998: 01998                            CIACP-TBL-ENTRY-CNT OF WS-ITCIACP      ITCP9704
         2001: 02001                            CIACP-TBL-ENTRY-CNT OF WS-ITCIACP      ITCP9704
         2006: 02006      IF CIACP-TBL-ENTRY-CNT OF ITCIACP > ZERO                     ITCP9704
         2008: 02008           UNTIL WS-S1 GREATER CIACP-TBL-ENTRY-CNT OF ITCIACP      ITCP9704
         2034: 02034      MOVE ZEROES TO CIACO-CLM-STAT-CD OF ITCIACO                  ITCP9704
         2035: 02035                     CIACO-DED-REM-1 OF ITCIACO                    ITCP9704
         2036: 02036                     CIACO-DED-REM-2 OF ITCIACO                    ITCP9704
         2037: 02037                     CIACO-DED-REM-3 OF ITCIACO                    ITCP9704
         2038: 02038                     CIACO-REM-OOP-MAX OF ITCIACO                  ITCP9704
         2039: 02039                     CIACO-BCBS-PMT-AMT OF ITCIACO                 ITCP9704
         2040: 02040                     CIACO-SUB-LIAB OF ITCIACO                     ITCP9704
         2041: 02041                     CIACO-PAY-MAX-REM-CLM-1 OF ITCIACO            ITCP9704
         2042: 02042                     CIACO-PAY-MAX-REM-CLM-2 OF ITCIACO            ITCP9704
         2051: 02051              TO CIACO-TBL-ENTRY-CNT OF ITCIACO                    ITCP9704
         2054: 02054                   CIACO-TBL-ENTRY-CNT OF ITCIACO                  ITCP9704
0    ELEMENT   ITCP9706
          186: 00186                           ITCIACP                                 ITCP9706
0    ELEMENT   ITCP9708
           19: 00019 *   FUNCTION:     THIS MODULE EDITS AND BUILDS THE ITCIACO       *ITCP9708
          218: 00218      COPY ITCIACO                                                 ITCP9708
          221: 00221           == DEPENDING ON CIACO-TBL-ENTRY-CNT OF ITCIACO ==.      ITCP9708
          226: 00226      COPY ITCIACO                                                 ITCP9708
          229: 00229           == DEPENDING ON CIACO-TBL-ENTRY-CNT OF WS-ITCIACO ==.   ITCP9708
          234: 00234      COPY ITCIACO                                                 ITCP9708
          237: 00237           == DEPENDING ON CIACO-TBL-ENTRY-CNT OF CB-ITCIACO ==.   ITCP9708
          253: 00253                           ITCIACP                                 ITCP9708
          254: 00254                           ITCIACO                                 ITCP9708
          255: 00255                           WS-ITCIACO                              ITCP9708
          256: 00256                           CB-ITCIACO                              ITCP9708
          295: 00295      IF CIACO-SCCF-SER-NUM OF WS-ITCIACO IS EQUAL TO              ITCP9708
          296: 00296         CIACO-SCCF-SER-NUM OF ITCIACO                             ITCP9708
          297: 00297          MOVE CIACO-SCCF-SER-NUM OF WS-ITCIACO                    ITCP9708
          298: 00298            TO CIACO-SCCF-SER-NUM OF CB-ITCIACO                    ITCP9708
          303: 00303      IF CIACO-SUCCESSFUL OF WS-ITCIACO                            ITCP9708
          304: 00304        OR  CIACO-UNABLE-TO-CALC OF WS-ITCIACO                     ITCP9708
          305: 00305        OR  CIACO-CALC-WITH-EXCEPTION OF WS-ITCIACO                ITCP9708
          306: 00306        OR  CIACO-NO-CALC-REQ OF WS-ITCIACO                        ITCP9708
          307: 00307        OR  CIACO-SUB-LIAB-DIFF OF WS-ITCIACO                      ITCP9708
          308: 00308            MOVE CIACO-CLM-STAT-CD OF WS-ITCIACO                   ITCP9708
          309: 00309            TO CIACO-CLM-STAT-CD  OF CB-ITCIACO                    ITCP9708
          337: 00337              CIACO-CLM-ERR-MAX-IND OF CB-ITCIACO                  ITCP9708
          342: 00342      IF CIACO-CALC-TYPE-CD OF WS-ITCIACO IS EQUAL TO              ITCP9708
          343: 00343         CIACO-CALC-TYPE-CD OF ITCIACO                             ITCP9708
          344: 00344         MOVE CIACO-CALC-TYPE-CD OF WS-ITCIACO TO                  ITCP9708
          345: 00345              CIACO-CALC-TYPE-CD OF CB-ITCIACO                     ITCP9708
          350: 00350 ********MOVE CIACO-CALC-TYPE-CD OF ITCIACO TO                     ITCP9708
          355: 00355          CIACO-DED-REM-1 OF CB-ITCIACO                            ITCP9708
1         356: 00356          CIACO-DED-REM-2 OF CB-ITCIACO                            ITCP9708
          357: 00357          CIACO-DED-REM-3 OF CB-ITCIACO                            ITCP9708
          358: 00358          CIACO-REM-OOP-MAX OF CB-ITCIACO                          ITCP9708
          359: 00359          CIACO-PAY-MAX-REM-CLM-1 OF CB-ITCIACO                    ITCP9708
          360: 00360          CIACO-PAY-MAX-REM-CLM-2 OF CB-ITCIACO                    ITCP9708
          363: 00363      IF CIACO-BCBS-PMT-AMT OF WS-ITCIACO NUMERIC                  ITCP9708
          364: 00364         MOVE CIACO-BCBS-PMT-AMT OF WS-ITCIACO TO                  ITCP9708
          365: 00365              CIACO-BCBS-PMT-AMT OF CB-ITCIACO                     ITCP9708
          370: 00370      IF CIACO-SUB-LIAB OF WS-ITCIACO NUMERIC                      ITCP9708
          371: 00371         MOVE CIACO-SUB-LIAB OF WS-ITCIACO TO                      ITCP9708
          372: 00372              CIACO-SUB-LIAB OF CB-ITCIACO                         ITCP9708
          377: 00377      IF CIACO-TBL-ENTRY-CNT OF WS-ITCIACO NUMERIC                 ITCP9708
          405: 00405      IF CIACO-BCBS-PMT-AMT OF WS-ITCIACO IS NOT EQUAL TO          ITCP9708
          410: 00410      IF CIACO-SUB-LIAB OF WS-ITCIACO IS NOT EQUAL TO              ITCP9708
          425: 00425      IF CIACO-TBL-ENTRY-CNT OF WS-ITCIACO EQUAL                   ITCP9708
          426: 00426         CIACO-TBL-ENTRY-CNT OF ITCIACO                            ITCP9708
          427: 00427            MOVE CIACO-TBL-ENTRY-CNT OF WS-ITCIACO                 ITCP9708
          428: 00428            TO CIACO-TBL-ENTRY-CNT OF CB-ITCIACO                   ITCP9708
          432: 00432 ***********CIACO-TBL-ENTRY-CNT OF WS-ITCIACO + WS-1               ITCP9708
          434: 00434 ***********CIACO-TBL-ENTRY-CNT OF ITCIACO                         ITCP9708
          435: 00435 *************MOVE CIACO-TBL-ENTRY-CNT OF ITCIACO                  ITCP9708
          436: 00436 *************TO CIACO-TBL-ENTRY-CNT OF CB-ITCIACO                 ITCP9708
          739: 00739      IF CIACO-INCLUSIVE-TYPE-CALC OF ITCIACO                      ITCP9708
          746: 00746      IF CIACO-TBL-ENTRY-CNT OF ITCIACO NOT =                      ITCP9708
          747: 00747         CIACO-TBL-ENTRY-CNT OF WS-ITCIACO                         ITCP9708
          759: 00759      MOVE CIACO-TBL-ENTRY-CNT OF ITCIACO TO NPLUS1-SUB.           ITCP9708
0    ELEMENT   ITCP9710
           20: 00020 *                 PASSED ITCIACO AND INTERNAL ITCIACO            *ITCP9710
          139: 00139                           CB-ITCIACO                              ITCP9710
0    ELEMENT   ITCP9712
          192: 00192      COPY ITCIACP                                                 ITCP9712
          195: 00195           == DEPENDING ON CIACP-TBL-ENTRY-CNT OF ITCIACP ==.      ITCP9712
          206: 00206      COPY ITCIACO                                                 ITCP9712
          209: 00209           == DEPENDING ON CIACO-TBL-ENTRY-CNT OF WS-ITCIACO ==.   ITCP9712
          214: 00214      COPY ITCIACO                                                 ITCP9712
          217: 00217           == DEPENDING ON CIACO-TBL-ENTRY-CNT OF CB-ITCIACO ==.   ITCP9712
          395: 00395                           ITCIACP                                 ITCP9712
          397: 00397                           WS-ITCIACO                              ITCP9712
          398: 00398                           CB-ITCIACO                              ITCP9712
          399: 00399                           ITCIARD                                 ITCP9712
          796: 00796      IF CIACO-CLM-ERR-MAX-IND OF CB-ITCIACO NOT = WS-CONSTANT-YES ITCP9712
          809: 00809          OR CIACO-CLM-RSN-CD OF CB-ITCIACO (ERR-SUB1) = SPACES.   ITCP9712
          849: 00849                                     ITCIACP                       ITCP9712
          852: 00852                                     CB-ITCIACO                    ITCP9712
          853: 00853                                     ITCIARD                       ITCP9712
          867: 00867                                     ITCIACP                       ITCP9712
          868: 00868                                     WS-ITCIACO                    ITCP9712
          911: 00911                                     CB-ITCIACO                    ITCP9712
0    ELEMENT   ITCP9714
          680: 00680                           ITCIACP                                 ITCP9714
          683: 00683                           CB-ITCIACO                              ITCP9714
          684: 00684                           ITCIARD                                 ITCP9714
         2399: 02399                                    ITCIACP                        ITCP9714
         2402: 02402                                    CB-ITCIACO                     ITCP9714
0    ELEMENT   ITCP9716
          422: 00422                           ITCIACP                                 ITCP9716
1         425: 00425                           CB-ITCIACO                              ITCP9716
0    ELEMENT   ITCP9718
          192: 00192      COPY ITCIACO                                                 ITCP9718
          195: 00195           == DEPENDING ON CIACO-TBL-ENTRY-CNT OF ITCIACO ==.      ITCP9718
          220: 00220      COPY ITCIACO                                                 ITCP9718
          223: 00223           == DEPENDING ON CIACO-TBL-ENTRY-CNT OF WS-ITCIACO ==.   ITCP9718
          407: 00407                           ITCIACP                                 ITCP9718
          408: 00408                           WS-ITCIACO                              ITCP9718
          902: 00902      IF CIACO-CLM-ERR-MAX-IND OF WS-ITCIACO NOT = WS-CONSTANT-YES ITCP9718
         1020: 01020                                     ITCIACP                       ITCP9718
         1032: 01032                                     ITCIACP                       ITCP9718
         1033: 01033                                     ITCIACO                       ITCP9718
         1082: 01082                                     ITCIACP                       ITCP9718
         1084: 01084                                     ITCIACO                       ITCP9718
0    ELEMENT   ITCP9720
           19: 00019 *   FUNCTION:     THIS MODULE REBUILDS ITCIACI AND ITCIACP TO    *ITCP9720
          222: 00222                           ITCIACP                                 ITCP9720
0    ELEMENT   ITCP9722
          183: 00183                           ITCIACP                                 ITCP9722
          185: 00185                           ITCIACO                                 ITCP9722
          229: 00229 ***** UNTIL WS-S1 GREATER CIACO-TBL-ENTRY-CNT OF ITCIACO          ITCP9722
0    ELEMENT   ITCP9724
          149: 00149                           CB-ITCIACO                              ITCP9724
0    ELEMENT   ITCP9726
           12: 00012 *   NAME:         UPF COB ITCIACO AND ITCIACOP CROSS REFERENCE   *ITCP9726
           19: 00019 *   FUNCTION:     THIS MODULE SETS THE ITCIACO STATUS AND REASON *ITCP9726
          191: 00191                           ITCIACO                                 ITCP9726
          235: 00235          PERFORM B200-SET-FROM-ITCIACO                            ITCP9726
          242: 00242          PERFORM B200-SET-FROM-ITCIACO                            ITCP9726
          259: 00259          PERFORM B200-SET-FROM-ITCIACO                            ITCP9726
          264: 00264          PERFORM B200-SET-FROM-ITCIACO                            ITCP9726
0    ELEMENT   ITCP9800
          529: 00529 *01  ITCWSMCD-RECORD.                                             ITCP9800
          530: 00530 *     COPY ITCWSMCD.                                              ITCP9800
0    ELEMENT   IUCP1002
          252: 00252  01  IUCIAAJR.                                                    IUCP1002
          254: 00254      COPY IUCIAAJR.                                               IUCP1002
         1716: 01716                                     IUCIAAJR                      IUCP1002
         1719: 01719                                     ITCIACP                       IUCP1002
0    ELEMENT   IUCP1004
           57: 00057 *                                 IUCP9356 TO BUILD ITCIACP AND  *IUCP1004
          606: 00606  01  IUCIAAJR.                                                    IUCP1004
          610: 00610      COPY IUCIAAJR.                                               IUCP1004
          694: 00694 *                      ITCIACP    -    4298                *      IUCP1004
          695: 00695 *                      IUCIAAJR   -    3718                *      IUCP1004
         5689: 05689                              ITCIACP                              IUCP1004
         5690: 05690                              IUCIAAJR                             IUCP1004
         5706: 05706                              ITCIACP                              IUCP1004
         5707: 05707                              IUCIAAJR                             IUCP1004
         5743: 05743                              ITCIACP                              IUCP1004
         5744: 05744                              IUCIAAJR                             IUCP1004
         5776: 05776                              ITCIACP                              IUCP1004
1        5777: 05777                              IUCIAAJR                             IUCP1004
         5791: 05791                              ITCIACP                              IUCP1004
         5792: 05792                              IUCIAAJR                             IUCP1004
         5834: 05834                                     ITCIACP                       IUCP1004
         5835: 05835                                     IUCIAAJR                      IUCP1004
         5856: 05856                                     ITCIACP                       IUCP1004
         5857: 05857                                     IUCIAAJR                      IUCP1004
         5869: 05869                                     ITCIACP                       IUCP1004
         5870: 05870                                     IUCIAAJR                      IUCP1004
         5894: 05894                                     IUCIAAJR                      IUCP1004
         5897: 05897                                     ITCIACP                       IUCP1004
0    ELEMENT   IUCP1008
           26: 00026 *                                 PROCESS DATA ON IUCIAAJR       *IUCP1008
          494: 00494  01  IUCIAAJR.                                                    IUCP1008
          496: 00496      03  IUCIAAJR-NO-LENGTH.                                      IUCP1008
          497: 00497      COPY IUCIAAJR.                                               IUCP1008
         3541: 03541                            ITCIACP                                IUCP1008
         3542: 03542                            IUCIAAJR                               IUCP1008
         3560: 03560                              ITCIACP                              IUCP1008
         3561: 03561                              IUCIAAJR                             IUCP1008
         3623: 03623                            ITCIACP                                IUCP1008
         3624: 03624                            IUCIAAJR                               IUCP1008
         3664: 03664                              ITCIACP                              IUCP1008
         3665: 03665                              IUCIAAJR                             IUCP1008
         3682: 03682                                     ITCIACP                       IUCP1008
         3683: 03683                                     IUCIAAJR                      IUCP1008
         3697: 03697                                     ITCIACO                       IUCP1008
         3700: 03700                                     IUCIAAJR.                     IUCP1008
         3711: 03711                                     ITCIACO                       IUCP1008
         3714: 03714                                     IUCIAAJR.                     IUCP1008
         3726: 03726                                    IUCIAAJR-NO-LENGTH             IUCP1008
         3775: 03775                              ITCIACP                              IUCP1008
         3776: 03776                              IUCIAAJR                             IUCP1008
0    ELEMENT   IUCP1102
           99: 00099 *                                 WHEN THE IUCIAAJR IS READ AND  *IUCP1102
          159: 00159      05  WS-DB-IUCDB100              PIC X(08)  VALUE 'IUCDB100'. IUCP1102
          268: 00268      05  WS-IUCIAAJR-LENGTH     COMP PIC S9(04) VALUE +0.         IUCP1102
          364: 00364      COPY IUCDB1CP.                                               IUCP1102
          392: 00392  01  IUCIAAJR.                                                    IUCP1102
          394: 00394          COPY IUCIAAJR.                                           IUCP1102
         1116: 01116                                   ITCIACP                         IUCP1102
         1117: 01117                                   IUCIAAJR                        IUCP1102
         1491: 01491      COMPUTE  WS-IUCIAAJR-LENGTH = CIAAJR-LENGTH        +         IUCP1102
         1494: 01494      MOVE     WS-IUCIAAJR-LENGTH    TO   WS-REC-LEN.              IUCP1102
         1624: 01624                            ITCIACP                                IUCP1102
         1625: 01625                            IUCIAAJR                               IUCP1102
         1976: 01976         DATASET   (WS-DB-IUCDB100)                                IUCP1102
         1986: 01986                     DATASET  (WS-DB-IUCDB100)                     IUCP1102
         1999: 01999                    DATASET  (WS-DB-IUCDB100)                      IUCP1102
         2013: 02013                     DATASET   (WS-DB-IUCDB100)                    IUCP1102
         2030: 02030                   DATASET  (WS-DB-IUCDB100)                       IUCP1102
         2043: 02043                   DATASET  (WS-DB-IUCDB100)                       IUCP1102
         2058: 02058           ENDBR   DATASET  (WS-DB-IUCDB100)                       IUCP1102
         2069: 02069         DATASET   (WS-DB-IUCDB100)                                IUCP1102
         2094: 02094                   DATASET   (WS-DB-IUCDB100)                      IUCP1102
         2109: 02109                   DATASET  (WS-DB-IUCDB100)                       IUCP1102
         2135: 02135                    DATASET  (WS-DB-IUCDB100)                      IUCP1102
         2165: 02165                     DATASET   (WS-DB-IUCDB100)                    IUCP1102
1        2180: 02180                     DATASET   (WS-DB-IUCDB100)                    IUCP1102
         2199: 02199         DATASET   (WS-DB-IUCDB100)                                IUCP1102
         2225: 02225                     WS-IUCIAAJR-LENGTH                            IUCP1102
         2362: 02362      MOVE CWSMC-IUCDB100-FILE-ERROR   TO SIAPC-RETURN-MESSAGE-CD. IUCP1102
         2376: 02376      MOVE CWSMC-IUCDB100-FILE-ERROR   TO SIAPC-RETURN-MESSAGE-CD. IUCP1102
0    ELEMENT   IUCP1108
          281: 00281  01  IUCIAAJR-AREA.                                               IUCP1108
          282: 00282      03  IUCIAAJR-LENGTH              PIC S9(4) COMP.             IUCP1108
          283: 00283      03  IUCIAAJR.                                                IUCP1108
          284: 00284      COPY IUCIAAJR.                                               IUCP1108
          597: 00597                              IUCIAAJR-AREA                        IUCP1108
          616: 00616                              IUCIAAJR-AREA                        IUCP1108
          632: 00632                                    ITCIACP                        IUCP1108
          633: 00633                                    IUCIAAJR                       IUCP1108
          635: 00635                                    ITCIACO                        IUCP1108
0    ELEMENT   IUCP1122
          219: 00219  01  IUCIAAJR.                                                    IUCP1122
          220: 00220      COPY IUCIAAJR.                                               IUCP1122
          285: 00285                           IUCIAAJR                                IUCP1122
0    ELEMENT   IUCP1124
          166: 00166  01  WS-IUCIAAJR.                                                 IUCP1124
          171: 00171      COPY IUCIAAJR                                                IUCP1124
          209: 00209      COPY ITCIACP                                                 IUCP1124
          237: 00237      COPY ITCIACO                                                 IUCP1124
          278: 00278  01  IUCIAAJR.                                                    IUCP1124
          279: 00279      COPY IUCIAAJR.                                               IUCP1124
          320: 00320                           IUCIAAJR                                IUCP1124
          324: 00324                           ITCIACP                                 IUCP1124
          327: 00327                           ITCIACO                                 IUCP1124
          374: 00374      IF  CIAAJR-FORCED-ERR-NA OF IUCIAAJR                         IUCP1124
          382: 00382      IF CIAAJR-COB OF IUCIAAJR                                    IUCP1124
          401: 00401      MOVE CIAAJR-SCCF-SER-NUM OF IUCIAAJR TO WS-SCCF-KEY-17.      IUCP1124
          420: 00420      MOVE CIAAJR-SCCF-SER-NUM OF IUCIAAJR TO WS-SCCF-KEY-17.      IUCP1124
          465: 00465      IF CIAAJR-TBL-ENTRY-CNT OF IUCIAAJR NUMERIC                  IUCP1124
          466: 00466          IF CIAAJR-TBL-ENTRY-CNT OF IUCIAAJR NOT GREATER WS-23    IUCP1124
          470: 00470                                     OF IUCIAAJR                   IUCP1124
          473: 00473                                     OF IUCIAAJR.                  IUCP1124
          476: 00476           CIAAJR-SCCF-SER-NUM OF IUCIAAJR.                        IUCP1124
          478: 00478      MOVE CIAAJR-DATA OF IUCIAAJR TO                              IUCP1124
          479: 00479           CIAAJR-DATA OF WS-IUCIAAJR.                             IUCP1124
          481: 00481      MOVE CIAAJR-TBL-ENTRY-CNT OF IUCIAAJR TO                     IUCP1124
          483: 00483        WS-CIAAJR-TBL-ENTRY-CNT OF WS-IUCIAAJR.                    IUCP1124
          487: 00487              UNTIL AJX > CIAAJR-TBL-ENTRY-CNT OF IUCIAAJR.        IUCP1124
          492: 00492              CIAAJR-TBL-ENTRY-CNT OF IUCIAAJR) + 20.              IUCP1124
          602: 00602      IF CIACP-TBL-ENTRY-CNT OF ITCIACP NUMERIC                    IUCP1124
          603: 00603          IF CIACP-TBL-ENTRY-CNT OF ITCIACP NOT GREATER WS-23      IUCP1124
          607: 00607                                  OF ITCIACP                       IUCP1124
          612: 00612      MOVE CIACP-PRICING-DATA OF ITCIACP TO                        IUCP1124
          615: 00615      MOVE CIACP-TBL-ENTRY-CNT OF ITCIACP TO                       IUCP1124
          670: 00670      IF CIACO-TBL-ENTRY-CNT OF ITCIACO NUMERIC                    IUCP1124
          671: 00671          IF CIACO-TBL-ENTRY-CNT OF ITCIACO NOT GREATER WS-24      IUCP1124
          675: 00675                                  OF ITCIACO                       IUCP1124
          680: 00680      MOVE CIACO-CALC-RESULTS OF ITCIACO TO                        IUCP1124
          683: 00683      IF CIAAJR-PAY-OVR-APPLIED OF IUCIAAJR                        IUCP1124
          684: 00684          SUBTRACT WS-ONE  FROM  CIACO-TBL-ENTRY-CNT OF ITCIACO    IUCP1124
          687: 00687      MOVE CIACO-TBL-ENTRY-CNT OF ITCIACO TO                       IUCP1124
          861: 00861      MOVE CIAAJR-PAY-OVR-LN-ITEM OF IUCIAAJR (AJX) TO             IUCP1124
1         862: 00862           CIAAJR-PAY-OVR-LN-ITEM OF WS-IUCIAAJR (AJX).            IUCP1124
          894: 00894      MOVE CIACP-LN-ITEM-ENTRY OF ITCIACP (CPX) TO                 IUCP1124
          895: 00895           CIACP-LN-ITEM-ENTRY OF WS-ITCIACP (CPX).                IUCP1124
          905: 00905      MOVE CIACO-CALC-RESULTS-LN-ITEM OF ITCIACO (COX) TO          IUCP1124
          906: 00906           CIACO-CALC-RESULTS-LN-ITEM OF WS-ITCIACO (COX).         IUCP1124
         1012: 01012      EXEC CICS STARTBR FILE      (CWSNM-IUCDBF00-NAME)            IUCP1124
         1029: 01029      EXEC CICS READNEXT FILE      (CWSNM-IUCDBF00-NAME)           IUCP1124
         1046: 01046                DATASET  (CWSNM-IUCDBF00-NAME)                     IUCP1124
         1059: 01059      EXEC CICS WRITE FILE      (CWSNM-IUCDBF00-NAME)              IUCP1124
         1060: 01060                      FROM      (WS-IUCIAAJR)                      IUCP1124
         1076: 01076      EXEC CICS WRITE FILE      (CWSNM-IUCDBF00-NAME)              IUCP1124
         1093: 01093      EXEC CICS WRITE FILE      (CWSNM-IUCDBF00-NAME)              IUCP1124
         1110: 01110      EXEC CICS WRITE FILE      (CWSNM-IUCDBF00-NAME)              IUCP1124
         1127: 01127      EXEC CICS WRITE FILE      (CWSNM-IUCDBF00-NAME)              IUCP1124
         1144: 01144      EXEC CICS WRITE FILE      (CWSNM-IUCDBF00-NAME)              IUCP1124
         1161: 01161      EXEC CICS WRITE FILE      (CWSNM-IUCDBF00-NAME)              IUCP1124
         1178: 01178      EXEC CICS WRITE FILE      (CWSNM-IUCDBF00-NAME)              IUCP1124
         1195: 01195      EXEC CICS WRITE FILE      (CWSNM-IUCDBF00-NAME)              IUCP1124
         1212: 01212      EXEC CICS DELETE   FILE      (CWSNM-IUCDBF00-NAME)           IUCP1124
0    ELEMENT   IUCP2002
          197: 00197      COPY IUCDB100.                                               IUCP2002
          211: 00211  01  IUCIAAJR.                                                    IUCP2002
          212: 00212      COPY IUCIAAJR.                                               IUCP2002
          725: 00725                                 ITCIACP                           IUCP2002
          726: 00726                                 IUCIAAJR                          IUCP2002
          728: 00728                                 ITCIACO                           IUCP2002
0    ELEMENT   IUCP2004
           89: 00089               ASSIGN         TO    DA-IUCDB100                    IUCP2004
          124: 00124      COPY IUCBT1CP.                                               IUCP2004
          154: 00154      COPY IUCDB100.                                               IUCP2004
          455: 00455      COPY IUCIAAJR.                                               IUCP2004
0    ELEMENT   IUCP2024
           51: 00051             ASSIGN                  TO    IUCDBF00                IUCP2024
           78: 00078      COPY IUCDBF00.                                               IUCP2024
          123: 00123  01  IUCIAAJR.                                                    IUCP2024
          125: 00125      COPY IUCIAAJR.                                               IUCP2024
          250: 00250              PERFORM B100-WRITE-IUCIAAJR THRU B100-EXIT           IUCP2024
          262: 00262              PERFORM B140-WRITE-ITCIACP  THRU B140-EXIT           IUCP2024
          271: 00271              PERFORM B170-WRITE-ITCIACO  THRU B170-EXIT           IUCP2024
          286: 00286  B100-WRITE-IUCIAAJR.                                             IUCP2024
          289: 00289      MOVE LOW-VALUES           TO IUCIAAJR.                       IUCP2024
          309: 00309      PERFORM T100-WRITE-IUCIAAJR THRU T100-EXIT.                  IUCP2024
          418: 00418      PERFORM T140-WRITE-ITCIACP  THRU T140-EXIT.                  IUCP2024
          490: 00490      PERFORM T170-WRITE-ITCIACO  THRU T170-EXIT.                  IUCP2024
          644: 00644  T100-WRITE-IUCIAAJR.                                             IUCP2024
          648: 00648          FROM IUCIAAJR.                                           IUCP2024
0    ELEMENT   IUCP2122
          204: 00204          '*** DF ALREADY ON IUCDBF00 DF DATA BASE      '.         IUCP2122
          228: 00228  01  IUCIAAJR.                                                    IUCP2122
          229: 00229      COPY IUCIAAJR.                                               IUCP2122
          249: 00249                           IUCIAAJR                                IUCP2122
0    ELEMENT   IUCP2124
           52: 00052             ASSIGN                  TO    IUCDBF00                IUCP2124
          196: 00196  01  WS-IUCIAAJR.                                                 IUCP2124
          201: 00201      COPY IUCIAAJR                                                IUCP2124
1         239: 00239      COPY ITCIACP                                                 IUCP2124
          267: 00267      COPY ITCIACO                                                 IUCP2124
          298: 00298  01  IUCIAAJR.                                                    IUCP2124
          299: 00299      COPY IUCIAAJR.                                               IUCP2124
          340: 00340                           IUCIAAJR                                IUCP2124
          344: 00344                           ITCIACP                                 IUCP2124
          347: 00347                           ITCIACO                                 IUCP2124
          413: 00413      IF  CIAAJR-FORCED-ERR-NA OF IUCIAAJR                         IUCP2124
          421: 00421      IF CIAAJR-COB OF IUCIAAJR                                    IUCP2124
          444: 00444      MOVE CIAAJR-SCCF-SER-NUM OF IUCIAAJR TO WS-SCCF-KEY-15.      IUCP2124
          496: 00496      MOVE CIAAJR-SCCF-SER-NUM OF IUCIAAJR TO WS-SCCF-KEY-15.      IUCP2124
          543: 00543      IF CIAAJR-TBL-ENTRY-CNT OF IUCIAAJR NUMERIC                  IUCP2124
          544: 00544          IF CIAAJR-TBL-ENTRY-CNT OF IUCIAAJR NOT GREATER WS-23    IUCP2124
          548: 00548                                     OF IUCIAAJR                   IUCP2124
          551: 00551                                     OF IUCIAAJR.                  IUCP2124
          554: 00554           CIAAJR-SCCF-SER-NUM OF IUCIAAJR.                        IUCP2124
          556: 00556      MOVE CIAAJR-DATA OF IUCIAAJR TO                              IUCP2124
          557: 00557           CIAAJR-DATA OF WS-IUCIAAJR.                             IUCP2124
          559: 00559      MOVE CIAAJR-TBL-ENTRY-CNT OF IUCIAAJR TO                     IUCP2124
          561: 00561        WS-CIAAJR-TBL-ENTRY-CNT OF WS-IUCIAAJR.                    IUCP2124
          565: 00565              UNTIL AJX > CIAAJR-TBL-ENTRY-CNT OF IUCIAAJR.        IUCP2124
          570: 00570              CIAAJR-TBL-ENTRY-CNT OF IUCIAAJR) + 3.               IUCP2124
          686: 00686      IF CIACP-TBL-ENTRY-CNT OF ITCIACP NUMERIC                    IUCP2124
          687: 00687          IF CIACP-TBL-ENTRY-CNT OF ITCIACP NOT GREATER WS-23      IUCP2124
          691: 00691                                  OF ITCIACP                       IUCP2124
          696: 00696      MOVE CIACP-PRICING-DATA OF ITCIACP TO                        IUCP2124
          699: 00699      MOVE CIACP-TBL-ENTRY-CNT OF ITCIACP TO                       IUCP2124
          756: 00756      IF CIACO-TBL-ENTRY-CNT OF ITCIACO NUMERIC                    IUCP2124
          757: 00757          IF CIACO-TBL-ENTRY-CNT OF ITCIACO NOT GREATER WS-24      IUCP2124
          761: 00761                                  OF ITCIACO                       IUCP2124
          766: 00766      MOVE CIACO-CALC-RESULTS OF ITCIACO TO                        IUCP2124
          769: 00769      IF CIAAJR-PAY-OVR-APPLIED OF IUCIAAJR                        IUCP2124
          770: 00770          SUBTRACT WS-ONE  FROM  CIACO-TBL-ENTRY-CNT OF ITCIACO    IUCP2124
          773: 00773      MOVE CIACO-TBL-ENTRY-CNT OF ITCIACO TO                       IUCP2124
          899: 00899      IF CIAAJR-PAY-OVR-APPLIED OF IUCIAAJR                        IUCP2124
          958: 00958      MOVE CIAAJR-PAY-OVR-LN-ITEM OF IUCIAAJR (AJX) TO             IUCP2124
          959: 00959           CIAAJR-PAY-OVR-LN-ITEM OF WS-IUCIAAJR (AJX).            IUCP2124
          991: 00991      MOVE CIACP-LN-ITEM-ENTRY OF ITCIACP (CPX) TO                 IUCP2124
          992: 00992           CIACP-LN-ITEM-ENTRY OF WS-ITCIACP (CPX).                IUCP2124
         1002: 01002      MOVE CIACO-CALC-RESULTS-LN-ITEM OF ITCIACO (COX) TO          IUCP2124
         1003: 01003           CIACO-CALC-RESULTS-LN-ITEM OF WS-ITCIACO (COX).         IUCP2124
         1092: 01092            FROM WS-IUCIAAJR.                                      IUCP2124
0    ELEMENT   IUCP3102
           85: 00085  01  IUCIAAJR.                                                    IUCP3102
           86: 00086      COPY IUCIAAJR.                                               IUCP3102
          101: 00101                           ITCIACP                                 IUCP3102
          103: 00103                           ITCIACO                                 IUCP3102
          105: 00105                           IUCIAAJR                                IUCP3102
0    ELEMENT   IUCP3104
           96: 00096  01  IUCIAAJR.                                                    IUCP3104
           97: 00097      COPY IUCIAAJR.                                               IUCP3104
          118: 00118                           ITCIACP                                 IUCP3104
          120: 00120                           ITCIACO                                 IUCP3104
          126: 00126                           IUCIAAJR                                IUCP3104
0    ELEMENT   IUCP3106
           27: 00027 *                                - ADDED ITCIACI AND IUCIAAJR    *IUCP3106
           30: 00030 *                                - ADDED IUCIAAJR TO USING       *IUCP3106
1         120: 00120  01  IUCIAAJR.                                                    IUCP3106
          122: 00122      COPY IUCIAAJR.                                               IUCP3106
          146: 00146                           IUCIAAJR                                IUCP3106
0    ELEMENT   IUCP3108
           98: 00098  01  IUCIAAJR.                                                    IUCP3108
           99: 00099      COPY IUCIAAJR.                                               IUCP3108
          213: 00213                           ITCIACP                                 IUCP3108
          215: 00215                           ITCIACO                                 IUCP3108
          221: 00221                           IUCIAAJR                                IUCP3108
0    ELEMENT   IUCP3110
           80: 00080  01  IUCIAAJR.                                                    IUCP3110
           82: 00082      COPY IUCIAAJR.                                               IUCP3110
          102: 00102                           ITCIACP                                 IUCP3110
          103: 00103                           IUCIAAJR                                IUCP3110
0    ELEMENT   IUCP3112
           81: 00081  01  IUCIAAJR.                                                    IUCP3112
           83: 00083      COPY IUCIAAJR.                                               IUCP3112
          100: 00100                           ITCIACP                                 IUCP3112
          101: 00101                           IUCIAAJR                                IUCP3112
0    ELEMENT   IUCP3114
           99: 00099  01  IUCIAAJR.                                                    IUCP3114
          100: 00100      COPY IUCIAAJR.                                               IUCP3114
          116: 00116                           ITCIACO                                 IUCP3114
          118: 00118                           ITCIACP                                 IUCP3114
          123: 00123                           IUCIAAJR                                IUCP3114
0    ELEMENT   IUCP9002
          116: 00116      SELECT  IUCDBF00-IN-FILE       ASSIGN TO UT-S-IUCDBF00.      IUCP9002
          122: 00122  FD  IUCDBF00-IN-FILE.                                            IUCP9002
          124: 00124  01  IUCDBF00-IN-RECORD.                                          IUCP9002
          125: 00125      COPY IUCDBF00.                                               IUCP9002
         1287: 01287  01  IUCIAAJR.                                                    IUCP9002
         1288: 01288      COPY IUCIAAJR.                                               IUCP9002
         1373: 01373      OPEN INPUT  IUCDBF00-IN-FILE.                                IUCP9002
         1381: 01381      READ IUCDBF00-IN-FILE                                        IUCP9002
         1400: 01400      CLOSE IUCDBF00-IN-FILE                                       IUCP9002
0    ELEMENT   IUCP9038
           54: 00054      SELECT IUCDBF00-IN-FILE        ASSIGN TO UT-S-IUCDBF00.      IUCP9038
           61: 00061  FD  IUCDBF00-IN-FILE                                             IUCP9038
           64: 00064  01  IUCDBF00-IN-RECORD.                                          IUCP9038
           65: 00065      COPY IUCDBF00.                                               IUCP9038
         3954: 03954      OPEN INPUT  IUCDBF00-IN-FILE.                                IUCP9038
         3990: 03990      READ IUCDBF00-IN-FILE                                        IUCP9038
         7775: 07775      CLOSE IUCDBF00-IN-FILE                                       IUCP9038
0    ELEMENT   IUCP9102
          172: 00172 *                                 TO SAVE ITCIACO AND RESTORE IT *IUCP9102
          200: 00200 *                                 ITCIACO DUE TO RENAME OF       *IUCP9102
          475: 00475  01  IUCIAAJR.                                                    IUCP9102
          476: 00476      COPY IUCIAAJR.                                               IUCP9102
          606: 00606                           ITCIACP                                 IUCP9102
          607: 00607                           IUCIAAJR                                IUCP9102
          609: 00609                           ITCIACO                                 IUCP9102
         1118: 01118      IF CIACO-TBL-ENTRY-CNT OF ITCIACO NOT NUMERIC                IUCP9102
         1222: 01222      IF CIACO-TBL-ENTRY-CNT OF ITCIACO NOT NUMERIC                IUCP9102
1        1388: 01388      IF CIACO-TBL-ENTRY-CNT OF ITCIACO NOT NUMERIC                IUCP9102
         1426: 01426                                     ITCIACP                       IUCP9102
         1428: 01428                                     ITCIACO                       IUCP9102
         1433: 01433                                     ITCIARD                       IUCP9102
         1443: 01443                                     IUCIAAJR                      IUCP9102
         1492: 01492                                     ITCIACP                       IUCP9102
         1493: 01493                                     IUCIAAJR                      IUCP9102
         1495: 01495                                     ITCIACO                       IUCP9102
         1540: 01540                                     ITCIACP                       IUCP9102
         1541: 01541                                     IUCIAAJR                      IUCP9102
         1543: 01543                                     ITCIACO                       IUCP9102
0    ELEMENT   IUCP9104
           40: 00040 *                                 TO INITIALIZE ITCIARD AREA.    *IUCP9104
           50: 00050 *                                 ADDED IUCWSEC COPYMEMBER       *IUCP9104
          146: 00146      COPY ITCIACO                                                 IUCP9104
          284: 00284  01  IUCIAAJR.                                                    IUCP9104
          285: 00285      COPY IUCIAAJR.                                               IUCP9104
          308: 00308                           IUCIAAJR                                IUCP9104
          310: 00310                           ITCIACP                                 IUCP9104
          312: 00312                           ITCIACO                                 IUCP9104
         1023: 01023                                      ITCIACP                      IUCP9104
         1024: 01024                                      WS-ITCIACO                   IUCP9104
0    ELEMENT   IUCP9106
          106: 00106  01  IUCIAAJR.                                                    IUCP9106
          107: 00107      COPY IUCIAAJR.                                               IUCP9106
          119: 00119                           IUCIAAJR                                IUCP9106
0    ELEMENT   IUCP9110
           75: 00075  01  IUCIAAJR.                                                    IUCP9110
           76: 00076      COPY IUCIAAJR.                                               IUCP9110
           89: 00089                           IUCIAAJR                                IUCP9110
0    ELEMENT   IUCP9112
           68: 00068 *                                 ITCIACO BEFORE INVOKING        *IUCP9112
          310: 00310      COPY ITCIACO                                                 IUCP9112
          460: 00460  01  IUCIAAJR.                                                    IUCP9112
          461: 00461      COPY IUCIAAJR.                                               IUCP9112
          479: 00479                           ITCIACP                                 IUCP9112
          481: 00481                           ITCIACO                                 IUCP9112
          484: 00484                           ITCIARD                                 IUCP9112
          485: 00485                           IUCIAAJR                                IUCP9112
         1827: 01827                                      ITCIACP                      IUCP9112
         1828: 01828                                      WS-ITCIACO                   IUCP9112
0    ELEMENT   IUCP9116
          194: 00194  01  IUCIAAJR.                                                    IUCP9116
          195: 00195      COPY IUCIAAJR.                                               IUCP9116
          312: 00312                           ITCIACP                                 IUCP9116
          314: 00314                           ITCIACO                                 IUCP9116
          323: 00323                           IUCIAAJR                                IUCP9116
         1125: 01125                       BY REFERENCE  ITCIACP                       IUCP9116
         1127: 01127                       BY REFERENCE  ITCIACO                       IUCP9116
         1133: 01133                       BY REFERENCE  IUCIAAJR                      IUCP9116
         1146: 01146                       BY REFERENCE  ITCIACP                       IUCP9116
         1148: 01148                       BY REFERENCE  ITCIACO                       IUCP9116
         1154: 01154                       BY REFERENCE  IUCIAAJR                      IUCP9116
         1197: 01197                       BY REFERENCE  ITCIACP                       IUCP9116
         1198: 01198                       BY REFERENCE  IUCIAAJR                      IUCP9116
1        1200: 01200                       BY REFERENCE  ITCIACO                       IUCP9116
         1213: 01213                       BY REFERENCE  ITCIACP                       IUCP9116
         1214: 01214                       BY REFERENCE  IUCIAAJR                      IUCP9116
         1216: 01216                       BY REFERENCE  ITCIACO                       IUCP9116
         1268: 01268                                     ITCIACP                       IUCP9116
         1295: 01295                                     IUCIAAJR                      IUCP9116
         1306: 01306                                     IUCIAAJR.                     IUCP9116
0    ELEMENT   IUCP9118
          180: 00180 *                                 PRICING METHOD IN ITCIACP FOR  *IUCP9118
          337: 00337  01  IUCIAAJR.                                                    IUCP9118
          338: 00338      COPY IUCIAAJR.                                               IUCP9118
          359: 00359                           ITCIACP                                 IUCP9118
          361: 00361                           ITCIACO                                 IUCP9118
          367: 00367                           IUCIAAJR                                IUCP9118
0    ELEMENT   IUCP9120
          369: 00369  01  IUCIAAJR.                                                    IUCP9120
          370: 00370      COPY IUCIAAJR.                                               IUCP9120
          391: 00391                           ITCIACP                                 IUCP9120
          393: 00393                           ITCIACO                                 IUCP9120
          399: 00399                           IUCIAAJR                                IUCP9120
0    ELEMENT   IUCP9122
          221: 00221  01  IUCIAAJR.                                                    IUCP9122
          222: 00222      COPY IUCIAAJR.                                               IUCP9122
          243: 00243                           ITCIACP                                 IUCP9122
          245: 00245                           ITCIACO                                 IUCP9122
          251: 00251                           IUCIAAJR                                IUCP9122
0    ELEMENT   IUCP9123
           78: 00078                           ITCIACP                                 IUCP9123
0    ELEMENT   IUCP9124
          170: 00170 *                                 TO ADD IUCIAAJR AS THE SECOND  *IUCP9124
          443: 00443  01  IUCDBF00.                                                    IUCP9124
          444: 00444      COPY IUCDBF00.                                               IUCP9124
          497: 00497  01  IUCIAAJR.                                                    IUCP9124
          498: 00498      COPY IUCIAAJR.                                               IUCP9124
          542: 00542                           ITCIACP                                 IUCP9124
          545: 00545                           ITCIACO                                 IUCP9124
          547: 00547                           IUCIAAJR                                IUCP9124
         3464: 03464                                     IUCIAAJR                      IUCP9124
         3476: 03476                                     IUCIAAJR                      IUCP9124
         3486: 03486                                     IUCIAAJR                      IUCP9124
         3535: 03535                                     IUCIAAJR                      IUCP9124
         3539: 03539                                     ITCIACP                       IUCP9124
         3542: 03542                                     ITCIACO                       IUCP9124
         3555: 03555                                     IUCIAAJR                      IUCP9124
         3559: 03559                                     ITCIACP                       IUCP9124
         3562: 03562                                     ITCIACO                       IUCP9124
         3573: 03573                                     IUCIAAJR                      IUCP9124
         3577: 03577                                     ITCIACP                       IUCP9124
         3580: 03580                                     ITCIACO                       IUCP9124
         3591: 03591                                     IUCIAAJR                      IUCP9124
         3592: 03592                                     ITCIACO                       IUCP9124
0    ELEMENT   IUCP9128
          139: 00139                           ITCIACP                                 IUCP9128
1    ELEMENT   IUCP9130
          122: 00122  01  IUCIAAJR.                                                    IUCP9130
          123: 00123      COPY IUCIAAJR.                                               IUCP9130
          144: 00144                           ITCIACP                                 IUCP9130
          146: 00146                           ITCIACO                                 IUCP9130
          152: 00152                           IUCIAAJR                                IUCP9130
0    ELEMENT   IUCP9132
          567: 00567  01  ITCWSMCD.                                                    IUCP9132
          568: 00568      COPY ITCWSMCD.                                               IUCP9132
          598: 00598  01  IUCIAAJR.                                                    IUCP9132
          599: 00599      COPY IUCIAAJR.                                               IUCP9132
          626: 00626                           ITCIACP                                 IUCP9132
          628: 00628                           IUCIAAJR                                IUCP9132
0    ELEMENT   IUCP9134
          156: 00156  01  IUCIAAJR.                                                    IUCP9134
          157: 00157      COPY IUCIAAJR.                                               IUCP9134
          179: 00179                           ITCIACP                                 IUCP9134
          180: 00180                           IUCIAAJR                                IUCP9134
0    ELEMENT   IUCP9146
          295: 00295                           ITCIACP                                 IUCP9146
          637: 00637                                     ITCIACP                       IUCP9146
0    ELEMENT   IUCP9150
          552: 00552  01  IUCIAAJR.                                                    IUCP9150
          553: 00553      COPY IUCIAAJR.                                               IUCP9150
          683: 00683                           ITCIACP                                 IUCP9150
          684: 00684                           IUCIAAJR                                IUCP9150
          686: 00686                           ITCIACO                                 IUCP9150
         2972: 02972      MOVE CIACP-TBL-ENTRY-CNT OF ITCIACP TO                       IUCP9150
         2973: 02973           CIAAJR-TBL-ENTRY-CNT OF IUCIAAJR.                       IUCP9150
         2978: 02978                  CIAAJR-TBL-ENTRY-CNT OF IUCIAAJR.                IUCP9150
         4354: 04354      IF CIACO-TBL-ENTRY-CNT OF ITCIACO NOT NUMERIC                IUCP9150
         4573: 04573      IF CIACO-TBL-ENTRY-CNT OF ITCIACO NOT NUMERIC                IUCP9150
         4644: 04644      IF CIACO-TBL-ENTRY-CNT OF ITCIACO NOT NUMERIC                IUCP9150
         4840: 04840      IF CIACO-TBL-ENTRY-CNT OF ITCIACO NOT NUMERIC                IUCP9150
         4900: 04900      IF CIACO-TBL-ENTRY-CNT OF ITCIACO NOT NUMERIC                IUCP9150
         4938: 04938      IF CIACO-TBL-ENTRY-CNT OF ITCIACO NOT NUMERIC                IUCP9150
         5011: 05011      IF CIACO-TBL-ENTRY-CNT OF ITCIACO NOT NUMERIC                IUCP9150
         5154: 05154      IF CIACO-TBL-ENTRY-CNT OF ITCIACO NOT NUMERIC                IUCP9150
         5241: 05241      IF CIACO-TBL-ENTRY-CNT OF ITCIACO NOT NUMERIC                IUCP9150
         5652: 05652                                     ITCIACP                       IUCP9150
         5654: 05654                                     ITCIACO                       IUCP9150
         5659: 05659                                     ITCIARD                       IUCP9150
         5669: 05669                                     IUCIAAJR                      IUCP9150
0    ELEMENT   IUCP9152
          620: 00620  01  IUCIAAJR.                                                    IUCP9152
          621: 00621      COPY IUCIAAJR.                                               IUCP9152
          749: 00749                           ITCIACP                                 IUCP9152
          750: 00750                           IUCIAAJR                                IUCP9152
          752: 00752                           ITCIACO                                 IUCP9152
         3690: 03690      MOVE CIACP-TBL-ENTRY-CNT OF ITCIACP TO                       IUCP9152
         3691: 03691           CIAAJR-TBL-ENTRY-CNT OF IUCIAAJR.                       IUCP9152
         3696: 03696                  CIAAJR-TBL-ENTRY-CNT OF IUCIAAJR.                IUCP9152
         4716: 04716      IF CIAAJR-CLM-REASON-CD OF IUCIAAJR (SUB)                    IUCP9152
         5313: 05313      IF CIACO-TBL-ENTRY-CNT OF ITCIACO NOT NUMERIC                IUCP9152
         5537: 05537      IF CIACO-TBL-ENTRY-CNT OF ITCIACO NOT NUMERIC                IUCP9152
1        5594: 05594      IF CIACP-TBL-ENTRY-CNT OF ITCIACP NOT NUMERIC                IUCP9152
         5597: 05597      IF CIACO-TBL-ENTRY-CNT OF ITCIACO NOT NUMERIC                IUCP9152
         5635: 05635      IF CIACO-TBL-ENTRY-CNT OF ITCIACO NOT NUMERIC                IUCP9152
         5714: 05714      IF CIACO-TBL-ENTRY-CNT OF ITCIACO NOT NUMERIC                IUCP9152
         5869: 05869      IF CIACO-TBL-ENTRY-CNT OF ITCIACO NOT NUMERIC                IUCP9152
         5927: 05927      IF CIACO-TBL-ENTRY-CNT OF ITCIACO NOT NUMERIC                IUCP9152
         6336: 06336      IF CIACO-TBL-ENTRY-CNT OF ITCIACO NOT NUMERIC                IUCP9152
         6389: 06389      IF CIACO-TBL-ENTRY-CNT OF ITCIACO NOT NUMERIC                IUCP9152
         6761: 06761                                     ITCIACP                       IUCP9152
         6763: 06763                                     ITCIACO                       IUCP9152
         6768: 06768                                     ITCIARD                       IUCP9152
         6778: 06778                                     IUCIAAJR                      IUCP9152
0    ELEMENT   IUCP9154
          163: 00163  01  IUCIAAJR.                                                    IUCP9154
          164: 00164      COPY IUCIAAJR.                                               IUCP9154
          205: 00205                           ITCIACP                                 IUCP9154
          206: 00206                           IUCIAAJR                                IUCP9154
          208: 00208                           ITCIACO                                 IUCP9154
0    ELEMENT   IUCP9156
          200: 00200  01  IUCIAAJR.                                                    IUCP9156
          201: 00201      COPY IUCIAAJR.                                               IUCP9156
          247: 00247                           ITCIACP                                 IUCP9156
          248: 00248                           IUCIAAJR                                IUCP9156
          250: 00250                           ITCIACO                                 IUCP9156
0    ELEMENT   IUCP9158
          418: 00418  01  IUCIAAJR.                                                    IUCP9158
          419: 00419      COPY IUCIAAJR.                                               IUCP9158
          569: 00569                           ITCIACP                                 IUCP9158
          571: 00571                           IUCIAAJR                                IUCP9158
         1130: 01130                                     ITCIACP                       IUCP9158
0    ELEMENT   IUCP9160
          182: 00182  01  IUCIAAJR.                                                    IUCP9160
          183: 00183      COPY IUCIAAJR.                                               IUCP9160
          318: 00318                           ITCIACP                                 IUCP9160
          320: 00320                           ITCIACO                                 IUCP9160
          325: 00325                           ITCIARD                                 IUCP9160
          335: 00335                           IUCIAAJR                                IUCP9160
          572: 00572      IF CIACO-TBL-ENTRY-CNT OF ITCIACO NOT NUMERIC                IUCP9160
          679: 00679      IF CIACO-TBL-ENTRY-CNT OF ITCIACO NOT NUMERIC                IUCP9160
          748: 00748      IF CIACO-TBL-ENTRY-CNT OF ITCIACO NOT NUMERIC                IUCP9160
          783: 00783      IF CIACO-TBL-ENTRY-CNT OF ITCIACO NOT NUMERIC                IUCP9160
          827: 00827      IF CIACO-TBL-ENTRY-CNT OF ITCIACO NOT NUMERIC                IUCP9160
          951: 00951      IF CIACO-TBL-ENTRY-CNT OF ITCIACO NOT NUMERIC                IUCP9160
          992: 00992      IF CIACO-TBL-ENTRY-CNT OF ITCIACO NOT NUMERIC                IUCP9160
         1027: 01027      IF CIACO-TBL-ENTRY-CNT OF ITCIACO NOT NUMERIC                IUCP9160
         1071: 01071      IF CIACO-TBL-ENTRY-CNT OF ITCIACO NOT NUMERIC                IUCP9160
         1294: 01294                                      ITCIACP                      IUCP9160
         1295: 01295                                      ITCIACO                      IUCP9160
         1336: 01336                                     ITCIACP                       IUCP9160
         1338: 01338                                     ITCIACO                       IUCP9160
         1389: 01389                                     ITCIACP                       IUCP9160
         1391: 01391                                     ITCIACO                       IUCP9160
         1393: 01393                                     IUCIAAJR                      IUCP9160
         1405: 01405                                     ITCIACO                       IUCP9160
         1407: 01407                                     ITCIACP                       IUCP9160
         1412: 01412                                     IUCIAAJR                      IUCP9160
1        1422: 01422                                     IUCIAAJR                      IUCP9160
         1424: 01424                                     ITCIACP                       IUCP9160
         1426: 01426                                     ITCIACO                       IUCP9160
         1436: 01436                                     IUCIAAJR                      IUCP9160
         1445: 01445                                     ITCIACP                       IUCP9160
         1457: 01457                                     IUCIAAJR                      IUCP9160
         1467: 01467                                     ITCIACP                       IUCP9160
         1469: 01469                                     ITCIACO                       IUCP9160
         1472: 01472                                     ITCIARD                       IUCP9160
         1473: 01473                                     IUCIAAJR                      IUCP9160
         1496: 01496                                     ITCIACP                       IUCP9160
         1498: 01498                                     ITCIACO                       IUCP9160
         1507: 01507                                     IUCIAAJR                      IUCP9160
         1552: 01552                                     ITCIACP                       IUCP9160
         1555: 01555                                     ITCIACO                       IUCP9160
         1557: 01557                                     IUCIAAJR                      IUCP9160
         1573: 01573                                     ITCIACP                       IUCP9160
         1584: 01584                                     ITCIACP                       IUCP9160
         1586: 01586                                     IUCIAAJR                      IUCP9160
         1600: 01600                                     ITCIACP                       IUCP9160
         1601: 01601                                     IUCIAAJR                      IUCP9160
         1622: 01622                                     ITCIACP                       IUCP9160
         1661: 01661                                     ITCIACP                       IUCP9160
         1663: 01663                                     IUCIAAJR                      IUCP9160
         1700: 01700                                     ITCIACP                       IUCP9160
         1702: 01702                                     ITCIACO                       IUCP9160
         1705: 01705                                     ITCIARD                       IUCP9160
         1706: 01706                                     IUCIAAJR                      IUCP9160
         1717: 01717                                     ITCIACP                       IUCP9160
0    ELEMENT   IUCP9162
           20: 00020 *                    ITCIACO AND ITCIACOP                        *IUCP9162
           37: 00037 *                               - ADDED IUCIAAJR TO LINKAGE AND  *IUCP9162
           41: 00041 *                                 ITCIACO FOR NON-COB CLAIMS     *IUCP9162
           53: 00053 *                                 C200-SET-FROM-ITCIACO FOR      *IUCP9162
           62: 00062 *                                 C400-SET-FROM-ITCIACO          *IUCP9162
           63: 00063 *                                 SO THAT ITCIACO REASON CODES   *IUCP9162
          153: 00153  01   IUCIAAJR.                                                   IUCP9162
          154: 00154      COPY IUCIAAJR.                                               IUCP9162
          178: 00178                           IUCIAAJR                                IUCP9162
          179: 00179                           ITCIACO                                 IUCP9162
          218: 00218          PERFORM C200-SET-FROM-ITCIACO                            IUCP9162
          223: 00223          PERFORM C200-SET-FROM-ITCIACO                            IUCP9162
0    ELEMENT   IUCP9164
          224: 00224      COPY ITCIACO                                                 IUCP9164
          370: 00370  01  IUCIAAJR.                                                    IUCP9164
          371: 00371      COPY IUCIAAJR.                                               IUCP9164
          389: 00389                           ITCIACP                                 IUCP9164
          391: 00391                           ITCIACO                                 IUCP9164
          394: 00394                           ITCIARD                                 IUCP9164
          395: 00395                           IUCIAAJR                                IUCP9164
         2111: 02111                                      ITCIACP                      IUCP9164
         2112: 02112                                      WS-ITCIACO                   IUCP9164
0    ELEMENT   IUCP9166
          129: 00129  01  IUCIAAJR.                                                    IUCP9166
          130: 00130      COPY IUCIAAJR.                                               IUCP9166
          152: 00152                           IUCIAAJR                                IUCP9166
1    ELEMENT   IUCP9170
           70: 00070  01  IUCIAAJR.                                                    IUCP9170
           71: 00071      COPY IUCIAAJR.                                               IUCP9170
           80: 00080                           IUCIAAJR.                               IUCP9170
          114: 00114                                      IUCIAAJR.                    IUCP9170
0    ELEMENT   IUCP9172
          175: 00175  01  IUCIAAJR.                                                    IUCP9172
          176: 00176      COPY IUCIAAJR.                                               IUCP9172
          187: 00187                           IUCIAAJR.                               IUCP9172
0    ELEMENT   IUCP9356
          275: 00275                           ITCIACP                                 IUCP9356
         1040: 01040                                     ITCIACP                       IUCP9356
0    ELEMENT   IUCP9502
          104: 00104 *                                 ITCIACI AND IUCIAAJR TO CALL   *IUCP9502
          654: 00654  01  ITCWSMCD.                                                    IUCP9502
          655: 00655      COPY ITCWSMCD.                                               IUCP9502
          752: 00752  01  IUCIAAJR.                                                    IUCP9502
          754: 00754      COPY IUCIAAJR.                                               IUCP9502
          778: 00778                           IUCIAAJR                                IUCP9502
          781: 00781                           ITCIACP                                 IUCP9502
         8504: 08504                                    IUCIAAJR                       IUCP9502
0    ELEMENT   IUCP9506
          108: 00108 *                                 METHOD CHECK WHEN ITCIACP      *IUCP9506
          524: 00524  01  IUCIAAJR.                                                    IUCP9506
          525: 00525      05  IUCIAAJR-LENGTH            COMP    PIC S9(04).           IUCP9506
          526: 00526      COPY IUCIAAJR.                                               IUCP9506
          550: 00550                           IUCIAAJR,                               IUCP9506
0    ELEMENT   IUCP9508
          352: 00352  01  IUCIAAJR.                                                    IUCP9508
          353: 00353      05  IUCIAAJR-LENGTH            COMP    PIC S9(04).           IUCP9508
          354: 00354      COPY IUCIAAJR.                                               IUCP9508
          378: 00378                           IUCIAAJR,                               IUCP9508
0    ELEMENT   IUCP9512
          220: 00220  01  IUCIAAJR.                                                    IUCP9512
          221: 00221      05  IUCIAAJR-LENGTH            COMP    PIC S9(04).           IUCP9512
          222: 00222      COPY IUCIAAJR.                                               IUCP9512
          235: 00235                           ITCIACO                                 IUCP9512
          238: 00238                           IUCIAAJR.                               IUCP9512
0    ELEMENT   IUCP9514
          267: 00267  01  IUCIAAJR.                                                    IUCP9514
          268: 00268      05  IUCIAAJR-LENGTH            COMP    PIC S9(04).           IUCP9514
          269: 00269      COPY IUCIAAJR.                                               IUCP9514
          282: 00282                           ITCIACO                                 IUCP9514
          285: 00285                           IUCIAAJR.                               IUCP9514
1ENVIRONMENT  BCBS01    SYSTEM  ITS       SUBSYSTEM  ALIM
 TYPE  COBOL     STAGE NUMBER 2 .
0    ELEMENT   IULP5102
          136:            COPY IULIASJR.
          142:            COPY ITCIACP
          151:            COPY ITCIACO
          166:            COPY  IULIAAJR.
          198:            COPY  IULIAREP.
          205:            COPY  IULIAREP.
          212:            COPY  IULIAREP.
          236:            COPY  IULIA2JR.
          296:            COPY IULIASJR.
          299:            COPY ITCIACP
          305:            COPY ITCIACO
          314:            COPY  IULIAAJR.
          323:            COPY  IULIAREP.
          335:            COPY  IULIA2JR.
0    ELEMENT   IULP5104
           93:        01  WS-IUCIAAJR-SEGMENT.
           94:            03  WS-IUCIAAJR-SEG-LENGTH     PIC 9(04) COMP VALUE ZEROES.
           95:            03  WS-IUCIAAJR-SEG-ID         PIC X(01) VALUE 'A'.
           96:            03  WS-IUCIAAJR-REMAINING.
           97:            COPY IUCIAAJR
          100:            WS-IUCIAAJR-REMAINING ==.
          126:            COPY ITCIACP
          134:            COPY ITCIACO
          199:        01  IUCIAAJR.
          200:            COPY IUCIAAJR
          203:            IUCIAAJR ==.
          227:            COPY ITCIACP
          230:            ITCIACP ==.
          233:            COPY ITCIACO
          236:            ITCIACO ==.
          256:                                 IUCIAAJR
          260:                                 IULIACS
          262:                                 ITCIACP
          263:                                 ITCIACO
          333:            PERFORM E250-PROCESS-IUCIAAJR-SEGMENT    THRU E250-EXIT.
          425:            MOVE IULIACS TO WS-IULIACS-REMAINING.
          439:        E250-PROCESS-IUCIAAJR-SEGMENT.
          441:            MOVE IUCIAAJR TO WS-IUCIAAJR-REMAINING.
          446:                CIAAJR-TBL-ENTRY-CNT OF IUCIAAJR.
          448:            COMPUTE WS-IUCIAAJR-SEG-LENGTH = ( 3 +
          451:                CIAAJR-TBL-ENTRY-CNT OF IUCIAAJR ).
          453:            PERFORM T250-INSERT-IUCIAAJR-SEGMENT THRU T250-EXIT.
          466:                IUCIAAJR (WS-LN-ITEM-SUB)   TO
          468:                WS-IUCIAAJR-REMAINING (WS-LN-ITEM-SUB).
          562:            MOVE ITCIACP TO WS-ITCIACP-REMAINING.
          572:                CIACP-TBL-ENTRY-CNT OF ITCIACP ).
          587:                ITCIACP (WS-LN-ITEM-SUB)   TO
          597:            MOVE ITCIACO TO WS-ITCIACO-REMAINING.
          607:                CIACO-TBL-ENTRY-CNT OF ITCIACO ).
          622:                ITCIACO (WS-LN-ITEM-SUB)   TO
          756:        T250-INSERT-IUCIAAJR-SEGMENT.
          760:                                 WS-IUCIAAJR-SEGMENT
0    ELEMENT   IULP6024
           53:            COPY IULDBF00
1         110:        01  IUCIAAJR.
          112:            COPY IUCIAAJR
          157:            COPY ITCIACP
          169:            COPY ITCIACO
          289:                PERFORM B100-WRITE-IUCIAAJR THRU B100-EXIT.
          307:                PERFORM B400-WRITE-ITCIACP  THRU B400-EXIT.
          310:                PERFORM B450-WRITE-IULIACS  THRU B450-EXIT.
          316:                PERFORM B550-WRITE-ITCIACO  THRU B550-EXIT.
          336:        B100-WRITE-IUCIAAJR.
          339:            MOVE LOW-VALUES           TO IUCIAAJR.
          349:            WRITE LDBFAJ-AREA FROM IUCIAAJR.
          554:                 CIAAJR-PAY-OVR-LN-ITEM        OF IUCIAAJR (LINE-SUB).
          672:            DISPLAY 'IULDBF00 DB GET ERROR.'.
0    ELEMENT   IULP9038
           25:       *                                  IUCIAAJR IF NOT OVERRIDE      *
           56:       *                                  SURCHARGE FIELDS TO IULIACS   *
          106:            SELECT IULDBF00-IN-FILE        ASSIGN TO UT-S-IULDBF00.
          116:        FD  IULDBF00-IN-FILE.
          118:        01  IULDBF00-IN-RECORD.
          119:            COPY IULDBF00.
         4468:        01  IUCIAAJR-OUT.
         4470:            02  IUCIAAJR.
         4471:            COPY IUCIAAJR.
         7521:            OPEN INPUT  IULDBF00-IN-FILE.
         7596:            CLOSE IULDBF00-IN-FILE
         4044:            READ IULDBF00-IN-FILE
0    ELEMENT   IULP9102
          167: 018000 01  WS-T-ITCIACO               PIC X(383362) VALUE SPACE.
          190:            COPY IULIASJR.
          193:            COPY ITCIACP REPLACING CIACP-TBL-ENTRY-CNT BY
          197:            COPY ITCIACO REPLACING CIACO-TBL-ENTRY-CNT BY
          204:            COPY IULIAAJR.
          213:            COPY IULIAREP.
          225:            COPY IULIA2JR.
          267:        01  IUCIAAJR.
          268:            COPY IUCIAAJR.
          291:        01  IULIACOP.
          292:            COPY IULIACOP.
          383:                                 IUCIAAJR
          384:                                 ITCIACP
          386:                                 ITCIACO
          391:                                 IULIACOP
          651: 066900     AND CIACO-CLM-RSN-CD OF ITCIACO (WS-1) =
          656: 067300         MOVE ITCIACO TO WS-T-ITCIACO
          663: 067900         MOVE SPACE TO CIACO-CALC-RESULTS-CNTL-DATA OF ITCIACO
          664: 068000         MOVE ZERO  TO CIACO-CLM-STAT-CD            OF ITCIACO
          674: 068700         MOVE WS-T-ITCIACO TO ITCIACO.
          784:                     CIACP-SCCF-SER-NUM    OF ITCIACP
          785:                     CIACO-SCCF-SER-NUM    OF ITCIACO
         1226:                                           IUCIAAJR
         1227:                                           ITCIACP
         1228:                                           ITCIACO
         1264:                                           IUCIAAJR
         1265:                                           ITCIACP
         1266:                                           ITCIACO
         1270:                                         IULIACOP
         1339:                                           IUCIAAJR
         1340:                                           ITCIACP
1        1341:                                           ITCIACO
         1395:       *R14.0 E_72114.KJO ADD ITCIAAI
         1412:                                           IUCIAAJR
         1413:                                           ITCIACP
         1414:                                           ITCIACO
         1468:       *R14.0 E_72114.KJO ADD ITCIAAI
         1485:                                           IUCIAAJR
         1486:                                           ITCIACP
         1487:                                           ITCIACO
         1540:       *R14.0 E_72114.KJO ADD ITCIAAI
         1557:                                           IUCIAAJR,
         1596:       *R14.0 E_72114.RDW ADD ITCIAAI
0    ELEMENT   IULP9112
           40:       *                                    OF IUCIAAJR)                *
          187:        01  IUCIAAJR.
          188:            COPY IUCIAAJR.
          203:            COPY IULIASJR.
          206:            COPY ITCIACP
          211:            COPY ITCIACO
          219:            COPY IULIAAJR.
          228:            COPY IULIAREP.
          246:            COPY IULIA2JR.
          260:                                 IUCIAAJR
          261:                                 ITCIACP
          262:                                 ITCIACO
          320:            IF  CIACO-UNABLE-TO-CALC OF ITCIACO
          767:                 ( CIAAJR-PAY-OVR-APPLIED OF IUCIAAJR  OR
          768:                   (CIAAJR-VOID OF IUCIAAJR AND
          769:                    NOT CIAAJR-AUTO-ADJUST OF IUCIAAJR)  OR
          770:                   CIAAJR-REJECTED OF IUCIAAJR )
          845: 080500     IF  CIACP-TBL-ENTRY-CNT OF ITCIACP >= 0 AND <= 99999         08050000
          846: 080600     AND CIACO-TBL-ENTRY-CNT OF ITCIACO >= 0 AND <= 99999         08060000
          848: 080800     AND CIAAJR-TBL-ENTRY-CNT OF IUCIAAJR >= 0 AND <= 99999       08080000
         1359:            MOVE    CIAAJR-SCCF-SER-NUM OF IUCIAAJR TO
         1361:            MOVE    CIACP-SCCF-SER-NUM OF ITCIACP TO
         1363:            MOVE    CIACO-SCCF-SER-NUM OF ITCIACO TO
         1397:            MOVE    CIACO-SCCF-SER-NUM OF ITCIACO TO
         1399:            MOVE    CIAAJR-SCCF-SER-NUM OF IUCIAAJR TO
         1448:            IF  CIACO-CLM-RSN-CD OF ITCIACO (ERR-SUB1) EQUAL
         1451:                     CIACO-CLM-RSN-CD OF ITCIACO (ERR-SUB1)
0    ELEMENT   IULP9140
          226:        01  IUCIAAJR.
          227:            COPY IUCIAAJR.
          245:            COPY IULIASJR.
          248:            COPY ITCIACP REPLACING CIACP-TBL-ENTRY-CNT
          252:            COPY ITCIACO REPLACING CIACO-TBL-ENTRY-CNT
          259:            COPY IULIAAJR.
          268:            COPY IULIAREP.
          286:            COPY IULIA2JR.
          380:                                 IUCIAAJR
          381:                                 ITCIACP
          382:                                 ITCIACO
          633: 058200                CIACP-TBL-ENTRY-CNT OF ITCIACP * 2.
          855:            AND CIACP-BYP-PRV-RM-DIFF-CALC-IND OF ITCIACP NOT = WS-YES
          918:                 IF  CIACO-CLM-STAT-CD       OF ITCIACO  EQUAL
          928:                 NOT EQUAL  CIACP-TOT-CHRG  OF ITCIACP
          933:                        CIACO-CLM-STAT-CD       OF ITCIACO
          948:            IF CIACO-CLM-RSN-CD        OF ITCIACO (SUB) = SPACES
1         950:                    TO CIACO-CLM-RSN-CD        OF ITCIACO (SUB)
          963:                        CIACO-CLM-STAT-CD       OF ITCIACO
          975:            IF CIACO-CLM-RSN-CD        OF ITCIACO (SUB) = SPACES
          977:                    TO CIACO-CLM-RSN-CD        OF ITCIACO (SUB)
          995:               IF CIACO-INCLUSIVE-TYPE-CALC OF ITCIACO
          996:                  IF CIACO-INCLUSIVE-CALC OF ITCIACO
         1000:                             TO CIACO-BCBS-PMT-AMT OF ITCIACO
         1008:                             TO CIACO-BCBS-PMT-AMT OF ITCIACO
         1016:                             TO CIACO-BCBS-PMT-AMT OF ITCIACO
         1024:                             TO CIACO-BCBS-PMT-AMT OF ITCIACO
         1032:                             TO CIACO-BCBS-PMT-AMT OF ITCIACO
         1040:                             TO CIACO-BCBS-PMT-AMT OF ITCIACO
         1048:                             TO CIACO-BCBS-PMT-AMT OF ITCIACO
         1056:                             TO CIACO-BCBS-PMT-AMT OF ITCIACO
         1064:                             TO CIACO-BCBS-PMT-AMT OF ITCIACO
         1072:                             TO CIACO-BCBS-PMT-AMT OF ITCIACO
         1087:                  IF CIACO-INCLUSIVE-WITH-LN-CALC OF ITCIACO
         1172:                               AND CIACO-BCBS-PMT-AMT OF ITCIACO NUMERIC
         1178:                                       OF ITCIACO
         1189:                     IF CIACO-BCBS-PMT-AMT OF ITCIACO NUMERIC
         1192:                            OF ITCIACO
         1208:                          AND CIACO-BCBS-PMT-AMT OF ITCIACO NUMERIC
         1214:                                  OF ITCIACO
         1340:                                           IUCIAAJR,
         1393:                                           ITCIACP
         1394:                                           ITCIACO
         1408:                                           ITCIACP
         1409:                                           ITCIACO
         1425:                                           IUCIAAJR
         1426:                                           ITCIACP
         1427:                                           ITCIACO
         1584:                                           IUCIAAJR
         1585:                                           ITCIACP
         1586:                                           ITCIACO
         1666:                                           ITCIACO
         1707:                                           ITCIACP
         1708:                                           ITCIACO
         1736:            IF CIACO-CLM-ERR-MAX-IND OF ITCIACO = WS-YES
         1761:            IF  CIACO-CLM-RSN-CD OF ITCIACO (ERR-SUB1) EQUAL
         1764:                     CIACO-CLM-RSN-CD OF ITCIACO (ERR-SUB1)
0    ELEMENT   IULP9142
           29:       *                                  IULIACS / CHG SETTING FOR     *
           61:       *                                    IULIACS FIELDS.             *
          445:                                 ITCIACP
          446:                                 ITCIACO
          447:                                 IULIACS
0    ELEMENT   IULP9144
           38:       *                 12/05/97 06.0    C200-MOVE-IUCIAAJR-TO-SFAJR   *
          100:       *                                  1.C200-MOVE-IUCIAAJR-TO-SFAJR *
          129:       *        FROM ITCIACP TO SFCP.                                   *
          131:       *        MOVE THRESHOLD AMOUNT FROM ITCIACP TO SFCP              *
          132:       *        MOVE SUPP ACCUMULATOR EXC SUB REDUCTIONS FROM ITCIACO   *
          139:       *        CIACP-CLASS-PROV-CLM OF ITCIACP TO SFCP & LIACO         *
          143:       *        ITCIACP TO SFCP.                                        *
          157: 111518*         MOVE CIACO-DME-APPLIED-AMT-ACTUAL ITCIACO -> SFCO.     *
          158: 111518*         MOVE CIACO-DME-APPLIED-AMT-ACTUAL ITCIACO -> IULIACO.  *
          161: 117939*         CIACP-PRFX-ACCT-ID-IND ITCIACP -> SFCP.                *
          254:        01  IUCIAAJR.
1         255:            COPY IUCIAAJR.
          267:            COPY IULIASJR.
          270:            COPY ITCIACP REPLACING CIACP-TBL-ENTRY-CNT
          274:            COPY ITCIACO REPLACING CIACO-TBL-ENTRY-CNT
          284:            COPY IULIAAJR.
          293:            COPY IULIAREP.
          311:                                 IUCIAAJR
          312:                                 ITCIACP
          313:                                 ITCIACO
          374:            PERFORM C200-MOVE-IUCIAAJR-TO-SFAJR.
          387:            PERFORM C600-MOVE-IUCIAAJR-TO-ADJAJR.
          444:        C200-MOVE-IUCIAAJR-TO-SFAJR.
          447:            MOVE CIAAJR-PRC-MTD-ALT-IND   OF IUCIAAJR
          449:            MOVE CIAAJR-FUNC-CD           OF IUCIAAJR
          451:            MOVE CIAAJR-LAST-NAME-1-3     OF IUCIAAJR
          453:            MOVE CIAAJR-ADJUD-DT          OF IUCIAAJR
          455:            MOVE CIAAJR-SUB-ID-NUM-ACTUAL OF IUCIAAJR
          457:            MOVE CIAAJR-CLM-REASON-CDS    OF IUCIAAJR
          459:            MOVE CIAAJR-DF-MSG-CDS-CLM    OF IUCIAAJR
          461:            MOVE CIAAJR-PAT-SEX           OF IUCIAAJR
          463:            MOVE CIAAJR-PAT-BRT-DT        OF IUCIAAJR
          465: 036700     MOVE CIAAJR-CROSS-REF-SCCF-NUM OF IUCIAAJR
          468:            MOVE CIAAJR-ADJ-RSN-CD        OF IUCIAAJR
          471: 037300     IF CIAAJR-PRC-MTD-ALT-YES     OF IUCIAAJR
          472: 037400        MOVE CIACP-PRC-MTD-LN      OF ITCIACP (WS-PLUS-ONE)
          475: 037700        MOVE CIAAJR-PRC-MTD-CLM    OF IUCIAAJR
          478:            MOVE CIAAJR-ORIG-OPERATOR-ID  OF IUCIAAJR
          480: 038200     MOVE CIAAJR-ORIG-PROCESS-DT   OF IUCIAAJR
          483:            MOVE CIAAJR-PAT-LAST-NAME     OF IUCIAAJR
          485:            MOVE CIAAJR-PAT-FIRST-NAME    OF IUCIAAJR
          488: 039000     MOVE CIAAJR-PAT-MID-INIT          OF IUCIAAJR
          491: 039300     MOVE CIAAJR-SUB-GRP-NUM           OF IUCIAAJR
          493: 039500     MOVE CIAAJR-INVEST-IND            OF IUCIAAJR
          495: 039700     IF CIAAJR-INVEST-DAY              OF IUCIAAJR NUMERIC
          496: 039800        MOVE CIAAJR-INVEST-DAY         OF IUCIAAJR
          499: 040100        MOVE CIAAJR-INVEST-DAY-X       OF IUCIAAJR
          501: 040300     MOVE CIAAJR-CARVE-OUT-IND         OF IUCIAAJR
          503: 040500     IF CIAAJR-CARVE-OUT-DAY           OF IUCIAAJR NUMERIC
          504: 040600        MOVE CIAAJR-CARVE-OUT-DAY      OF IUCIAAJR
          507: 040900        MOVE CIAAJR-CARVE-OUT-DAY-X    OF IUCIAAJR
          509: 041100     MOVE CIAAJR-INVEST-RECEIPT-DT     OF IUCIAAJR
          511: 041300     MOVE CIAAJR-ASO-IND               OF IUCIAAJR
          513: 041500     MOVE CIAAJR-PROCESS-CD            OF IUCIAAJR
          516: 041800     MOVE CIAAJR-PRIM-IND              OF IUCIAAJR
          518: 042000     MOVE CIAAJR-INDEM-CUTBK-IND       OF IUCIAAJR
          521: 042300     MOVE CIAAJR-STREAMLINE-ADJ-IND    OF IUCIAAJR
          524:            MOVE CIAAJR-LINE-BUS              OF IUCIAAJR
          526:            MOVE CIAAJR-MED-ASGNMT-IND        OF IUCIAAJR
          529: 042922     MOVE CIAAJR-BOID                  OF IUCIAAJR
          535:            MOVE CIAAJR-CORR-PRI-PAYER-NM     OF IUCIAAJR
          537:            MOVE CIAAJR-OTH-SUB-LAST-NM       OF IUCIAAJR
          539:            MOVE CIAAJR-OTH-SUB-MDL-INIT      OF IUCIAAJR
          541:            MOVE CIAAJR-OTH-SUB-FIRST-NM      OF IUCIAAJR
          543:            MOVE CIAAJR-OTH-SUB-ID-NUM        OF IUCIAAJR
          545:            MOVE CIAAJR-COV-EXP-DATE          OF IUCIAAJR
          550:            MOVE CIAAJR-SYS-CREATOR-CD        OF IUCIAAJR
          552:            MOVE CIAAJR-TRANSM-MODE-CD-OVR    OF IUCIAAJR
          557:            MOVE CIAAJR-ADJ-RCPT-DT           OF IUCIAAJR
          562: 117939     MOVE CIAAJR-PRFX-ACCT-ID          OF IUCIAAJR
          571:            MOVE CIACP-SCCF-SER-NUM       OF ITCIACP
1         573:            MOVE CIACP-FDB-INV-CD         OF ITCIACP
          575:            MOVE CIACP-PRC-DATA-PRESENT-IND   OF ITCIACP
          579:            IF CIACP-TOT-CHRG  OF ITCIACP NUMERIC
          580:               MOVE CIACP-TOT-CHRG           OF ITCIACP
          583:               MOVE CIACP-TOT-CHRG-X         OF ITCIACP
          586:            MOVE CIACP-DRG-CD             OF ITCIACP
          589:            IF CIACP-CASE-ALLW-AMT OF ITCIACP NUMERIC
          590:               MOVE CIACP-CASE-ALLW-AMT      OF ITCIACP
          593:               MOVE CIACP-CASE-ALLW-AMT-X    OF ITCIACP
          596:            IF CIACP-AVG-SEMI-PRIV-RM-RATE OF ITCIACP NUMERIC
          597:               MOVE CIACP-AVG-SEMI-PRIV-RM-RATE OF ITCIACP
          601:               MOVE CIACP-AVG-SEMI-PRIV-RM-RATE-X OF ITCIACP
          605:            IF CIACP-PRIV-RM-RATE OF ITCIACP NUMERIC
          606:               MOVE CIACP-PRIV-RM-RATE       OF ITCIACP
          609:               MOVE CIACP-PRIV-RM-RATE-X     OF ITCIACP
          612:            IF CIACP-PER-DIEM-RATE         OF ITCIACP NUMERIC
          613:               MOVE CIACP-PER-DIEM-RATE         OF ITCIACP
          617:               MOVE CIACP-PER-DIEM-RATE-X         OF ITCIACP
          621:            IF CIACP-PCT-FCTR-CLM  OF ITCIACP NUMERIC
          622:               MOVE CIACP-PCT-FCTR-CLM       OF ITCIACP
          625:               MOVE CIACP-PCT-FCTR-CLM-X     OF ITCIACP
          628:            MOVE CIACP-PRC-MTD-CLM        OF ITCIACP
          630:            MOVE CIACP-RULE-NUM-PRIM-CLM  OF ITCIACP
          632:            MOVE CIACP-CLM-TYPE           OF ITCIACP
          634:            MOVE CIACP-TBL-ENTRY-CNT      OF ITCIACP
          637:            MOVE CIACP-RULE-NUM-SEC-CLM   OF ITCIACP
          639:            MOVE CIACP-SF-MSG-CDS-CLM-AREA OF ITCIACP
          641:            IF CIACP-AMT-WORK            OF ITCIACP NUMERIC
          642:               MOVE CIACP-AMT-WORK            OF ITCIACP
          645:            MOVE CIACP-SEC-PAYOR-PRC-QUAL  OF ITCIACP
          647:            MOVE CIACP-HOST-OPL-PROV-ARRNG-CD    OF ITCIACP
          650: 051100     MOVE CIACP-DEL-MTD                   OF ITCIACP
          652:            MOVE CIACP-ITS-PAYER-IND      OF ITCIACP  (1)
          654:            MOVE CIACP-ITS-PAYER-IND      OF ITCIACP  (2)
          656:            MOVE CIACP-ITS-PAYER-IND      OF ITCIACP  (3)
          658:            MOVE CIACP-LINE-BUS                      OF ITCIACP
          660:            MOVE CIACP-OTH-CARR-IND                  OF ITCIACP
          662:            MOVE CIACP-OPL-VAL-CDS-AMTS-CLM          OF ITCIACP
          666:            MOVE CIACP-MED-ASGNMT-IND                OF ITCIACP
          668:            MOVE CIACP-MPPQ-CD-ASGN                  OF ITCIACP
          670:            MOVE CIACP-MPPQ-CD-UNASGN                OF ITCIACP
          673:            MOVE CIACP-REL-NUM                       OF ITCIACP
          677:            MOVE CIACP-SRC-PMT-CD       OF ITCIACP  (1)
          679:            MOVE CIACP-SRC-PMT-CD       OF ITCIACP  (2)
          681:            MOVE CIACP-SRC-PMT-CD       OF ITCIACP  (3)
          684:            MOVE CIACP-NBR-INCL-GRPS                 OF ITCIACP
          689:            MOVE CIACP-BYP-PRV-RM-DIFF-CALC-IND      OF ITCIACP
          694:            MOVE CIACP-PROV-SANC-INCUR-DT OF ITCIACP
          696:            MOVE CIACP-CLASS-PROV-CLM OF ITCIACP
          701:            IF CIACP-LNG-STAY             OF ITCIACP  NUMERIC
          702: 051900        MOVE CIACP-LNG-STAY        OF ITCIACP
          708: 117939     MOVE CIACP-PRFX-ACCT-ID-IND              OF ITCIACP
          713: 131318     MOVE CIACP-TIER-DESIG-IND-CLM     OF ITCIACP
          726:            MOVE CIACP-ACCOM-ANC-SERV-CD   OF ITCIACP (LSUB)
          729:            IF CIACO-PART-OF-INCLUSIVE OF ITCIACO (LSUB)
          752:            MOVE CIACP-SF-MSG-CDS-LN-AREA  OF ITCIACP (LSUB)
          772:               MOVE CIACP-LN                   OF ITCIACP (LSUB)
          775:            MOVE CIACP-REV-TYPE-CD         OF ITCIACP (LSUB)
          779:            MOVE CIACP-INCL-GROUPING-NBR   OF ITCIACP (LSUB)
          782:            MOVE CIACP-INCL-GRP-PRIMARY-IND OF ITCIACP (LSUB)
1         787:            IF CIACP-SUPP-THRSHLD-AMT   OF ITCIACP (LSUB) NUMERIC
          788:               MOVE CIACP-SUPP-THRSHLD-AMT   OF ITCIACP (LSUB)
          791:               MOVE CIACP-SUPP-THRSHLD-AMT-X   OF ITCIACP (LSUB)
          796:            MOVE CIACP-CLASS-PROV-LN OF ITCIACP (LSUB)
          801: 131318     MOVE CIACP-TIER-DESIG-IND-LN OF ITCIACP (LSUB)
          810:            MOVE CIACP-REV-PROC-CD         OF ITCIACP (LSUB)
          813:            IF CIACP-ACCOM-RATE OF ITCIACP (LSUB) NUMERIC
          814:               MOVE CIACP-ACCOM-RATE OF ITCIACP (LSUB)
          817:               MOVE CIACP-ACCOM-RATE-X OF ITCIACP (LSUB)
          820:            IF CIACP-NUM-SERV OF ITCIACP (LSUB) NUMERIC
          821:               MOVE CIACP-NUM-SERV OF ITCIACP (LSUB)
          824:               MOVE CIACP-NUM-SERV-X OF ITCIACP (LSUB)
          827:            IF CIACP-SERV-CHRG       OF ITCIACP (LSUB) NUMERIC
          828:               MOVE CIACP-SERV-CHRG       OF ITCIACP (LSUB)
          831:               MOVE CIACP-SERV-CHRG-X       OF ITCIACP (LSUB)
          834:            IF CIACP-LOC-RATE-SERV-ALLW-AMT OF ITCIACP (LSUB) NUMERIC
          835:               MOVE CIACP-LOC-RATE-SERV-ALLW-AMT OF ITCIACP (LSUB)
          838:               MOVE CIACP-LOC-RATE-SERV-ALLW-AMT-X OF ITCIACP (LSUB)
          841:            MOVE CIACP-PRC-MTD-LN           OF ITCIACP (LSUB)
          844:            IF CIACP-PCT-FCTR-LN        OF ITCIACP (LSUB) NUMERIC
          845:               MOVE CIACP-PCT-FCTR-LN        OF ITCIACP (LSUB)
          848:               MOVE CIACP-PCT-FCTR-LN-X        OF ITCIACP (LSUB)
          851:            MOVE CIACP-RULE-NUM-LN          OF ITCIACP (LSUB)
          859:            MOVE CIACP-REV-PROC-CD         OF ITCIACP (LSUB)
          861:            MOVE CIACP-DT-SERV             OF ITCIACP (LSUB)
          864:            IF CIACP-NUM-SERV OF ITCIACP (LSUB) NUMERIC
          865:               MOVE CIACP-NUM-SERV OF ITCIACP (LSUB)
          868:               MOVE CIACP-NUM-SERV-X OF ITCIACP (LSUB)
          871:            IF CIACP-SERV-CHRG     OF ITCIACP (LSUB) NUMERIC
          872:               MOVE CIACP-SERV-CHRG         OF ITCIACP (LSUB)
          875:               MOVE CIACP-SERV-CHRG-X         OF ITCIACP (LSUB)
          878:            IF CIACP-LOC-RATE-SERV-ALLW-AMT OF ITCIACP (LSUB) NUMERIC
          879:               MOVE CIACP-LOC-RATE-SERV-ALLW-AMT OF ITCIACP (LSUB)
          882:               MOVE CIACP-LOC-RATE-SERV-ALLW-AMT-X OF ITCIACP (LSUB)
          885:            MOVE CIACP-PRC-MTD-LN           OF ITCIACP (LSUB)
          888:            IF CIACP-PCT-FCTR-LN      OF ITCIACP (LSUB) NUMERIC
          889:               MOVE CIACP-PCT-FCTR-LN            OF ITCIACP (LSUB)
          892:               MOVE CIACP-PCT-FCTR-LN-X          OF ITCIACP (LSUB)
          895:            MOVE CIACP-RULE-NUM-LN          OF ITCIACP (LSUB)
          903:            MOVE CIACP-REV-PROC-CD         OF ITCIACP (LSUB)
          905:            MOVE CIACP-DT-SERV OF ITCIACP (LSUB)
          908:            IF CIACP-SERV-CHRG OF ITCIACP (LSUB) NUMERIC
          909:               MOVE CIACP-SERV-CHRG   OF ITCIACP (LSUB)
          912:               MOVE CIACP-SERV-CHRG-X OF ITCIACP (LSUB)
          915:            IF CIACP-NUM-SERV OF ITCIACP (LSUB) NUMERIC
          916:               MOVE CIACP-NUM-SERV      OF ITCIACP (LSUB)
          919:               MOVE CIACP-NUM-SERV-X OF ITCIACP (LSUB)
          922:            IF CIACP-LOC-RATE-SERV-ALLW-AMT OF ITCIACP (LSUB) NUMERIC
          923:               MOVE CIACP-LOC-RATE-SERV-ALLW-AMT OF ITCIACP (LSUB)
          926:               MOVE CIACP-LOC-RATE-SERV-ALLW-AMT-X OF ITCIACP (LSUB)
          929:            MOVE CIACP-PRC-MTD-LN           OF ITCIACP (LSUB)
          932:            IF CIACP-PCT-FCTR-LN       OF ITCIACP (LSUB) NUMERIC
          933:               MOVE CIACP-PCT-FCTR-LN            OF ITCIACP (LSUB)
          936:               MOVE CIACP-PCT-FCTR-LN-X          OF ITCIACP (LSUB)
          939:            MOVE CIACP-RULE-NUM-LN          OF ITCIACP (LSUB)
          943: 072700     MOVE CIACP-TYPE-SERV            OF ITCIACP (LSUB)
          952:            MOVE CIACO-SCCF-SER-NUM       OF ITCIACO
          954:            MOVE CIACO-CLM-STAT-CD        OF ITCIACO
          956:            MOVE CIACO-CLM-RSN-CD        OF ITCIACO (1)
          958:            MOVE CIACO-CLM-RSN-CD        OF ITCIACO (2)
1         960:            MOVE CIACO-CLM-RSN-CD        OF ITCIACO (3)
          962:            MOVE CIACO-CLM-RSN-CD        OF ITCIACO (4)
          964:            MOVE CIACO-CLM-RSN-CD        OF ITCIACO (5)
          966:            MOVE CIACO-CLM-ERR-MAX-IND        OF ITCIACO
          968:            MOVE CIACO-CALC-TYPE-CD           OF ITCIACO
          971:            IF CIACO-DED-REM-1  OF ITCIACO NUMERIC
          972:               MOVE CIACO-DED-REM-1          OF ITCIACO
          975:               MOVE CIACO-DED-REM-1-X        OF ITCIACO
          978:            IF CIACO-DED-REM-2  OF ITCIACO NUMERIC
          979:               MOVE CIACO-DED-REM-2          OF ITCIACO
          982:               MOVE CIACO-DED-REM-2-X        OF ITCIACO
          985:            IF CIACO-DED-REM-3  OF ITCIACO NUMERIC
          986:               MOVE CIACO-DED-REM-3          OF ITCIACO
          989:               MOVE CIACO-DED-REM-3-X        OF ITCIACO
          992:            IF CIACO-REM-OOP-MAX           OF ITCIACO NUMERIC
          993:               MOVE CIACO-REM-OOP-MAX                   OF ITCIACO
          996:               MOVE CIACO-REM-OOP-MAX-X                 OF ITCIACO
          999:            IF CIACO-PAY-MAX-REM-CLM-1     OF ITCIACO NUMERIC
         1000:               MOVE CIACO-PAY-MAX-REM-CLM-1             OF ITCIACO
         1003:               MOVE CIACO-PAY-MAX-REM-CLM-1-X           OF ITCIACO
         1006:            IF CIACO-PAY-MAX-REM-CLM-2     OF ITCIACO NUMERIC
         1007:               MOVE CIACO-PAY-MAX-REM-CLM-2             OF ITCIACO
         1010:               MOVE CIACO-PAY-MAX-REM-CLM-2-X           OF ITCIACO
         1013:            IF CIACO-PAY-MAX-REM-CLM-3     OF ITCIACO NUMERIC
         1014:               MOVE CIACO-PAY-MAX-REM-CLM-3             OF ITCIACO
         1017:               MOVE CIACO-PAY-MAX-REM-CLM-3-X           OF ITCIACO
         1021:            IF CIACO-BCBS-PMT-AMT          OF ITCIACO NUMERIC
         1022:               MOVE CIACO-BCBS-PMT-AMT                  OF ITCIACO
         1025:               MOVE CIACO-BCBS-PMT-AMT-X                OF ITCIACO
         1028:            IF CIACO-SUB-LIAB              OF ITCIACO NUMERIC
         1029:               MOVE CIACO-SUB-LIAB                      OF ITCIACO
         1032:               MOVE CIACO-SUB-LIAB-X                    OF ITCIACO
         1035:            MOVE CIACO-TBL-ENTRY-CNT                    OF ITCIACO
         1047:            MOVE CIACO-LN-STAT-CD          OF ITCIACO (LSUB)
         1049:            MOVE CIACO-LN-RSN-CD           OF ITCIACO (LSUB, 1)
         1051:            MOVE CIACO-LN-RSN-CD           OF ITCIACO (LSUB, 2)
         1053:            MOVE CIACO-LN-RSN-CD           OF ITCIACO (LSUB, 3)
         1055:            MOVE CIACO-LN-ERR-MAX-IND      OF ITCIACO (LSUB)
         1058:            IF CIACO-INIT-CHRGS          OF ITCIACO (LSUB) NUMERIC
         1059:               MOVE CIACO-INIT-CHRGS             OF ITCIACO (LSUB)
         1062:               MOVE CIACO-INIT-CHRGS-X           OF ITCIACO (LSUB)
         1065:            IF CIACO-INIT-PMT-AMT        OF ITCIACO (LSUB) NUMERIC
         1066:               MOVE CIACO-INIT-PMT-AMT           OF ITCIACO (LSUB)
         1073:               MOVE CIACO-INIT-PMT-AMT-X         OF ITCIACO (LSUB)
         1076:            IF CIACO-COV-SERV-CHRGS-EXC-CS OF ITCIACO (LSUB) NUMERIC
         1077:               MOVE CIACO-COV-SERV-CHRGS-EXC-CS  OF ITCIACO (LSUB)
         1080:               MOVE CIACO-COV-SERV-CHRGS-EXC-CS-X  OF ITCIACO (LSUB)
         1083:            IF CIACO-REM-COV-CHRGS       OF ITCIACO (LSUB) NUMERIC
         1084:               MOVE CIACO-REM-COV-CHRGS          OF ITCIACO (LSUB)
         1087:               MOVE CIACO-REM-COV-CHRGS-X        OF ITCIACO (LSUB)
         1090:            IF CIACO-REM-PMT-ALLWD-AMT    OF ITCIACO (LSUB) NUMERIC
         1091:               MOVE CIACO-REM-PMT-ALLWD-AMT      OF ITCIACO (LSUB)
         1094:               MOVE CIACO-REM-PMT-ALLWD-AMT-X    OF ITCIACO (LSUB)
         1097:            IF CIACO-ACCUM-SUB-LIAB       OF ITCIACO (LSUB) NUMERIC
         1098:               MOVE CIACO-ACCUM-SUB-LIAB         OF ITCIACO (LSUB)
         1101:               MOVE CIACO-ACCUM-SUB-LIAB-X       OF ITCIACO (LSUB)
         1105:            IF CIACO-INIT-ALLWD-AMT       OF ITCIACO (LSUB) NUMERIC
         1106:               MOVE CIACO-INIT-ALLWD-AMT         OF ITCIACO (LSUB)
         1109:               MOVE CIACO-INIT-ALLWD-AMT-X       OF ITCIACO (LSUB)
         1112:            IF CIACO-REM-ALLWD-AMT        OF ITCIACO (LSUB) NUMERIC
1        1113:               MOVE CIACO-REM-ALLWD-AMT          OF ITCIACO (LSUB)
         1116:               MOVE CIACO-REM-ALLWD-AMT-X        OF ITCIACO (LSUB)
         1119:            IF CIACO-ACCUM-EXCL-SUB-REDS  OF ITCIACO (LSUB) NUMERIC
         1120:               MOVE CIACO-ACCUM-EXCL-SUB-REDS    OF ITCIACO (LSUB)
         1123:               MOVE CIACO-ACCUM-EXCL-SUB-REDS-X  OF ITCIACO (LSUB)
         1127:            IF CIACO-CFAS-NON-COV-SERV    OF ITCIACO (LSUB) NUMERIC
         1128:               MOVE CIACO-CFAS-NON-COV-SERV      OF ITCIACO (LSUB)
         1131:               MOVE CIACO-CFAS-NON-COV-SERV-X    OF ITCIACO (LSUB)
         1134:            IF CIACO-CFAS-NON-COV-D-V-U   OF ITCIACO (LSUB) NUMERIC
         1135:               MOVE CIACO-CFAS-NON-COV-D-V-U     OF ITCIACO (LSUB)
         1138:               MOVE CIACO-CFAS-NON-COV-D-V-U-X   OF ITCIACO (LSUB)
         1141:            IF CIACO-CFAS-MAX-DOL         OF ITCIACO (LSUB) NUMERIC
         1142:               MOVE CIACO-CFAS-MAX-DOL           OF ITCIACO (LSUB)
         1145:               MOVE CIACO-CFAS-MAX-DOL-X         OF ITCIACO (LSUB)
         1148:            IF CIACO-CFAS-PRIV-RM-DIFF    OF ITCIACO (LSUB) NUMERIC
         1149:               MOVE CIACO-CFAS-PRIV-RM-DIFF      OF ITCIACO (LSUB)
         1152:               MOVE CIACO-CFAS-PRIV-RM-DIFF-X    OF ITCIACO (LSUB)
         1155:            IF CIACO-CFAS-DED-AMT         OF ITCIACO (LSUB) NUMERIC
         1156:               MOVE CIACO-CFAS-DED-AMT           OF ITCIACO (LSUB)
         1159:               MOVE CIACO-CFAS-DED-AMT-X         OF ITCIACO (LSUB)
         1162:            IF CIACO-CFAS-CO-PAY-AMT1     OF ITCIACO (LSUB) NUMERIC
         1163:               MOVE CIACO-CFAS-CO-PAY-AMT1       OF ITCIACO (LSUB)
         1166:               MOVE CIACO-CFAS-CO-PAY-AMT1-X     OF ITCIACO (LSUB)
         1169:            IF CIACO-CFAS-CO-PAY-AMT2     OF ITCIACO (LSUB) NUMERIC
         1170:               MOVE CIACO-CFAS-CO-PAY-AMT2       OF ITCIACO (LSUB)
         1173:               MOVE CIACO-CFAS-CO-PAY-AMT2-X     OF ITCIACO (LSUB)
         1176:            IF CIACO-CFAS-CO-INS-AMT      OF ITCIACO (LSUB) NUMERIC
         1177:               MOVE CIACO-CFAS-CO-INS-AMT        OF ITCIACO (LSUB)
         1180:               MOVE CIACO-CFAS-CO-INS-AMT-X      OF ITCIACO (LSUB)
         1183:            IF CIACO-CFAB-NON-COV-SERV    OF ITCIACO (LSUB) NUMERIC
         1184:               MOVE CIACO-CFAB-NON-COV-SERV      OF ITCIACO (LSUB)
         1187:               MOVE CIACO-CFAB-NON-COV-SERV-X    OF ITCIACO (LSUB)
         1190:            IF CIACO-CFAB-NON-COV-D-V-U   OF ITCIACO (LSUB) NUMERIC
         1191:               MOVE CIACO-CFAB-NON-COV-D-V-U     OF ITCIACO (LSUB)
         1194:               MOVE CIACO-CFAB-NON-COV-D-V-U-X   OF ITCIACO (LSUB)
         1197:            IF CIACO-CFAB-MAX-DOL         OF ITCIACO (LSUB) NUMERIC
         1198:               MOVE CIACO-CFAB-MAX-DOL           OF ITCIACO (LSUB)
         1201:               MOVE CIACO-CFAB-MAX-DOL-X         OF ITCIACO (LSUB)
         1204:            IF CIACO-CFAB-PRIV-RM-DIFF    OF ITCIACO (LSUB) NUMERIC
         1205:               MOVE CIACO-CFAB-PRIV-RM-DIFF      OF ITCIACO (LSUB)
         1208:               MOVE CIACO-CFAB-PRIV-RM-DIFF-X    OF ITCIACO (LSUB)
         1211:            IF CIACO-CFAB-DED-AMT         OF ITCIACO (LSUB) NUMERIC
         1212:               MOVE CIACO-CFAB-DED-AMT           OF ITCIACO (LSUB)
         1215:               MOVE CIACO-CFAB-DED-AMT-X         OF ITCIACO (LSUB)
         1218:            IF CIACO-CFAB-CO-PAY-AMT1     OF ITCIACO (LSUB) NUMERIC
         1219:               MOVE CIACO-CFAB-CO-PAY-AMT1       OF ITCIACO (LSUB)
         1222:               MOVE CIACO-CFAB-CO-PAY-AMT1-X     OF ITCIACO (LSUB)
         1225:            IF CIACO-CFAB-CO-PAY-AMT2     OF ITCIACO (LSUB) NUMERIC
         1226:               MOVE CIACO-CFAB-CO-PAY-AMT2       OF ITCIACO (LSUB)
         1229:               MOVE CIACO-CFAB-CO-PAY-AMT2-X     OF ITCIACO (LSUB)
         1232:            IF CIACO-CFAB-CO-INS-AMT      OF ITCIACO (LSUB) NUMERIC
         1233:               MOVE CIACO-CFAB-CO-INS-AMT        OF ITCIACO (LSUB)
         1236:               MOVE CIACO-CFAB-CO-INS-AMT-X      OF ITCIACO (LSUB)
         1239:            IF CIACO-CFAB-PRC-PCT-AMT     OF ITCIACO (LSUB) NUMERIC
         1240:               MOVE CIACO-CFAB-PRC-PCT-AMT       OF ITCIACO (LSUB)
         1243:               MOVE CIACO-CFAB-PRC-PCT-AMT-X     OF ITCIACO (LSUB)
         1247: 101300     IF CIACO-DMEB-AMT             OF ITCIACO (LSUB) NUMERIC
         1248: 101400        MOVE CIACO-DMEB-AMT               OF ITCIACO (LSUB)
         1251: 101700        MOVE CIACO-DMEB-AMT-X             OF ITCIACO (LSUB)
         1254: 102000     IF CIACO-DMES-AMT             OF ITCIACO (LSUB) NUMERIC
1        1255: 102100        MOVE CIACO-DMES-AMT               OF ITCIACO (LSUB)
         1258: 102400        MOVE CIACO-DMES-AMT-X             OF ITCIACO (LSUB)
         1263:            IF CIACO-BMFAP-SANC-DOL-RED   OF ITCIACO (LSUB) NUMERIC
         1264:               MOVE CIACO-BMFAP-SANC-DOL-RED     OF ITCIACO (LSUB)
         1267:               MOVE CIACO-BMFAP-SANC-DOL-RED-X   OF ITCIACO (LSUB)
         1270:            IF CIACO-BMFAP-SANC-PCT-RED   OF ITCIACO (LSUB) NUMERIC
         1271:               MOVE CIACO-BMFAP-SANC-PCT-RED     OF ITCIACO (LSUB)
         1274:               MOVE CIACO-BMFAP-SANC-PCT-RED-X   OF ITCIACO (LSUB)
         1277:            IF CIACO-BMFAP-EXCESS-DOL-RED   OF ITCIACO (LSUB) NUMERIC
         1278:               MOVE CIACO-BMFAP-EXCESS-DOL-RED   OF ITCIACO (LSUB)
         1281:               MOVE CIACO-BMFAP-EXCESS-DOL-RED-X OF ITCIACO (LSUB)
         1284:            IF CIACO-BMFAP-EXCESS-PER-DAY-RED OF ITCIACO (LSUB) NUMERIC
         1285:               MOVE CIACO-BMFAP-EXCESS-PER-DAY-RED OF ITCIACO (LSUB)
         1288:               MOVE CIACO-BMFAP-EXC-PERDAY-RED-X  OF ITCIACO (LSUB)
         1291:            IF CIACO-BMFAS-PROV-SANC-RED OF ITCIACO (LSUB) NUMERIC
         1292:               MOVE CIACO-BMFAS-PROV-SANC-RED OF ITCIACO (LSUB)
         1295:               MOVE CIACO-BMFAS-PROV-SANC-RED-X OF ITCIACO (LSUB)
         1300:            IF CIACO-BMFASS-NON-COV-SERV  OF ITCIACO (LSUB) NUMERIC
         1301:               MOVE CIACO-BMFASS-NON-COV-SERV    OF ITCIACO (LSUB)
         1304:               MOVE CIACO-BMFASS-NON-COV-SERV-X  OF ITCIACO (LSUB)
         1307:            IF CIACO-BMFASS-NON-COV-D-V-U OF ITCIACO (LSUB) NUMERIC
         1308:               MOVE CIACO-BMFASS-NON-COV-D-V-U   OF ITCIACO (LSUB)
         1311:               MOVE CIACO-BMFASS-NON-COV-D-V-U-X OF ITCIACO (LSUB)
         1314:            IF CIACO-BMFASS-MAX-DOL       OF ITCIACO (LSUB) NUMERIC
         1315:               MOVE CIACO-BMFASS-MAX-DOL         OF ITCIACO (LSUB)
         1318:               MOVE CIACO-BMFASS-MAX-DOL-X       OF ITCIACO (LSUB)
         1321:            IF CIACO-BMFASS-DOL-RED       OF ITCIACO (LSUB) NUMERIC
         1322:               MOVE CIACO-BMFASS-DOL-RED         OF ITCIACO (LSUB)
         1325:               MOVE CIACO-BMFASS-DOL-RED-X       OF ITCIACO (LSUB)
         1328:            IF CIACO-BMFASS-PCT-RED       OF ITCIACO (LSUB) NUMERIC
         1329:               MOVE CIACO-BMFASS-PCT-RED         OF ITCIACO (LSUB)
         1332:               MOVE CIACO-BMFASS-PCT-RED-X       OF ITCIACO (LSUB)
         1335:            IF CIACO-BMFASB-NON-COV-SERV  OF ITCIACO (LSUB) NUMERIC
         1336:               MOVE CIACO-BMFASB-NON-COV-SERV    OF ITCIACO (LSUB)
         1339:               MOVE CIACO-BMFASB-NON-COV-SERV-X  OF ITCIACO (LSUB)
         1342:            IF CIACO-BMFASB-NON-COV-D-V-U OF ITCIACO (LSUB) NUMERIC
         1343:               MOVE CIACO-BMFASB-NON-COV-D-V-U   OF ITCIACO (LSUB)
         1346:               MOVE CIACO-BMFASB-NON-COV-D-V-U-X OF ITCIACO (LSUB)
         1349:            IF CIACO-BMFASB-MAX-DOL       OF ITCIACO (LSUB) NUMERIC
         1350:               MOVE CIACO-BMFASB-MAX-DOL         OF ITCIACO (LSUB)
         1353:               MOVE CIACO-BMFASB-MAX-DOL-X       OF ITCIACO (LSUB)
         1356:            IF CIACO-BMFASB-DOL-RED       OF ITCIACO (LSUB) NUMERIC
         1357:               MOVE CIACO-BMFASB-DOL-RED         OF ITCIACO (LSUB)
         1360:               MOVE CIACO-BMFASB-DOL-RED-X       OF ITCIACO (LSUB)
         1363:            IF CIACO-BMFASB-PCT-RED       OF ITCIACO (LSUB) NUMERIC
         1364:               MOVE CIACO-BMFASB-PCT-RED         OF ITCIACO (LSUB)
         1367:               MOVE CIACO-BMFASB-PCT-RED-X       OF ITCIACO (LSUB)
         1371:            IF CIACO-SSAB-MAX-SUPP-AMT    OF ITCIACO (LSUB) NUMERIC
         1372:               MOVE CIACO-SSAB-MAX-SUPP-AMT      OF ITCIACO (LSUB)
         1375:               MOVE CIACO-SSAB-MAX-SUPP-AMT-X    OF ITCIACO (LSUB)
         1378:            IF CIACO-SSAB-SURCHARGE-AMT   OF ITCIACO (LSUB) NUMERIC
         1379:               MOVE CIACO-SSAB-SURCHARGE-AMT     OF ITCIACO (LSUB)
         1382:               MOVE CIACO-SSAB-SURCHARGE-AMT-X   OF ITCIACO (LSUB)
         1387:            IF CIACO-PMS-PAY-MAX-AMT      OF ITCIACO (LSUB) NUMERIC
         1388:               MOVE CIACO-PMS-PAY-MAX-AMT        OF ITCIACO (LSUB)
         1391:               MOVE CIACO-PMS-PAY-MAX-AMT-X      OF ITCIACO (LSUB)
         1394:            IF CIACO-PMB-PAY-MAX-AMT      OF ITCIACO (LSUB) NUMERIC
         1395:               MOVE CIACO-PMB-PAY-MAX-AMT        OF ITCIACO (LSUB)
         1398:               MOVE CIACO-PMB-PAY-MAX-AMT-X      OF ITCIACO (LSUB)
         1403: 111518     IF CIACO-DME-APPLIED-AMT-ACTUAL OF ITCIACO (LSUB) NUMERIC
1        1404: 111518        MOVE CIACO-DME-APPLIED-AMT-ACTUAL OF ITCIACO (LSUB)
         1407: 111518        MOVE CIACO-DME-APPLIED-AMT-ACTUAL-X OF ITCIACO (LSUB)
         1455:        C600-MOVE-IUCIAAJR-TO-ADJAJR.
         1463:            MOVE CIAAJR-ADJUD-DT       OF IUCIAAJR
         1465:            MOVE CIAAJR-CLM-REASON-CDS OF IUCIAAJR
         1467:            MOVE CIAAJR-DF-MSG-CDS-CLM OF IUCIAAJR
         1469:            MOVE CIAAJR-DF-MSG-CD-LN OF IUCIAAJR (1)
         1471:            MOVE CIAAJR-BMSP-ADJ-RSN-CD OF IUCIAAJR (1)
         1473:            MOVE CIAAJR-ORIG-OPERATOR-ID OF IUCIAAJR
         1475:            MOVE CIAAJR-ORIG-PROCESS-DT     OF IUCIAAJR
         1477:            MOVE CIAAJR-INVEST-IND        OF IUCIAAJR
         1479:            IF CIAAJR-INVEST-DAY        OF IUCIAAJR NUMERIC
         1480:               MOVE CIAAJR-INVEST-DAY     OF IUCIAAJR
         1483:               MOVE CIAAJR-INVEST-DAY-X   OF IUCIAAJR
         1485:            MOVE CIAAJR-CARVE-OUT-IND     OF IUCIAAJR
         1487:            IF CIAAJR-CARVE-OUT-DAY     OF IUCIAAJR NUMERIC
         1488:               MOVE CIAAJR-CARVE-OUT-DAY  OF IUCIAAJR
         1491:               MOVE CIAAJR-CARVE-OUT-DAY-X OF IUCIAAJR
         1493:            MOVE CIAAJR-ASO-IND           OF IUCIAAJR
         1496:            MOVE CIAAJR-PRIM-IND        OF IUCIAAJR
         1498:            MOVE CIAAJR-INDEM-CUTBK-IND  OF IUCIAAJR
         1519:               MOVE CIAAJR-HEALTH-POLICY-ID OF IUCIAAJR (1, 1)
         1521:               MOVE CIAAJR-HEALTH-POLICY-ID OF IUCIAAJR (1, 2)
         1523:               MOVE CIAAJR-HEALTH-POLICY-ID OF IUCIAAJR (1, 3)
         1525:               MOVE CIAAJR-HEALTH-POLICY-ID OF IUCIAAJR (1, 4)
         1527:               MOVE CIAAJR-HEALTH-POLICY-ID OF IUCIAAJR (1, 5)
         1542:            MOVE CIACO-CLM-STAT-CD       OF ITCIACO
         1544:            MOVE CIACO-CALC-TYPE-CD    OF ITCIACO
         1547:            IF CIACO-BCBS-PMT-AMT OF ITCIACO NUMERIC
         1548:               MOVE CIACO-BCBS-PMT-AMT    OF ITCIACO
         1551:               MOVE CIACO-BCBS-PMT-AMT-X  OF ITCIACO
         1554:            IF CIACO-SUB-LIAB OF ITCIACO NUMERIC
         1555:               MOVE CIACO-SUB-LIAB        OF ITCIACO
         1558:               MOVE CIACO-SUB-LIAB-X      OF ITCIACO
         1561:            IF CIACO-CALC-TYPE-CD   OF ITCIACO
         1567:            MOVE CIACO-LN-STAT-CD       OF ITCIACO (SUB)
         1570:            IF CIACO-INIT-CHRGS OF ITCIACO (SUB) NUMERIC
         1571:               MOVE CIACO-INIT-CHRGS OF ITCIACO (SUB)
         1574:               MOVE CIACO-INIT-CHRGS-X OF ITCIACO (SUB)
         1577:            IF CIACO-INIT-PMT-AMT OF ITCIACO (SUB) NUMERIC
         1578:               MOVE CIACO-INIT-PMT-AMT OF ITCIACO (SUB)
         1581:               MOVE CIACO-INIT-PMT-AMT-X OF ITCIACO (SUB)
         1584:            IF CIACO-COV-SERV-CHRGS-EXC-CS OF ITCIACO (SUB) NUMERIC
         1585:               MOVE CIACO-COV-SERV-CHRGS-EXC-CS OF ITCIACO (SUB)
         1588:               MOVE CIACO-COV-SERV-CHRGS-EXC-CS-X OF ITCIACO (SUB)
         1591:            IF CIACO-REM-COV-CHRGS    OF ITCIACO (SUB) NUMERIC
         1592:               MOVE CIACO-REM-COV-CHRGS    OF ITCIACO (SUB)
         1595:               MOVE CIACO-REM-COV-CHRGS-X    OF ITCIACO (SUB)
         1598:            IF CIACO-REM-PMT-ALLWD-AMT    OF ITCIACO (SUB) NUMERIC
         1599:               MOVE CIACO-REM-PMT-ALLWD-AMT    OF ITCIACO (SUB)
         1602:               MOVE CIACO-REM-PMT-ALLWD-AMT-X    OF ITCIACO (SUB)
         1605:            IF CIACO-ACCUM-SUB-LIAB OF ITCIACO (SUB) NUMERIC
         1606:               MOVE CIACO-ACCUM-SUB-LIAB OF ITCIACO (SUB)
         1609:               MOVE CIACO-ACCUM-SUB-LIAB-X OF ITCIACO (SUB)
         1613:            IF CIACO-INIT-ALLWD-AMT   OF ITCIACO (SUB) NUMERIC
         1614:               MOVE CIACO-INIT-ALLWD-AMT   OF ITCIACO (SUB)
         1617:               MOVE CIACO-INIT-ALLWD-AMT-X   OF ITCIACO (SUB)
         1620:            IF CIACO-REM-ALLWD-AMT      OF ITCIACO (SUB) NUMERIC
         1621:               MOVE CIACO-REM-ALLWD-AMT      OF ITCIACO (SUB)
         1624:               MOVE CIACO-REM-ALLWD-AMT-X      OF ITCIACO (SUB)
1        1627:            IF CIACO-ACCUM-EXCL-SUB-REDS   OF ITCIACO (SUB) NUMERIC
         1628:               MOVE CIACO-ACCUM-EXCL-SUB-REDS OF ITCIACO (SUB)
         1631:               MOVE CIACO-ACCUM-EXCL-SUB-REDS-X OF ITCIACO (SUB)
         1635:            IF CIACO-CFAS-NON-COV-SERV OF ITCIACO (SUB) NUMERIC
         1636:               MOVE CIACO-CFAS-NON-COV-SERV OF ITCIACO (SUB)
         1639:               MOVE CIACO-CFAS-NON-COV-SERV-X OF ITCIACO (SUB)
         1642:            IF CIACO-CFAS-NON-COV-D-V-U OF ITCIACO (SUB) NUMERIC
         1643:               MOVE CIACO-CFAS-NON-COV-D-V-U OF ITCIACO (SUB)
         1646:               MOVE CIACO-CFAS-NON-COV-D-V-U-X OF ITCIACO (SUB)
         1649:            IF CIACO-CFAS-MAX-DOL OF ITCIACO (SUB) NUMERIC
         1650:               MOVE CIACO-CFAS-MAX-DOL OF ITCIACO (SUB)
         1653:               MOVE CIACO-CFAS-MAX-DOL-X OF ITCIACO (SUB)
         1656:            IF CIACO-CFAS-PRIV-RM-DIFF OF ITCIACO (SUB) NUMERIC
         1657:               MOVE CIACO-CFAS-PRIV-RM-DIFF OF ITCIACO (SUB)
         1660:               MOVE CIACO-CFAS-PRIV-RM-DIFF-X OF ITCIACO (SUB)
         1663:            IF CIACO-CFAS-DED-AMT OF ITCIACO (SUB) NUMERIC
         1664:               MOVE CIACO-CFAS-DED-AMT OF ITCIACO (SUB)
         1667:               MOVE CIACO-CFAS-DED-AMT-X OF ITCIACO (SUB)
         1670:            IF CIACO-CFAS-CO-PAY-AMT1 OF ITCIACO (SUB) NUMERIC
         1671:               MOVE CIACO-CFAS-CO-PAY-AMT1 OF ITCIACO (SUB)
         1674:               MOVE CIACO-CFAS-CO-PAY-AMT1-X OF ITCIACO (SUB)
         1677:            IF CIACO-CFAS-CO-PAY-AMT2 OF ITCIACO (SUB) NUMERIC
         1678:               MOVE CIACO-CFAS-CO-PAY-AMT2 OF ITCIACO (SUB)
         1681:               MOVE CIACO-CFAS-CO-PAY-AMT2-X OF ITCIACO (SUB)
         1684:            IF CIACO-CFAS-CO-INS-AMT OF ITCIACO (SUB) NUMERIC
         1685:               MOVE CIACO-CFAS-CO-INS-AMT OF ITCIACO (SUB)
         1688:               MOVE CIACO-CFAS-CO-INS-AMT-X OF ITCIACO (SUB)
         1691:            IF CIACO-CFAB-NON-COV-SERV OF ITCIACO (SUB) NUMERIC
         1692:               MOVE CIACO-CFAB-NON-COV-SERV OF ITCIACO (SUB)
         1695:               MOVE CIACO-CFAB-NON-COV-SERV-X OF ITCIACO (SUB)
         1698:            IF CIACO-CFAB-NON-COV-D-V-U OF ITCIACO (SUB) NUMERIC
         1699:               MOVE CIACO-CFAB-NON-COV-D-V-U OF ITCIACO (SUB)
         1702:               MOVE CIACO-CFAB-NON-COV-D-V-U-X OF ITCIACO (SUB)
         1705:            IF CIACO-CFAB-MAX-DOL OF ITCIACO (SUB) NUMERIC
         1706:               MOVE CIACO-CFAB-MAX-DOL OF ITCIACO (SUB)
         1709:               MOVE CIACO-CFAB-MAX-DOL-X OF ITCIACO (SUB)
         1712:            IF CIACO-CFAB-PRIV-RM-DIFF OF ITCIACO (SUB) NUMERIC
         1713:               MOVE CIACO-CFAB-PRIV-RM-DIFF OF ITCIACO (SUB)
         1716:               MOVE CIACO-CFAB-PRIV-RM-DIFF-X OF ITCIACO (SUB)
         1719:            IF CIACO-CFAB-DED-AMT OF ITCIACO (SUB) NUMERIC
         1720:               MOVE CIACO-CFAB-DED-AMT OF ITCIACO (SUB)
         1723:               MOVE CIACO-CFAB-DED-AMT-X OF ITCIACO (SUB)
         1726:            IF CIACO-CFAB-CO-PAY-AMT1 OF ITCIACO (SUB) NUMERIC
         1727:               MOVE CIACO-CFAB-CO-PAY-AMT1 OF ITCIACO (SUB)
         1730:               MOVE CIACO-CFAB-CO-PAY-AMT1-X OF ITCIACO (SUB)
         1733:            IF CIACO-CFAB-CO-PAY-AMT2 OF ITCIACO (SUB) NUMERIC
         1734:               MOVE CIACO-CFAB-CO-PAY-AMT2 OF ITCIACO (SUB)
         1737:               MOVE CIACO-CFAB-CO-PAY-AMT2-X OF ITCIACO (SUB)
         1740:            IF CIACO-CFAB-CO-INS-AMT OF ITCIACO (SUB) NUMERIC
         1741:               MOVE CIACO-CFAB-CO-INS-AMT OF ITCIACO (SUB)
         1744:               MOVE CIACO-CFAB-CO-INS-AMT-X OF ITCIACO (SUB)
         1747:            IF CIACO-CFAB-PRC-PCT-AMT OF ITCIACO (SUB) NUMERIC
         1748:               MOVE CIACO-CFAB-PRC-PCT-AMT OF ITCIACO (SUB)
         1751:               MOVE CIACO-CFAB-PRC-PCT-AMT-X OF ITCIACO (SUB)
         1754:            IF CIACO-BMFASS-NON-COV-SERV OF ITCIACO (SUB) NUMERIC
         1755:               MOVE CIACO-BMFASS-NON-COV-SERV OF ITCIACO (SUB)
         1758:               MOVE CIACO-BMFASS-NON-COV-SERV-X OF ITCIACO (SUB)
         1761:            IF CIACO-BMFASS-NON-COV-D-V-U OF ITCIACO (SUB) NUMERIC
         1762:               MOVE CIACO-BMFASS-NON-COV-D-V-U OF ITCIACO (SUB)
         1765:               MOVE CIACO-BMFASS-NON-COV-D-V-U-X OF ITCIACO (SUB)
1        1768:            IF CIACO-BMFASS-MAX-DOL OF ITCIACO (SUB) NUMERIC
         1769:               MOVE CIACO-BMFASS-MAX-DOL OF ITCIACO (SUB)
         1772:               MOVE CIACO-BMFASS-MAX-DOL-X OF ITCIACO (SUB)
         1775:            IF CIACO-BMFASS-DOL-RED OF ITCIACO (SUB) NUMERIC
         1776:               MOVE CIACO-BMFASS-DOL-RED OF ITCIACO (SUB)
         1779:               MOVE CIACO-BMFASS-DOL-RED-X OF ITCIACO (SUB)
         1782:            IF CIACO-BMFASS-PCT-RED OF ITCIACO (SUB) NUMERIC
         1783:               MOVE CIACO-BMFASS-PCT-RED OF ITCIACO (SUB)
         1786:               MOVE CIACO-BMFASS-PCT-RED-X OF ITCIACO (SUB)
         1789:            IF CIACO-BMFASB-NON-COV-SERV OF ITCIACO (SUB) NUMERIC
         1790:               MOVE CIACO-BMFASB-NON-COV-SERV OF ITCIACO (SUB)
         1793:               MOVE CIACO-BMFASB-NON-COV-SERV-X OF ITCIACO (SUB)
         1796:            IF CIACO-BMFASB-NON-COV-D-V-U OF ITCIACO (SUB) NUMERIC
         1797:               MOVE CIACO-BMFASB-NON-COV-D-V-U OF ITCIACO (SUB)
         1800:               MOVE CIACO-BMFASB-NON-COV-D-V-U-X OF ITCIACO (SUB)
         1803:            IF CIACO-BMFASB-MAX-DOL OF ITCIACO (SUB) NUMERIC
         1804:               MOVE CIACO-BMFASB-MAX-DOL OF ITCIACO (SUB)
         1807:               MOVE CIACO-BMFASB-MAX-DOL-X OF ITCIACO (SUB)
         1810:            IF CIACO-BMFASB-DOL-RED OF ITCIACO (SUB) NUMERIC
         1811:               MOVE CIACO-BMFASB-DOL-RED OF ITCIACO (SUB)
         1814:               MOVE CIACO-BMFASB-DOL-RED-X OF ITCIACO (SUB)
         1817:            IF CIACO-BMFASB-PCT-RED OF ITCIACO (SUB) NUMERIC
         1818:               MOVE CIACO-BMFASB-PCT-RED OF ITCIACO (SUB)
         1821:               MOVE CIACO-BMFASB-PCT-RED-X OF ITCIACO (SUB)
         1825:            IF CIACO-SSAB-MAX-SUPP-AMT  OF ITCIACO (SUB) NUMERIC
         1826:               MOVE CIACO-SSAB-MAX-SUPP-AMT  OF ITCIACO (SUB)
         1829:               MOVE CIACO-SSAB-MAX-SUPP-AMT-X  OF ITCIACO (SUB)
         1832:            IF CIACO-SSAB-SURCHARGE-AMT OF ITCIACO (SUB) NUMERIC
         1833:               MOVE CIACO-SSAB-SURCHARGE-AMT OF ITCIACO (SUB)
         1836:               MOVE CIACO-SSAB-SURCHARGE-AMT-X OF ITCIACO (SUB)
         1841:            IF CIACO-PMS-PAY-MAX-AMT    OF ITCIACO (SUB) NUMERIC
         1842:               MOVE CIACO-PMS-PAY-MAX-AMT OF ITCIACO (SUB)
         1845:               MOVE CIACO-PMS-PAY-MAX-AMT-X OF ITCIACO (SUB)
         1848:            IF CIACO-PMB-PAY-MAX-AMT    OF ITCIACO (SUB) NUMERIC
         1849:               MOVE CIACO-PMB-PAY-MAX-AMT OF ITCIACO (SUB)
         1852:               MOVE CIACO-PMB-PAY-MAX-AMT-X OF ITCIACO (SUB)
         1857:            IF CIACO-BMFAP-SANC-DOL-RED OF ITCIACO (SUB) NUMERIC
         1858:               MOVE CIACO-BMFAP-SANC-DOL-RED OF ITCIACO (SUB)
         1861:               MOVE CIACO-BMFAP-SANC-DOL-RED-X OF ITCIACO (SUB)
         1864:            IF CIACO-BMFAP-SANC-PCT-RED OF ITCIACO (SUB) NUMERIC
         1865:               MOVE CIACO-BMFAP-SANC-PCT-RED OF ITCIACO (SUB)
         1868:               MOVE CIACO-BMFAP-SANC-PCT-RED-X OF ITCIACO (SUB)
         1871:            IF CIACO-BMFAP-EXCESS-DOL-RED  OF ITCIACO (SUB) NUMERIC
         1872:               MOVE CIACO-BMFAP-EXCESS-DOL-RED  OF ITCIACO (SUB)
         1875:               MOVE CIACO-BMFAP-EXCESS-DOL-RED-X  OF ITCIACO (SUB)
         1878:            IF CIACO-BMFAP-EXCESS-PER-DAY-RED  OF ITCIACO (SUB) NUMERIC
         1879:               MOVE CIACO-BMFAP-EXCESS-PER-DAY-RED  OF ITCIACO (SUB)
         1882:               MOVE CIACO-BMFAP-EXC-PERDAY-RED-X    OF ITCIACO (SUB)
         1885:            IF CIACO-BMFAS-PROV-SANC-RED OF ITCIACO (SUB) NUMERIC
         1886:               MOVE CIACO-BMFAS-PROV-SANC-RED OF ITCIACO (SUB)
         1889:               MOVE CIACO-BMFAS-PROV-SANC-RED-X OF ITCIACO (SUB)
         1894: 111518     IF CIACO-DME-APPLIED-AMT-ACTUAL OF ITCIACO (SUB) NUMERIC
         1895: 111518        MOVE CIACO-DME-APPLIED-AMT-ACTUAL OF ITCIACO (SUB)
         1898: 111518        MOVE CIACO-DME-APPLIED-AMT-ACTUAL-X OF ITCIACO (SUB)
0    ELEMENT   IULP9146
           38:       *R15.5   05/14/2015  05.3  E_95770   RDW: ADD ITCIAAI TO     *
          115: 010000*R15.5 E_95770 RDW BEGIN: ADD ITCIAAI TO SUPPORT ZERO PRICING
          155:                                 ITCIACP
          156:                                 ITCIACO
1         202:            PERFORM S400-RESTORE-ITCIACO     UNTIL WS-CO-SUB EQUAL
          210:       *** ITCIARD RULES INTERFACE AREA: BUILD SKELETAL FILE
          214:       *** ITCIACO CALCULATION INTERFACE AREA:
          324:                                            ITCIACP
          325:                                            ITCIACO
          327:                                            ITCIARD
          328: 030700*R15.5 E_95770 RDW ADD ITCIAAI TO SUPPORT ZERO PRICING
0    ELEMENT   IULP9147
           49:        01  WS-IUCIAAJR.
           50:            COPY IUCIAAJR REPLACING CIAAJR-TBL-ENTRY-CNT
           53:            COPY ITCIACP REPLACING CIACP-TBL-ENTRY-CNT
           56:            COPY ITCIACO REPLACING CIACO-TBL-ENTRY-CNT
           80:        01  IUCIAAJR.
           81:            COPY IUCIAAJR.
           98:                                 IUCIAAJR
           99:                                 ITCIACP
          100:                                 ITCIACO
          144:            PERFORM C130-SAVE-IUCIAAJR.
          196:        C130-SAVE-IUCIAAJR.
          199: 019200     MOVE 999    TO WS-CIAAJR-TBL-ENTRY-CNT  OF WS-IUCIAAJR.
          200:            MOVE SPACE  TO CIAAJR-DATA              OF WS-IUCIAAJR.
          201: 019400     MOVE 999    TO WS-CIAAJR-TBL-ENTRY-CNT  OF WS-IUCIAAJR.
          205:                TO CIAAJR-PAY-OVR-LN-ITEM      OF WS-IUCIAAJR(WS-S1)
          208: 020100     IF CIAAJR-TBL-ENTRY-CNT OF IUCIAAJR >= 0 AND <= 99999
          209:               MOVE CIAAJR-TBL-ENTRY-CNT      OF IUCIAAJR
          210:                 TO WS-CIAAJR-TBL-ENTRY-CNT   OF WS-IUCIAAJR
          213:                 TO WS-CIAAJR-TBL-ENTRY-CNT   OF WS-IUCIAAJR.
          214:            MOVE CIAAJR-DATA                  OF IUCIAAJR
          215:              TO CIAAJR-DATA                  OF WS-IUCIAAJR.
          216: 020900     IF CIAAJR-TBL-ENTRY-CNT OF IUCIAAJR >= 0 AND <= 99999
          217:               MOVE CIAAJR-TBL-ENTRY-CNT      OF IUCIAAJR
          218:                 TO WS-CIAAJR-TBL-ENTRY-CNT   OF WS-IUCIAAJR
          221:                 TO WS-CIAAJR-TBL-ENTRY-CNT      OF WS-IUCIAAJR.
          224:              UNTIL WS-S1 > WS-CIAAJR-TBL-ENTRY-CNT OF WS-IUCIAAJR
          226:              MOVE CIAAJR-PAY-OVR-LN-ITEM      OF IUCIAAJR(WS-S1)
          227:                TO CIAAJR-PAY-OVR-LN-ITEM      OF WS-IUCIAAJR(WS-S1)
          242: 023300     IF CIACP-TBL-ENTRY-CNT OF ITCIACP >= 0 AND <= 99999
          243:               MOVE CIACP-TBL-ENTRY-CNT       OF ITCIACP
          244:                 TO WS-CIACP-TBL-ENTRY-CNT    OF WS-ITCIACP
          248:            MOVE CIACP-PRICING-DATA           OF ITCIACP
          250: 024100     IF CIACP-TBL-ENTRY-CNT OF ITCIACP >= 0 AND <= 99999
          251:               MOVE CIACP-TBL-ENTRY-CNT       OF ITCIACP
          252:                 TO WS-CIACP-TBL-ENTRY-CNT    OF WS-ITCIACP
          258:              UNTIL WS-S1 > WS-CIACP-TBL-ENTRY-CNT OF WS-ITCIACP
          279: 026500     IF CIACO-TBL-ENTRY-CNT OF ITCIACO >= 0 AND <= 99999
          280:               MOVE CIACO-TBL-ENTRY-CNT       OF ITCIACO
          281:                 TO WS-CIACO-TBL-ENTRY-CNT    OF WS-ITCIACO
          285:            MOVE CIACO-CALC-RESULTS           OF ITCIACO
          287: 027300     IF CIACO-TBL-ENTRY-CNT OF ITCIACO >= 0 AND <= 99999
          288:               MOVE CIACO-TBL-ENTRY-CNT       OF ITCIACO
          289:                 TO WS-CIACO-TBL-ENTRY-CNT    OF WS-ITCIACO
          295:              UNTIL WS-S1 > WS-CIACO-TBL-ENTRY-CNT OF WS-ITCIACO
          417:            PERFORM C530-RESTORE-IUCIAAJR.
          451:        C530-RESTORE-IUCIAAJR.
          454:            MOVE WS-CIAAJR-TBL-ENTRY-CNT   OF WS-IUCIAAJR
          455:              TO CIAAJR-TBL-ENTRY-CNT      OF IUCIAAJR.
          456:            MOVE CIAAJR-DATA               OF WS-IUCIAAJR
          457:              TO CIAAJR-DATA               OF IUCIAAJR.
          458:            MOVE WS-CIAAJR-TBL-ENTRY-CNT   OF WS-IUCIAAJR
1         459:              TO CIAAJR-TBL-ENTRY-CNT      OF IUCIAAJR.
          461:              UNTIL WS-S1 > WS-CIAAJR-TBL-ENTRY-CNT OF WS-IUCIAAJR
          463:              MOVE CIAAJR-PAY-OVR-LN-ITEM      OF WS-IUCIAAJR(WS-S1)
          464:                TO CIAAJR-PAY-OVR-LN-ITEM      OF IUCIAAJR(WS-S1)
          470:            MOVE WS-CIACP-TBL-ENTRY-CNT    OF WS-ITCIACP
          472:            MOVE CIACP-PRICING-DATA        OF WS-ITCIACP
          474:            MOVE WS-CIACP-TBL-ENTRY-CNT    OF WS-ITCIACP
          477:              UNTIL WS-S1 > WS-CIACP-TBL-ENTRY-CNT OF WS-ITCIACP
          485:            MOVE WS-CIACO-TBL-ENTRY-CNT    OF WS-ITCIACO
          487:            MOVE CIACO-CALC-RESULTS        OF WS-ITCIACO
          489:            MOVE WS-CIACO-TBL-ENTRY-CNT    OF WS-ITCIACO
          493:              UNTIL WS-S1 > WS-CIACO-TBL-ENTRY-CNT OF WS-ITCIACO
0    ELEMENT   IULP9148
          114:                                 ITCIACP
          115:                                 ITCIACO
          116:                                 IULIACS
0    ELEMENT   IULP9149
           78:                                 ITCIACO
0    ELEMENT   IULP9160
          116: 020200 01  IUCIAAJR.                                                    02020000
          117: 020300     COPY IUCIAAJR.                                               02030000
          131: 021800 01  SFAJR.  COPY IULIASJR.                                       02180000
          132: 021900 01  SFCP.   COPY ITCIACP REPLACING CIACP-TBL-ENTRY-CNT BY        02190000
          134: 022100 01  SFCO.   COPY ITCIACO REPLACING CIACO-TBL-ENTRY-CNT BY        02210000
          137: 022400 01  ADJAJR. COPY IULIAAJR.                                       02240000
          141: 022800 01  CALREP. COPY IULIAREP.                                       02280000
          147: 022816 01  C2AJR.    COPY IULIA2JR.                                     02281602
          231: 030300                                    IUCIAAJR                      03030000
          232: 030400                                    ITCIACP                       03040000
          233: 030500                                    ITCIACO                       03050000
          364:                                           IUCIAAJR
          365:                                           ITCIACP
          366:                                           ITCIACO
          434:                                           IUCIAAJR
          435:                                           ITCIACP
          436:                                           ITCIACO
          502:                                           IUCIAAJR
          503:                                           ITCIACP
          504:                                           ITCIACO
0    ELEMENT   IULP9188
           24:       *                                  IULIACS AREA FOR MULTI PASS   *
           52:       *                                   1.T600- ADD IUCIAAJR TO CALL *
           62:       *                                    01  C2AJR.    COPY IULIA2JR.*
          101:       *         SET CIAAI-PROV-SANC-DT FROM LIACS.  PASS ITCIAAI INTO  *
          253:        01  IUCIAAJR.
          254:            COPY IUCIAAJR.
          268:        01  SFAJR.  COPY IULIASJR.
          269:        01  SFCP.   COPY ITCIACP REPLACING CIACP-TBL-ENTRY-CNT BY
          271:        01  SFCO.   COPY ITCIACO REPLACING CIACO-TBL-ENTRY-CNT BY
          274:        01  ADJAJR. COPY IULIAAJR.
          278:        01  CALREP. COPY IULIAREP.
          285:        01  C2AJR.    COPY IULIA2JR.
          367:                                           IUCIAAJR
          368:                                           ITCIACP
          369:                                           ITCIACO
          744:                       TO CIACO-BCBS-PMT-AMT OF ITCIACO
1         752:                       TO CIACO-BCBS-PMT-AMT OF ITCIACO
          760:                       TO CIACO-BCBS-PMT-AMT OF ITCIACO
          768:                       TO CIACO-BCBS-PMT-AMT OF ITCIACO
          776:                       TO CIACO-BCBS-PMT-AMT OF ITCIACO
          784:                       TO CIACO-BCBS-PMT-AMT OF ITCIACO
          792:                       TO CIACO-BCBS-PMT-AMT OF ITCIACO
          800:                       TO CIACO-BCBS-PMT-AMT OF ITCIACO
          808:                       TO CIACO-BCBS-PMT-AMT OF ITCIACO
          816:                       TO CIACO-BCBS-PMT-AMT OF ITCIACO
         1007:                   OR  CIACO-CLM-RSN-CD        OF ITCIACO (ERR-SUB1)
         1011:            IF       CIACO-CLM-ERR-MAX-IND   OF ITCIACO   NOT EQUAL
         1051:                     CIACO-CLM-RSN-CD        OF ITCIACO (ERR-SUB1).
         1089:                                           ITCIACO
         1108:                                           ITCIACP
         1109:                                           ITCIACO
         1133:                                           IUCIAAJR,
         1189:                                           IUCIAAJR
         1190:                                           ITCIACP
         1191:                                           ITCIACO
         1248:                                           IUCIAAJR,
         1265:                                           IUCIAAJR,
0    ELEMENT   IULP9200
          167:            COPY ITCIACP REPLACING CIACP-TBL-ENTRY-CNT
          182:                                 ITCIACO
0    ELEMENT   IULP9202
           75:        01  ADJAJR.  COPY IULIAAJR.
           78:        01  CALREP.  COPY IULIAREP.
           82:        01  C2AJR.    COPY IULIA2JR.
0    ELEMENT   IULP9210
           25:       *                 07/31/97 03.0    ADDED COPYMEM IULIACO         *
           43:       *        AND ITCIACO TO IULP9230.                                *00342001
          120:        01  SFAJR.  COPY IULIASJR.
          122:        01  SFCP.   COPY ITCIACP REPLACING CIACP-TBL-ENTRY-CNT BY
          131:        01  SFCO.   COPY ITCIACO REPLACING CIACO-TBL-ENTRY-CNT BY
          144:                                 ITCIACP
          145:                                 ITCIACO
          222:                                           ITCIACO
          251:                                           ITCIACP
0    ELEMENT   IULP9212
           52:       *                                    01  C2AJR.    COPY IULIA2JR.*
          180:        01  ADJAJR. COPY IULIAAJR.
          186:        01  CALREP. COPY IULIAREP.
          191:        01  C2AJR.    COPY IULIA2JR.
0    ELEMENT   IULP9214
           38:       *                                    01  C2AJR.    COPY IULIA2JR.*
          153:        01  ADJAJR. COPY IULIAAJR.
          159:        01  CALREP. COPY IULIAREP.
          164:        01  C2AJR.    COPY IULIA2JR.
0    ELEMENT   IULP9216
           18:       *                 CONTROLLER TO DIRECT THE UPDATING OF IULIACS   *
           25:       *                                    01 ITCIACP                  *
           37:       *                 07/31/97 05.0    A.ADD COPY IULIACO            *
           79: 122850*R18.0   11/09/2017  11.2  PD_122850 KJO: PASS ITCIACO TO    *00778000
          185:        01  SFCO.   COPY ITCIACO REPLACING CIACO-TBL-ENTRY-CNT BY
1         208:                                 ITCIACO
          409:                                           ITCIACO
0    ELEMENT   IULP9218
           18:       *                 CONTROLLER TO DIRECT THE UPDATING OF IULIACS   *
           89: 122850*         ADDED ITCIACO TO PROCEDURE DIVISION USING.             *
0    ELEMENT   IULP9220
           18:       *                 CONTROLLER TO DIRECT THE UPDATING OF IULIACS   *
          214:        01  SFCO.   COPY ITCIACO REPLACING CIACO-TBL-ENTRY-CNT BY
          226:                                 ITCIACO
          499:                MOVE CIACO-DED-REM-1 OF ITCIACO              TO
          501:                MOVE CIACO-DED-REM-2 OF ITCIACO              TO
          503:                MOVE CIACO-DED-REM-3 OF ITCIACO              TO
          507:                MOVE CIACO-REM-OOP-MAX OF ITCIACO            TO
          511:                IF CIACO-PAY-MAX-REM-CLM-1 OF ITCIACO > ZERO
          512:                   MOVE CIACO-PAY-MAX-REM-CLM-1 OF ITCIACO
          515:                IF CIACO-PAY-MAX-REM-CLM-2 OF ITCIACO > ZERO
          516:                   MOVE CIACO-PAY-MAX-REM-CLM-2 OF ITCIACO
          519:                IF CIACO-PAY-MAX-REM-CLM-3 OF ITCIACO > ZERO
          520:                   MOVE CIACO-PAY-MAX-REM-CLM-3 OF ITCIACO
0    ELEMENT   IULP9222
           11:       *   NAME:         ALIM SUBSEQUENT PROCESS COMPOSITE ITCIACO AND  *
           12:       *                 IULIACS BUILD MODULE                           *
           20:       *                 ITCIACO AND IULIACS.                           *
          149:            COPY IULIACS REPLACING LIACSX3
          165:                                 ITCIACO
0    ELEMENT   IULP9224
          127:        01  ADJAJR. COPY IULIAAJR.
          133:        01  CALREP. COPY IULIAREP.
          137:        01  C2AJR.    COPY IULIA2JR.
0    ELEMENT   IULP9226
          128:        01  ADJAJR. COPY IULIAAJR.
          134:        01  CALREP. COPY IULIAREP.
          138:        01  C2AJR.    COPY IULIA2JR.
0    ELEMENT   IULP9228
          128:        01  ADJAJR. COPY IULIAAJR.
          134:        01  CALREP. COPY IULIAREP.
          138:        01  C2AJR.    COPY IULIA2JR.
0    ELEMENT   IULP9230
           28:       *                                  REVENUE CODE TO ORIG ITCIACP  *
           33:       *                                 IULIACS                        *
           43:       *                                   CIACP-CAP-IND OF ITCIACP (1) *
          109:       *        SFCP TO ITCIACP ON PROFESSIONAL CLAIMS.                 *
          132: 131318*         MOVE TIER INDICATORS FROM SFCP TO ITCIACP              *
          354:            COPY IULIASJR.
          357:            COPY ITCIACP REPLACING CIACP-TBL-ENTRY-CNT
          379:                                 ITCIACP
          436:                               TO CIACP-TOT-CHRG           OF ITCIACP
          444:                               TO CIACP-DRG-CD             OF ITCIACP
          451:                               TO CIACP-CASE-ALLW-AMT      OF ITCIACP
          456:                               TO CIACP-CASE-ALLW-AMT      OF ITCIACP
          465:                                                           OF ITCIACP
          481:                     COMPUTE CIACP-PRIV-RM-RATE OF ITCIACP =
          485:                     MOVE ZERO TO CIACP-PRIV-RM-RATE       OF ITCIACP
1         489:                               TO CIACP-PRIV-RM-RATE       OF ITCIACP
          492:                               TO CIACP-PRIV-RM-RATE-X     OF ITCIACP
          496:                               TO CIACP-PRIV-RM-RATE       OF ITCIACP
          499:                               TO CIACP-PRIV-RM-RATE-X     OF ITCIACP
          503:                               TO CIACP-PRIV-RM-RATE       OF ITCIACP
          515:                               TO CIACP-PCT-FCTR-CLM       OF ITCIACP
          522:                               TO CIACP-PRC-MTD-CLM        OF ITCIACP
          524:                               TO CIACP-RULE-NUM-PRIM-CLM  OF ITCIACP
          526:               MOVE SPACES     TO CIACP-PRC-MTD-CLM        OF ITCIACP
          535:                 CIACP-ACCOM-ANC-SERV-CD OF ITCIACP (1).
          538:                       TO CIACP-ACCOM-ANC-SERV-CD   OF ITCIACP (1).
          543:            MOVE SPACES TO CIACP-CLASS-PROV-LN      OF ITCIACP (1).
          545:            IF CIACP-ACCOM-ANC-SERV-CD   OF ITCIACP (1)
          549:            IF CIACP-ACCOM-ANC-SERV-CD   OF ITCIACP (1)
          553:            IF CIACP-ACCOM-ANC-SERV-CD   OF ITCIACP (1)
          558:                      TO CIACP-LN                        OF ITCIACP (1).
          569:                      TO CIACP-PRC-MTD-LN                OF ITCIACP (1)
          571:                      TO CIACP-RULE-NUM-LN               OF ITCIACP (1)
          579:               MOVE WS-01  TO CIACP-INCL-GROUPING-NBR    OF ITCIACP (1)
          580:                              CIACP-NBR-INCL-GRPS        OF ITCIACP
          581:               MOVE WS-Y   TO CIACP-INCL-GRP-PRIMARY-IND OF ITCIACP (1)
          583:               MOVE SPACES TO CIACP-INCL-GROUPING-NBR    OF ITCIACP (1)
          584:                              CIACP-NBR-INCL-GRPS        OF ITCIACP
          585:                              CIACP-INCL-GRP-PRIMARY-IND OF ITCIACP (1)
          598:              TO CIACP-SRC-PMT-CD       OF ITCIACP   (1).
          600:              TO CIACP-SRC-PMT-CD       OF ITCIACP   (2).
          602:              TO CIACP-SRC-PMT-CD       OF ITCIACP   (3).
          604:              TO CIACP-ITS-PAYER-IND      OF ITCIACP  (1).
          606:              TO CIACP-ITS-PAYER-IND      OF ITCIACP  (2).
          608:              TO CIACP-ITS-PAYER-IND      OF ITCIACP  (3).
          613:            MOVE SPACE TO CIACP-COB-LN-DATA        OF ITCIACP (1).
          620:              TO CIACP-SF-MSG-CDS-LN-AREA OF ITCIACP (1).
          626:                   TO CIACP-SPEC-PRC-COND-AMT-CLM OF ITCIACP (WS-S1)
          628:                   TO CIACP-SPEC-PRC-COND-PCT-CLM OF ITCIACP (WS-S1)
          630:                   TO CIACP-SPEC-PRC-COND-AMT-LN  OF ITCIACP (WS-1 WS-S1)
          632:                   TO CIACP-SPEC-PRC-COND-PCT-LN  OF ITCIACP (WS-1 WS-S1)
          645:                 IF CIACP-PRC-MTD-LN OF ITCIACP (WS-1) = SPACES
          652:                      TO CIACP-SF-MSG-CD-CLM OF ITCIACP (WS-S1)
          657:                         OF ITCIACP (WS-S1)
          669:                      TO CIACP-SF-MSG-CD-LN OF ITCIACP (WS-1 WS-S1)
          691:                 IF CIACP-PRC-MTD-LN OF ITCIACP (WS-1) = SPACES
          695:                      TO CIACP-SF-MSG-CD-CLM OF ITCIACP (WS-S1)
          697:                      TO CIACP-SPEC-PRC-COND-CD-CLM OF ITCIACP (WS-S1)
          700:                      TO CIACP-SPEC-PRC-COND-PCT-CLM OF ITCIACP (WS-S1)
          704:                      TO CIACP-SF-MSG-CD-LN  OF ITCIACP (WS-1 WS-S1)
         1004:                               OF ITCIACP (WS-S4)
         1008:                               OF ITCIACP (WS-S4)
         1012:                               OF ITCIACP (WS-S4)
         1155:                 TO CIACP-LINE-BUS           OF ITCIACP
         1161:                 TO CIACP-MED-ASGNMT-IND     OF ITCIACP
         1189:                  MOVE SPACES       TO CIACP-AMT-WORK-X OF ITCIACP
         1198:                                    TO CIACP-AMT-WORK OF ITCIACP
         1204:                                    TO CIACP-AMT-WORK-X OF ITCIACP
         1208:                                    TO CIACP-AMT-WORK OF ITCIACP
         1219:                                       OF ITCIACP (1)
         1231:                 TO CIACP-LNG-STAY                   OF ITCIACP
         1233:               MOVE ZEROES TO CIACP-LNG-STAY         OF ITCIACP
         1320: IP4046                 TO CIACP-SPEC-PRC-COND-AMT-CLM OF ITCIACP
         1404:            IF  CIACP-SF-MSG-CD-LN OF ITCIACP (WS-1, WS-S4)
         1407:                     CIACP-SF-MSG-CD-LN OF ITCIACP (WS-1, WS-S4)
1        1434:            IF  CIACP-SPEC-PRC-COND-CD-LN OF ITCIACP (WS-1, WS-S4)
         1437:                     CIACP-SPEC-PRC-COND-CD-LN OF ITCIACP
         1458:                       TO CIACP-REV-PROC-CD         OF ITCIACP (1).
         1461:                       TO CIACP-REV-TYPE-CD         OF ITCIACP (1).
         1466:            MOVE ZEROS TO CIACP-ACCOM-RATE          OF ITCIACP (1).
         1470:                       TO CIACP-NUM-SERV            OF ITCIACP (1)
         1473:                       TO CIACP-NUM-SERV-X          OF ITCIACP (1).
         1477:                       TO CIACP-SERV-CHRG           OF ITCIACP (1)
         1480:                       TO CIACP-SERV-CHRG-X         OF ITCIACP (1).
         1485:                       TO CIACP-PRC-MTD-LN          OF ITCIACP (1)
         1490:                       TO CIACP-PRC-MTD-LN          OF ITCIACP (1).
         1495:                       TO CIACP-RULE-NUM-LN         OF ITCIACP (1)
         1498:                       TO CIACP-RULE-NUM-LN         OF ITCIACP (1).
         1504:                       TO CIACP-PCT-FCTR-LN         OF ITCIACP (1).
         1507:                       TO CIACP-CAP-IND             OF ITCIACP (1).
         1542:                       TO CIACP-REV-PROC-CD         OF ITCIACP (1).
         1545:                       TO CIACP-REV-TYPE-CD         OF ITCIACP (1).
         1551:                       TO CIACP-DT-SERV             OF ITCIACP (1).
         1555:                       TO CIACP-NUM-SERV            OF ITCIACP (1)
         1558:                       TO CIACP-NUM-SERV-X          OF ITCIACP (1).
         1562:                       TO CIACP-SERV-CHRG           OF ITCIACP (1)
         1565:                       TO CIACP-SERV-CHRG-X         OF ITCIACP (1).
         1571:                       TO CIACP-LOC-RATE-SERV-ALLW-AMT OF ITCIACP (1)
         1574:                       TO CIACP-LOC-RATE-SERV-ALLW-AMT OF ITCIACP (1).
         1577:                       TO CIACP-PRC-MTD-LN          OF ITCIACP (1).
         1581:                       TO CIACP-PCT-FCTR-LN         OF ITCIACP (1).
         1586:                       TO CIACP-RULE-NUM-LN         OF ITCIACP (1)
         1589:                       TO CIACP-RULE-NUM-LN         OF ITCIACP (1).
         1592:                       TO CIACP-CAP-IND             OF ITCIACP (1).
         1600:                       TO CIACP-REV-PROC-CD         OF ITCIACP (1).
         1603:                       TO CIACP-REV-TYPE-CD         OF ITCIACP (1).
         1610:                       TO CIACP-DT-SERV             OF ITCIACP (1).
         1614:                       TO CIACP-SERV-CHRG           OF ITCIACP (1)
         1617:                       TO CIACP-SERV-CHRG-X         OF ITCIACP (1).
         1621:                       TO CIACP-NUM-SERV            OF ITCIACP (1)
         1624:                       TO CIACP-NUM-SERV-X          OF ITCIACP (1).
         1630:                       TO CIACP-LOC-RATE-SERV-ALLW-AMT OF ITCIACP (1)
         1633:                       TO CIACP-LOC-RATE-SERV-ALLW-AMT OF ITCIACP (1).
         1636:                       TO CIACP-PRC-MTD-LN          OF ITCIACP (1).
         1640:                       TO CIACP-PCT-FCTR-LN         OF ITCIACP (1).
         1645:                       TO CIACP-RULE-NUM-LN         OF ITCIACP (1)
         1648:                       TO CIACP-RULE-NUM-LN         OF ITCIACP (1).
         1651:                       TO CIACP-CAP-IND             OF ITCIACP (1).
         1655:                       TO CIACP-TYPE-SERV           OF ITCIACP (1).
         1660:                       TO CIACP-CLASS-PROV-LN       OF ITCIACP (1).
         1665: 131318                TO CIACP-TIER-DESIG-IND-LN   OF ITCIACP (1).
         1688:                                           OF ITCIACP (1)
         1696:                    TO CIACP-SUPP-THRSHLD-AMT OF ITCIACP (1)
         1727:                                           OF ITCIACP (1)
         1753:               MOVE ZEROES              TO CIACP-AMT-WORK OF ITCIACP
         1784:                  MOVE ZEROES           TO CIACP-AMT-WORK OF ITCIACP
0    ELEMENT   IULP9240
           36:       *                                        WS-SAVED-ITCIACP        *
           37:       *                                        WS-SAVED-ITCIACO        *
           42:       *                                    TO WS-SAVED-ITCIACO         *
           64:       *         CREATE COPYBOOKS FOR IULWSCI, IULWSCO, IULWSCP         *00560000
           66:       *         ITCIACI, ITCIACO AND ITCIACP.  REMOVE PAGE EJECTS.     *00562000
          200:        01  IUCIAAJR.
          201:            COPY IUCIAAJR.
1         340:                                           IUCIAAJR
          341:                                           ITCIACP
          342:                                           ITCIACO
          345:                                           IULIACS
          441:            PERFORM B400-SAVE-ITCIACP           THRU B400-EXIT.
          443:            PERFORM B500-SAVE-ITCIACO           THRU B500-EXIT.
          459:            IF CIACO-CLM-RSN-CD        OF ITCIACO (SUB) =
          478:            IF CIACO-LN-RSN-CD        OF ITCIACO (SUB, LSUB) =
          521:            MOVE CIACO-CALC-RESULTS OF ITCIACO TO S-CIACO-CALC-RESULTS.
          522:            MOVE CIACO-CALC-RESULTS-LN-ITEM   OF ITCIACO (1) TO
          524:            MOVE CIACO-CALC-RESULTS-LN-ITEM   OF ITCIACO (2) TO
          542:              PERFORM C300-RESTORE-ITCIACP           THRU C300-EXIT
          543:              PERFORM C400-RESTORE-ITCIACO           THRU C400-EXIT
          565:              PERFORM C300-RESTORE-ITCIACP           THRU C300-EXIT
          566:              PERFORM C400-RESTORE-ITCIACO           THRU C400-EXIT
          584:            PERFORM C300-RESTORE-ITCIACP           THRU C300-EXIT.
          594:            MOVE CIACO-CLM-STAT-CD       OF ITCIACO TO
          597:            IF CIACO-CLM-RSN-CD        OF ITCIACO (1) > SPACES
          598:                MOVE CIACO-CLM-RSN-CD        OF ITCIACO (1) TO
          601:            IF CIACO-LN-RSN-CD        OF ITCIACO (2, 1) > SPACES
          602:                MOVE CIACO-LN-RSN-CD        OF ITCIACO (2, 1) TO
          639:                 CIACO-CALC-RESULTS-LN-ITEM   OF ITCIACO (1).
          641:                 CIACO-CALC-RESULTS-LN-ITEM   OF ITCIACO (2).
          751:                OR      CIACO-CLM-RSN-CD        OF ITCIACO (ERR-SUB1)
          754:            IF       CIACO-CLM-ERR-MAX-IND   OF ITCIACO   NOT EQUAL
          772:                    OR    CIACO-LN-RSN-CD        OF ITCIACO
          814:                     CIACO-CLM-RSN-CD        OF ITCIACO (ERR-SUB1).
          828:                     CIACO-LN-ERR-MAX-IND   OF ITCIACO (LINE-SUB)
          830:            IF       CIACO-LN-RSN-CD        OF ITCIACO
          847:                     CIACO-LN-RSN-CD        OF ITCIACO
          866:                                           ITCIACP
          867:                                           ITCIACO
          884:                                           IUCIAAJR,
          942:                                           ITCIACO
0    ELEMENT   IULP9242
           18:       *                 IT BUILDS THE ITCIACI AND ITCIACP INTERFACE    *
          184:                                           ITCIACP
          185:                                           ITCIACO
          223:            PERFORM B200-BUILD-ITCIACP THRU B200-EXIT
0    ELEMENT   IULP9246
           19:       *                 IT BUILDS A COMPOSITE ITCIACO OUTPUT AREA      *
          176:                                           ITCIACO
          186:            PERFORM A200-BUILD-ITCIACO  THRU A200-EXIT.
0    ELEMENT   IULP9260
          299:        01  IUCIAAJR.
          300:            COPY IUCIAAJR.
          321:                                 IUCIAAJR
          322:                                 ITCIACP
          323:                                 ITCIACO
          540:                  TO CIACP-ACCOM-ANC-SERV-CD OF ITCIACP (1)
0    ELEMENT   IULP9270
           47:       *R14.0.1 02/20/2014  06.4  TD_93189  KJO: PASS ITCIACO TO    *
          117:        01  IUCIAAJR.
          118:            COPY IUCIAAJR.
          132:        01  SFAJR.  COPY IULIASJR.
          133:        01  SFCP.   COPY ITCIACP REPLACING CIACP-TBL-ENTRY-CNT BY
1         135:        01  SFCO.   COPY ITCIACO REPLACING CIACO-TBL-ENTRY-CNT BY
          138:        01  ADJAJR. COPY IULIAAJR.
          142:        01  CALREP. COPY IULIAREP.
          148:        01  C2AJR.    COPY IULIA2JR.
          229:                                           IUCIAAJR
          230:                                           ITCIACP
          231:                                           ITCIACO
          481:                                           IUCIAAJR
          495:                                           ITCIACP
          496:                                           ITCIACO
          512:                                           IUCIAAJR,
          572:                                           IUCIAAJR
0    ELEMENT   IULP9272
           71:        01  ADJAJR.  COPY IULIAAJR.
           74:        01  CALREP.  COPY IULIAREP.
           78:        01  C2AJR.    COPY IULIA2JR.
0    ELEMENT   IULP9274
          122:        01  ADJAJR. COPY IULIAAJR.
          128:        01  CALREP. COPY IULIAREP.
          132:        01  C2AJR.    COPY IULIA2JR.
0    ELEMENT   IULP9276
          122:        01  ADJAJR. COPY IULIAAJR.
          128:        01  CALREP. COPY IULIAREP.
          132:        01  C2AJR.    COPY IULIA2JR.
0    ELEMENT   IULP9278
          121:        01  ADJAJR. COPY IULIAAJR.
          127:        01  CALREP. COPY IULIAREP.
          131:        01  C2AJR.    COPY IULIA2JR.
0    ELEMENT   IULP9280
          121:        01  ADJAJR. COPY IULIAAJR.
          127:        01  CALREP. COPY IULIAREP.
          131:        01  C2AJR.    COPY IULIA2JR.
0    ELEMENT   IULP9282
          121:        01  ADJAJR. COPY IULIAAJR.
          127:        01  CALREP. COPY IULIAREP.
          131:        01  C2AJR.    COPY IULIA2JR.
0    ELEMENT   IULP9284
           89:        01  IUCIAAJR.
           90:            COPY IUCIAAJR.
          109:                                 IUCIAAJR
          160:       ****    IF CIAAJR-PRIM-IND OF IUCIAAJR = LIACS-PRIM-IND OF CALCS
          161:               IF CIAAJR-PRIM-IND OF IUCIAAJR = WS-S
0    ELEMENT   IULP9286
           30:       *        PASS ADJCO/IULIACO AND ITCIACO TO IULP9290 (TO IULP9230)*
          107:        01  SFAJR.  COPY IULIASJR.
          109:        01  SFCP.   COPY ITCIACP REPLACING CIACP-TBL-ENTRY-CNT BY
          131:                                 ITCIACP
          132:                                 ITCIACO
          211:                                           ITCIACO
          238:                                           ITCIACP
0    ELEMENT   IULP9288
1          11:       *   NAME:         ALIM BUILD C2 OPL ITCIACO AREA MODULE          *
           18:       *                 ITCIACO AREA. THE C2 ITCIACO AREA IS PASSED    *
          112:            COPY ITCIACO REPLACING
          114:                 == DEPENDING ON CIACO-TBL-ENTRY-CNT OF ITCIACO ==.
          129:                                 ITCIACO
          159:               MOVE TWO TO CIACO-TBL-ENTRY-CNT OF ITCIACO
          177:       *R14.0 E_84725 GWS MOVE STATEMENTS FOR NEW ITCIACO FIELDS
          199:                   CIACO-BCBS-PMT-AMT OF ITCIACO
          218:                   CIACO-INIT-PMT-AMT OF ITCIACO (ONE)
          219:                   CIACO-INIT-PMT-AMT OF ITCIACO (N-PLUS-1)
          222:                   CIACO-INIT-PMT-AMT OF ITCIACO (ONE).
          244:                  CIACO-COV-SERV-CHRGS-EXC-CS OF ITCIACO (ONE)
          245:                  CIACO-COV-SERV-CHRGS-EXC-CS OF ITCIACO (N-PLUS-1)
          248:                  CIACO-COV-SERV-CHRGS-EXC-CS OF ITCIACO (ONE).
          275:                   CIACO-REM-COV-CHRGS    OF ITCIACO (ONE)
          276:                   CIACO-REM-COV-CHRGS    OF ITCIACO (N-PLUS-1)
          279:                   CIACO-REM-COV-CHRGS    OF ITCIACO (ONE).
          286:                   CIACO-REM-ALLWD-AMT      OF ITCIACO (ONE)
          287:                   CIACO-REM-ALLWD-AMT      OF ITCIACO (N-PLUS-1)
          290:                   CIACO-REM-ALLWD-AMT      OF ITCIACO (ONE).
          297:                   CIACO-REM-PMT-ALLWD-AMT    OF ITCIACO (ONE)
          298:                   CIACO-REM-PMT-ALLWD-AMT    OF ITCIACO (N-PLUS-1)
          301:                   CIACO-REM-PMT-ALLWD-AMT    OF ITCIACO (ONE).
          309:                   CIACO-ACCUM-EXCL-SUB-REDS  OF ITCIACO (ONE)           02630011
          310:                   CIACO-ACCUM-EXCL-SUB-REDS  OF ITCIACO (N-PLUS-1)      02640011
          313:                   CIACO-ACCUM-EXCL-SUB-REDS  OF ITCIACO (ONE).          02670011
          320:               IF CIACO-SSAB-SURCHARGE-AMT OF ITCIACO (ONE)
          323:                    TO CIACO-SSAB-SURCHARGE-AMT OF ITCIACO (ONE)
          325:               IF CIACO-SSAB-SURCHARGE-AMT OF ITCIACO (N-PLUS-1)
          328:                    TO CIACO-SSAB-SURCHARGE-AMT OF ITCIACO (N-PLUS-1)
          331:                   CIACO-SSAB-SURCHARGE-AMT   OF ITCIACO (ONE)
          332:                   CIACO-SSAB-SURCHARGE-AMT   OF ITCIACO (N-PLUS-1)
          334:               IF CIACO-SSAB-SURCHARGE-AMT OF ITCIACO (ONE)
          337:                    TO CIACO-SSAB-SURCHARGE-AMT OF ITCIACO (ONE)
          340:                   CIACO-SSAB-SURCHARGE-AMT   OF ITCIACO (ONE).
          347: 027300        IF CIACO-SSAB-MAX-SUPP-AMT  OF ITCIACO (ONE)              02730011
          350: 027600             TO CIACO-SSAB-MAX-SUPP-AMT  OF ITCIACO (ONE)         02760011
          352: 027800        IF CIACO-SSAB-MAX-SUPP-AMT  OF ITCIACO (N-PLUS-1)         02780011
          355: 028100             TO CIACO-SSAB-MAX-SUPP-AMT  OF ITCIACO (N-PLUS-1)    02810011
          358: 028400            CIACO-SSAB-MAX-SUPP-AMT    OF ITCIACO (ONE)           02840011
          359: 028500            CIACO-SSAB-MAX-SUPP-AMT    OF ITCIACO (N-PLUS-1)      02850011
          361: 028700        IF CIACO-SSAB-MAX-SUPP-AMT  OF ITCIACO (ONE)              02870011
          364: 029000             TO CIACO-SSAB-MAX-SUPP-AMT  OF ITCIACO (ONE)         02900011
          367: 029300            CIACO-SSAB-MAX-SUPP-AMT    OF ITCIACO (ONE)           02930011
          380: 111518         TO CIACO-DME-APPLIED-AMT-ACTUAL  OF ITCIACO (ONE)        02630011
          381: 111518            CIACO-DME-APPLIED-AMT-ACTUAL  OF ITCIACO (N-PLUS-1)   02640011
          384: 111518         TO CIACO-DME-APPLIED-AMT-ACTUAL  OF ITCIACO (ONE).       02670011
          401:                   CIACO-ACCUM-SUB-LIAB OF ITCIACO (ONE)
          402:                   CIACO-ACCUM-SUB-LIAB OF ITCIACO (N-PLUS-1)
          405:                   CIACO-ACCUM-SUB-LIAB OF ITCIACO (ONE).
          411:               IF CIACO-PMS-PAY-MAX-AMT    OF ITCIACO (ONE)
          414:                    TO CIACO-PMS-PAY-MAX-AMT    OF ITCIACO (ONE)
          416:               IF CIACO-PMS-PAY-MAX-AMT    OF ITCIACO (N-PLUS-1)
          419:                    TO CIACO-PMS-PAY-MAX-AMT    OF ITCIACO (N-PLUS-1)
          425:               IF CIACO-PMS-PAY-MAX-AMT    OF ITCIACO (ONE)
          428:                    TO CIACO-PMS-PAY-MAX-AMT    OF ITCIACO (ONE)
          434:               IF CIACO-PMB-PAY-MAX-AMT    OF ITCIACO (ONE)
          437:                    TO CIACO-PMB-PAY-MAX-AMT    OF ITCIACO (ONE)
          439:               IF CIACO-PMB-PAY-MAX-AMT    OF ITCIACO (N-PLUS-1)
          442:                    TO CIACO-PMB-PAY-MAX-AMT    OF ITCIACO (N-PLUS-1)
1         448:               IF CIACO-PMB-PAY-MAX-AMT    OF ITCIACO (ONE)
          451:                    TO CIACO-PMB-PAY-MAX-AMT    OF ITCIACO (ONE)
          489:                   CIACO-CFAS-NON-COV-SERV OF ITCIACO (ONE)
          490:                   CIACO-CFAS-NON-COV-SERV OF ITCIACO (N-PLUS-1)
          493:                   CIACO-CFAS-NON-COV-SERV OF ITCIACO (ONE).
          500:                   CIACO-CFAS-NON-COV-D-V-U OF ITCIACO (ONE)
          501:                   CIACO-CFAS-NON-COV-D-V-U OF ITCIACO (N-PLUS-1)
          504:                   CIACO-CFAS-NON-COV-D-V-U OF ITCIACO (ONE).
          511:                   CIACO-CFAS-MAX-DOL OF ITCIACO (ONE)
          512:                   CIACO-CFAS-MAX-DOL OF ITCIACO (N-PLUS-1)
          515:                   CIACO-CFAS-MAX-DOL OF ITCIACO (ONE).
          522:                   CIACO-CFAS-PRIV-RM-DIFF OF ITCIACO (ONE)
          523:                   CIACO-CFAS-PRIV-RM-DIFF OF ITCIACO (N-PLUS-1)
          526:                   CIACO-CFAS-PRIV-RM-DIFF OF ITCIACO (ONE).
          533:                   CIACO-CFAS-DED-AMT OF ITCIACO (ONE)
          534:                   CIACO-CFAS-DED-AMT OF ITCIACO (N-PLUS-1)
          537:                   CIACO-CFAS-DED-AMT OF ITCIACO (ONE).
          544:                   CIACO-CFAS-CO-PAY-AMT1 OF ITCIACO (ONE)
          545:                   CIACO-CFAS-CO-PAY-AMT1 OF ITCIACO (N-PLUS-1)
          548:                   CIACO-CFAS-CO-PAY-AMT1 OF ITCIACO (ONE).
          556:                   CIACO-CFAS-CO-INS-AMT OF ITCIACO (ONE)
          557:                   CIACO-CFAS-CO-INS-AMT OF ITCIACO (N-PLUS-1)
          561:                   CIACO-CFAS-CO-INS-AMT OF ITCIACO (ONE).
          584:                   CIACO-INIT-ALLWD-AMT   OF ITCIACO (ONE)
          585:                   CIACO-INIT-ALLWD-AMT   OF ITCIACO (N-PLUS-1)
          588:                   CIACO-INIT-ALLWD-AMT   OF ITCIACO (ONE).
          621:                   CIACO-CFAB-NON-COV-SERV OF ITCIACO (ONE)
          622:                   CIACO-CFAB-NON-COV-SERV OF ITCIACO (N-PLUS-1)
          625:                   CIACO-CFAB-NON-COV-SERV OF ITCIACO (ONE).
          632:                   CIACO-CFAB-NON-COV-D-V-U OF ITCIACO (ONE)
          633:                   CIACO-CFAB-NON-COV-D-V-U OF ITCIACO (N-PLUS-1)
          636:                   CIACO-CFAB-NON-COV-D-V-U OF ITCIACO (ONE).
          643:                   CIACO-CFAB-MAX-DOL OF ITCIACO (ONE)
          644:                   CIACO-CFAB-MAX-DOL OF ITCIACO (N-PLUS-1)
          647:                   CIACO-CFAB-MAX-DOL OF ITCIACO (ONE).
          654:                   CIACO-CFAB-PRIV-RM-DIFF OF ITCIACO (ONE)
          655:                   CIACO-CFAB-PRIV-RM-DIFF OF ITCIACO (N-PLUS-1)
          658:                   CIACO-CFAB-PRIV-RM-DIFF OF ITCIACO (ONE).
          665:                   CIACO-CFAB-DED-AMT OF ITCIACO (ONE)
          666:                   CIACO-CFAB-DED-AMT OF ITCIACO (N-PLUS-1)
          669:                   CIACO-CFAB-DED-AMT OF ITCIACO (ONE).
          676:                   CIACO-CFAB-CO-PAY-AMT1 OF ITCIACO (ONE)
          677:                   CIACO-CFAB-CO-PAY-AMT1 OF ITCIACO (N-PLUS-1)
          680:                   CIACO-CFAB-CO-PAY-AMT1 OF ITCIACO (ONE).
          688:                   CIACO-CFAB-CO-INS-AMT OF ITCIACO (ONE)
          689:                   CIACO-CFAB-CO-INS-AMT OF ITCIACO (N-PLUS-1)
          693:                   CIACO-CFAB-CO-INS-AMT OF ITCIACO (ONE).
          708:                   CIACO-CFAB-PRC-PCT-AMT OF ITCIACO (ONE)
          709:                   CIACO-CFAB-PRC-PCT-AMT OF ITCIACO (N-PLUS-1)
          712:                   CIACO-CFAB-PRC-PCT-AMT OF ITCIACO (ONE).
          737:                TO CIACO-BMFASS-NON-COV-SERV OF ITCIACO (ONE)
          738:                   CIACO-BMFASS-NON-COV-SERV OF ITCIACO (N-PLUS-1)
          741:                TO CIACO-BMFASS-NON-COV-SERV OF ITCIACO (ONE).
          748:                TO CIACO-BMFASS-NON-COV-D-V-U OF ITCIACO (ONE)
          749:                   CIACO-BMFASS-NON-COV-D-V-U OF ITCIACO (N-PLUS-1)
          752:                TO CIACO-BMFASS-NON-COV-D-V-U OF ITCIACO (ONE).
          759:                   CIACO-BMFASS-MAX-DOL OF ITCIACO (ONE)
          760:                   CIACO-BMFASS-MAX-DOL OF ITCIACO (N-PLUS-1)
          763:                   CIACO-BMFASS-MAX-DOL OF ITCIACO (ONE).
          770:                   CIACO-BMFASS-DOL-RED OF ITCIACO (ONE)
1         771:                   CIACO-BMFASS-DOL-RED OF ITCIACO (N-PLUS-1)
          774:                   CIACO-BMFASS-DOL-RED OF ITCIACO (ONE).
          781:                   CIACO-BMFASS-PCT-RED OF ITCIACO (ONE)
          782:                   CIACO-BMFASS-PCT-RED OF ITCIACO (N-PLUS-1)
          785:                   CIACO-BMFASS-PCT-RED OF ITCIACO (ONE).
          805:                TO CIACO-BMFASB-NON-COV-SERV OF ITCIACO (ONE)
          806:                   CIACO-BMFASB-NON-COV-SERV OF ITCIACO (N-PLUS-1)
          809:                TO CIACO-BMFASB-NON-COV-SERV OF ITCIACO (ONE).
          816:                TO CIACO-BMFASB-NON-COV-D-V-U OF ITCIACO (ONE)
          817:                   CIACO-BMFASB-NON-COV-D-V-U OF ITCIACO (N-PLUS-1)
          820:                TO CIACO-BMFASB-NON-COV-D-V-U OF ITCIACO (ONE).
          827:                   CIACO-BMFASB-MAX-DOL OF ITCIACO (ONE)
          828:                   CIACO-BMFASB-MAX-DOL OF ITCIACO (N-PLUS-1)
          831:                   CIACO-BMFASB-MAX-DOL OF ITCIACO (ONE).
          838:                   CIACO-BMFASB-DOL-RED OF ITCIACO (ONE)
          839:                   CIACO-BMFASB-DOL-RED OF ITCIACO (N-PLUS-1)
          842:                   CIACO-BMFASB-DOL-RED OF ITCIACO (ONE).
          849:                   CIACO-BMFASB-PCT-RED OF ITCIACO (ONE)
          850:                   CIACO-BMFASB-PCT-RED OF ITCIACO (N-PLUS-1)
          853:                   CIACO-BMFASB-PCT-RED OF ITCIACO (ONE).
          855:       *R14.0 E_84725 GWS BEGIN MOVE STATEMENTS FOR NEW ITCIACO FIELDS
          877:                   TO CIACO-BMFAP-SANC-DOL-RED OF ITCIACO (ONE)
          878:                      CIACO-BMFAP-SANC-DOL-RED OF ITCIACO (N-PLUS-1)
          881:                   TO CIACO-BMFAP-SANC-DOL-RED OF ITCIACO (ONE)
          892:                  TO CIACO-BMFAP-SANC-PCT-RED OF ITCIACO (ONE)
          893:                     CIACO-BMFAP-SANC-PCT-RED OF ITCIACO (N-PLUS-1)
          896:                  TO CIACO-BMFAP-SANC-PCT-RED OF ITCIACO (ONE)
          907:                TO CIACO-BMFAP-EXCESS-DOL-RED OF ITCIACO (ONE)
          908:                   CIACO-BMFAP-EXCESS-DOL-RED OF ITCIACO (N-PLUS-1)
          911:                TO CIACO-BMFAP-EXCESS-DOL-RED OF ITCIACO (ONE)
          922:                TO CIACO-BMFAP-EXCESS-PER-DAY-RED OF ITCIACO (ONE)
          923:                   CIACO-BMFAP-EXCESS-PER-DAY-RED OF ITCIACO (N-PLUS-1)
          926:                TO CIACO-BMFAP-EXCESS-PER-DAY-RED OF ITCIACO (ONE)
          937:                  TO CIACO-BMFAS-PROV-SANC-RED OF ITCIACO (ONE)
          938:                     CIACO-BMFAS-PROV-SANC-RED OF ITCIACO (N-PLUS-1)
          941:                  TO CIACO-BMFAS-PROV-SANC-RED OF ITCIACO (ONE)
          968:            MOVE SPACES        TO CIACO-CLM-RSN-CD        OF ITCIACO (1)
          969:                                  CIACO-CLM-RSN-CD        OF ITCIACO (2)
          970:                                  CIACO-CLM-RSN-CD        OF ITCIACO (3)
          971:                                  CIACO-CLM-RSN-CD        OF ITCIACO (4)
          972:                                  CIACO-CLM-RSN-CD        OF ITCIACO (5).
          982:            MOVE ZEROES TO CIACO-DED-REM-1             OF ITCIACO
          983:                           CIACO-DED-REM-2             OF ITCIACO
          984:                           CIACO-DED-REM-3             OF ITCIACO
          985:                           CIACO-REM-OOP-MAX           OF ITCIACO
          986:                           CIACO-PAY-MAX-REM-CLM-1     OF ITCIACO
          987:                           CIACO-PAY-MAX-REM-CLM-2     OF ITCIACO
          993:            IF CIACO-TBL-ENTRY-CNT OF ITCIACO = NN
          998:            MOVE SPACES TO CIACO-LN-RSN-CD        OF ITCIACO (NN 1)
          999:                           CIACO-LN-RSN-CD        OF ITCIACO (NN 2)
         1000:                           CIACO-LN-RSN-CD        OF ITCIACO (NN 3).
         1002:            MOVE WS-NO  TO CIACO-LN-ERR-MAX-IND   OF ITCIACO (NN).
         1021:              TO CIACO-INIT-CHRGS OF ITCIACO    (NN).
         1026:            MOVE ZEROES TO CIACO-CFAS-CO-PAY-AMT2 OF ITCIACO (NN).
         1031:            MOVE ZEROES TO CIACO-CFAB-CO-PAY-AMT2 OF ITCIACO (NN).
         1038: 084700     MOVE ZEROES TO CIACO-DMEB-AMT            OF ITCIACO (NN).    08500012
         1040: 084900     MOVE ZEROES TO CIACO-DMES-AMT            OF ITCIACO (NN).    08500014
0    ELEMENT   IULP9290
           18:       *                 ITCIACP AREAS.
1          44:       *        ADD ADJCO/ITCIACO TO LINKAGE AND PASS TO IULP9230.      *
          151:            COPY IULIASJR.
          154:            COPY ITCIACP REPLACING CIACP-TBL-ENTRY-CNT BY
          182:                                 ITCIACP
          469:                                           ITCIACP
0    ELEMENT   IULP9294
          112:        01  IUCIAAJR.
          113:            COPY IUCIAAJR.
          122:            COPY IULIAREP.
          137:            COPY IULIA2JR.
          154:                                 IUCIAAJR
          198:            PERFORM C200-MOVE-IUCIAAJR-TO-C2AJR.
          231:        C200-MOVE-IUCIAAJR-TO-C2AJR.
0    ELEMENT   IULP9300
           34:       *                                  MARK IULIACS RECORD IF WORK   *
           82: 008200*                                     ITCIACP IN VARIOUS CALLS   *
          181:            COPY ITCIACO REPLACING CIACO-TBL-ENTRY-CNT
          189:            COPY IUCIAAJR REPLACING CIAAJR-TBL-ENTRY-CNT BY
          209:        01  IUCIAAJR.
          210:            COPY IUCIAAJR.
          216:            COPY ITCIACO REPLACING CIACO-TBL-ENTRY-CNT
          229:            COPY IULIASJR.
          232:            COPY ITCIACP REPLACING CIACP-TBL-ENTRY-CNT
          236:            COPY ITCIACO REPLACING CIACO-TBL-ENTRY-CNT
          243:            COPY IULIAAJR.
          261:            COPY IULIA2JR.
          351:                                 IUCIAAJR
          352:                                 ITCIACP
          353:                                 ITCIACO
          472:                AND CIACO-CLM-STAT-CD    OF    ITCIACO = ZERO
          479:               PERFORM C300-MOVE-SFCP-TO-ITCIACP
          482:               MOVE IUCIAAJR TO INTAJR
          498:                AND CIACO-CLM-STAT-CD     OF ITCIACO  = ZERO
          506:               PERFORM C300-MOVE-SFCP-TO-ITCIACP
          516:                AND CIACO-CLM-STAT-CD    OF    ITCIACO = ZERO
          618:                                      TO CIACP-TBL-ENTRY-CNT OF ITCIACP
          634:                              TO CIACP-LN-ITEM-ENTRY   OF ITCIACP (SUB).
          744:                                 IUCIAAJR
          745:                                 ITCIACP
          746:                              ED-ITCIACO
          747:                                 ITCIACO
          813:                                 IUCIAAJR
          814:                                 ITCIACP
          815:                                 ITCIACO
          880:                                 IUCIAAJR
          881:                              ED-ITCIACO
          882:                                 ITCIACO
          936:                                 IUCIAAJR
          937:                                 ITCIACP
          938:                                 ITCIACO
0    ELEMENT   IULP9302
           18:       *                 PROCESS.  IT WILL VALIDATE THE ITCIACO AREAS,  *
          189:            COPY ITCIACO REPLACING
          191:                 == DEPENDING ON CIACO-TBL-ENTRY-CNT OF ITCIACO ==.
          194:            COPY ITCIACO REPLACING
          196:                 == DEPENDING ON CIACO-TBL-ENTRY-CNT OF WC-ITCIACO ==.
          220:                                 ITCIACO
1         221:                                 WC-ITCIACO
          223:                                 WC-IULIACO
          277: 023200     IF CIACO-TBL-ENTRY-CNT OF WC-ITCIACO >= 0 AND <= 99999       02320017
          280: 023500        MOVE ZERO TO CIACO-TBL-ENTRY-CNT OF WC-ITCIACO            02350017
          283:            IF (CIACO-TBL-ENTRY-CNT OF WC-ITCIACO = ZEROES)
          286:               IF CIACO-INCLUSIVE-TYPE-CALC OF WC-ITCIACO
          290:                  MOVE CIACO-TBL-ENTRY-CNT OF WC-ITCIACO TO NN-MAX.      02700000
          347:                          CIACO-LN-ERR-MAX-IND   OF WC-ITCIACO
          411:                          CIACO-LN-ERR-MAX-IND   OF WC-ITCIACO
          421: 035000     IF CIACO-INIT-CHRGS OF WC-ITCIACO (SCCF-LN-NUM) NUMERIC      00035000
          423: 035200        IF CIACO-INIT-CHRGS OF WC-ITCIACO (SCCF-LN-NUM)   =       00035200
          439: 036300                      CIACO-LN-ERR-MAX-IND   OF WC-ITCIACO        00036300
          455:                          CIACO-LN-ERR-MAX-IND   OF WC-ITCIACO
          472:                          CIACO-LN-ERR-MAX-IND   OF WC-ITCIACO
          495:                          CIACO-LN-ERR-MAX-IND   OF WC-ITCIACO
          502:               MOVE WS-YES TO CIACO-LN-ERR-MAX-IND   OF WC-ITCIACO
          505:            IF CIACO-LN-RSN-CD        OF WC-ITCIACO
          508:                    CIACO-LN-RSN-CD        OF WC-ITCIACO
          577:                 CIACO-CLM-RSN-CD        OF WC-ITCIACO (WS-ERROR).
          586:            MOVE CIACO-CALC-RESULTS  OF WC-ITCIACO TO
          589:            MOVE CIACO-TBL-ENTRY-CNT OF WC-ITCIACO TO
          599:            MOVE CIACO-CALC-RESULTS-LN-ITEM   OF WC-ITCIACO (SUB) TO
          600:                 CIACO-CALC-RESULTS-LN-ITEM   OF ITCIACO    (SUB).
0    ELEMENT   IULP9304
           11:       *   NAME:         ALIM BUILD FINAL ITCIACO AREA MODULE           *
           18:       *                 ITCIACO AREA. THE FINAL ITCIACO AREA IS USED   *
           21:       *                 THERE ARE NO ERRORS THE FINAL ITCIACO AREA IS  *
           31:       *                                      OF WC-ITCIACO             *
          279:            COPY ITCIACO REPLACING
          281:                 == DEPENDING ON CIACO-TBL-ENTRY-CNT OF ITCIACO ==.
          285:            COPY ITCIACO REPLACING
          287:                 == DEPENDING ON CIACO-TBL-ENTRY-CNT OF WC-ITCIACO ==.
          313:                                 ITCIACO
          314:                                 WC-ITCIACO
          316:                                 WC-IULIACO
          317: 026400                          IULIACS                                 00026400
          365:            IF CIACO-INCLUSIVE-TYPE-CALC OF WC-ITCIACO
          415:                   CIACO-BCBS-PMT-AMT OF ITCIACO
          432:            IF CIACO-PART-OF-INCLUSIVE OF WC-ITCIACO (SCCF-LN-NUM)
          434:                   CIACO-INIT-PMT-AMT OF ITCIACO (SCCF-LN-NUM)
          435:                   CIACO-INIT-PMT-AMT OF ITCIACO (N-PLUS-1)
          438:                   CIACO-INIT-PMT-AMT OF ITCIACO (SCCF-LN-NUM).
          475:            IF CIACO-PART-OF-INCLUSIVE OF WC-ITCIACO (SCCF-LN-NUM)
          477:                  CIACO-COV-SERV-CHRGS-EXC-CS OF ITCIACO (SCCF-LN-NUM)
          478:                  CIACO-COV-SERV-CHRGS-EXC-CS OF ITCIACO (N-PLUS-1)
          481:                  CIACO-COV-SERV-CHRGS-EXC-CS OF ITCIACO (SCCF-LN-NUM).
          511:            IF CIACO-PART-OF-INCLUSIVE OF WC-ITCIACO (SCCF-LN-NUM)
          513:                   CIACO-REM-COV-CHRGS    OF ITCIACO (SCCF-LN-NUM)
          514:                   CIACO-REM-COV-CHRGS    OF ITCIACO (N-PLUS-1)
          517:                   CIACO-REM-COV-CHRGS    OF ITCIACO (SCCF-LN-NUM).
          522:            IF CIACO-PART-OF-INCLUSIVE OF WC-ITCIACO (SCCF-LN-NUM)
          524:                   CIACO-REM-ALLWD-AMT      OF ITCIACO (SCCF-LN-NUM)
          525:                   CIACO-REM-ALLWD-AMT      OF ITCIACO (N-PLUS-1)
          528:                   CIACO-REM-ALLWD-AMT      OF ITCIACO (SCCF-LN-NUM).
          533:            IF CIACO-PART-OF-INCLUSIVE OF WC-ITCIACO (SCCF-LN-NUM)
          535:                   CIACO-REM-PMT-ALLWD-AMT    OF ITCIACO (SCCF-LN-NUM)
          536:                   CIACO-REM-PMT-ALLWD-AMT    OF ITCIACO (N-PLUS-1)
          539:                   CIACO-REM-PMT-ALLWD-AMT    OF ITCIACO (SCCF-LN-NUM).
          545:            IF CIACO-PART-OF-INCLUSIVE OF WC-ITCIACO (SCCF-LN-NUM)
1         546:               IF CIACO-SSAB-SURCHARGE-AMT OF ITCIACO (SCCF-LN-NUM)
          549:                    TO CIACO-SSAB-SURCHARGE-AMT OF ITCIACO (SCCF-LN-NUM)
          551:               IF CIACO-SSAB-SURCHARGE-AMT OF ITCIACO (N-PLUS-1)
          554:                    TO CIACO-SSAB-SURCHARGE-AMT OF ITCIACO (N-PLUS-1)
          557:                   CIACO-SSAB-SURCHARGE-AMT   OF ITCIACO (SCCF-LN-NUM)
          558:                   CIACO-SSAB-SURCHARGE-AMT   OF ITCIACO (N-PLUS-1)
          560:               IF CIACO-SSAB-SURCHARGE-AMT OF ITCIACO (SCCF-LN-NUM)
          563:                    TO CIACO-SSAB-SURCHARGE-AMT OF ITCIACO (SCCF-LN-NUM)
          566:                   CIACO-SSAB-SURCHARGE-AMT   OF ITCIACO (SCCF-LN-NUM).
          586:            IF CIACO-PART-OF-INCLUSIVE OF WC-ITCIACO (SCCF-LN-NUM)
          588:                TO CIACO-BMFAP-SANC-DOL-RED OF ITCIACO (SCCF-LN-NUM)
          589:                   CIACO-BMFAP-SANC-DOL-RED OF ITCIACO (N-PLUS-1)
          592:                TO CIACO-BMFAP-SANC-DOL-RED OF ITCIACO (SCCF-LN-NUM)
          601:            IF CIACO-PART-OF-INCLUSIVE OF WC-ITCIACO (SCCF-LN-NUM)
          603:                TO CIACO-BMFAP-SANC-PCT-RED OF ITCIACO (SCCF-LN-NUM)
          604:                   CIACO-BMFAP-SANC-PCT-RED OF ITCIACO (N-PLUS-1)
          607:                TO CIACO-BMFAP-SANC-PCT-RED OF ITCIACO (SCCF-LN-NUM)
          616:            IF CIACO-PART-OF-INCLUSIVE OF WC-ITCIACO (SCCF-LN-NUM)
          618:                TO CIACO-BMFAP-EXCESS-DOL-RED OF ITCIACO (SCCF-LN-NUM)
          619:                   CIACO-BMFAP-EXCESS-DOL-RED OF ITCIACO (N-PLUS-1)
          622:                TO CIACO-BMFAP-EXCESS-DOL-RED OF ITCIACO (SCCF-LN-NUM)
          631:            IF CIACO-PART-OF-INCLUSIVE OF WC-ITCIACO (SCCF-LN-NUM)
          633:              TO CIACO-BMFAP-EXCESS-PER-DAY-RED OF ITCIACO (SCCF-LN-NUM)
          634:                 CIACO-BMFAP-EXCESS-PER-DAY-RED OF ITCIACO (N-PLUS-1)
          637:              TO CIACO-BMFAP-EXCESS-PER-DAY-RED OF ITCIACO (SCCF-LN-NUM)
          646:            IF CIACO-PART-OF-INCLUSIVE OF WC-ITCIACO (SCCF-LN-NUM)
          648:                TO CIACO-BMFAS-PROV-SANC-RED OF ITCIACO (SCCF-LN-NUM)
          649:                   CIACO-BMFAS-PROV-SANC-RED OF ITCIACO (N-PLUS-1)
          652:                TO CIACO-BMFAS-PROV-SANC-RED OF ITCIACO (SCCF-LN-NUM)
          664:            IF CIACO-PART-OF-INCLUSIVE OF WC-ITCIACO (SCCF-LN-NUM)
          666:                   CIACO-ACCUM-EXCL-SUB-REDS  OF ITCIACO (SCCF-LN-NUM)
          667:                   CIACO-ACCUM-EXCL-SUB-REDS  OF ITCIACO (N-PLUS-1)
          670:                   CIACO-ACCUM-EXCL-SUB-REDS  OF ITCIACO (SCCF-LN-NUM).
          679:            IF CIACO-PART-OF-INCLUSIVE OF WC-ITCIACO (SCCF-LN-NUM)
          680:               IF CIACO-SSAB-MAX-SUPP-AMT OF ITCIACO (N-PLUS-1)
          683:                    TO CIACO-SSAB-MAX-SUPP-AMT OF ITCIACO (N-PLUS-1)
          693:            IF CIACO-PART-OF-INCLUSIVE OF WC-ITCIACO (SCCF-LN-NUM)
          695:                   CIACO-SSAB-MAX-SUPP-AMT    OF ITCIACO (SCCF-LN-NUM)
          696:                   CIACO-SSAB-MAX-SUPP-AMT    OF ITCIACO (N-PLUS-1)
          699:                   CIACO-SSAB-MAX-SUPP-AMT    OF ITCIACO (SCCF-LN-NUM).
          710: 111518     IF CIACO-PART-OF-INCLUSIVE OF WC-ITCIACO (SCCF-LN-NUM)
          712: 111518         TO CIACO-DME-APPLIED-AMT-ACTUAL  OF ITCIACO
          714: 111518            CIACO-DME-APPLIED-AMT-ACTUAL  OF ITCIACO
          718: 111518         TO CIACO-DME-APPLIED-AMT-ACTUAL  OF ITCIACO
          735:            IF CIACO-PART-OF-INCLUSIVE OF WC-ITCIACO (SCCF-LN-NUM)
          737:                   CIACO-ACCUM-SUB-LIAB OF ITCIACO (SCCF-LN-NUM)
          738:                   CIACO-ACCUM-SUB-LIAB OF ITCIACO (N-PLUS-1)
          741:                   CIACO-ACCUM-SUB-LIAB OF ITCIACO (SCCF-LN-NUM).
          747:            IF CIACO-PART-OF-INCLUSIVE OF WC-ITCIACO (SCCF-LN-NUM)
          748:               IF CIACO-PMS-PAY-MAX-AMT    OF ITCIACO (SCCF-LN-NUM)
          751:                    TO CIACO-PMS-PAY-MAX-AMT    OF ITCIACO (SCCF-LN-NUM)
          753:               IF CIACO-PMS-PAY-MAX-AMT    OF ITCIACO (N-PLUS-1)
          756:                    TO CIACO-PMS-PAY-MAX-AMT    OF ITCIACO (N-PLUS-1)
          762:               IF CIACO-PMS-PAY-MAX-AMT    OF ITCIACO (SCCF-LN-NUM)
          765:                    TO CIACO-PMS-PAY-MAX-AMT    OF ITCIACO (SCCF-LN-NUM)
          770:            IF CIACO-PART-OF-INCLUSIVE OF WC-ITCIACO (SCCF-LN-NUM)
          771:               IF CIACO-PMB-PAY-MAX-AMT    OF ITCIACO (SCCF-LN-NUM)
          774:                    TO CIACO-PMB-PAY-MAX-AMT    OF ITCIACO (SCCF-LN-NUM)
          776:               IF CIACO-PMB-PAY-MAX-AMT    OF ITCIACO (N-PLUS-1)
          779:                    TO CIACO-PMB-PAY-MAX-AMT    OF ITCIACO (N-PLUS-1)
1         785:               IF CIACO-PMB-PAY-MAX-AMT    OF ITCIACO (SCCF-LN-NUM)
          788:                    TO CIACO-PMB-PAY-MAX-AMT    OF ITCIACO (SCCF-LN-NUM)
          825:            IF CIACO-PART-OF-INCLUSIVE OF WC-ITCIACO (SCCF-LN-NUM)
          827:                   CIACO-CFAS-NON-COV-SERV OF ITCIACO (SCCF-LN-NUM)
          828:                   CIACO-CFAS-NON-COV-SERV OF ITCIACO (N-PLUS-1)
          831:                   CIACO-CFAS-NON-COV-SERV OF ITCIACO (SCCF-LN-NUM).
          836:            IF CIACO-PART-OF-INCLUSIVE OF WC-ITCIACO (SCCF-LN-NUM)
          838:                   CIACO-CFAS-NON-COV-D-V-U OF ITCIACO (SCCF-LN-NUM)
          839:                   CIACO-CFAS-NON-COV-D-V-U OF ITCIACO (N-PLUS-1)
          842:                   CIACO-CFAS-NON-COV-D-V-U OF ITCIACO (SCCF-LN-NUM).
          847:            IF CIACO-PART-OF-INCLUSIVE OF WC-ITCIACO (SCCF-LN-NUM)
          849:                   CIACO-CFAS-MAX-DOL OF ITCIACO (SCCF-LN-NUM)
          850:                   CIACO-CFAS-MAX-DOL OF ITCIACO (N-PLUS-1)
          853:                   CIACO-CFAS-MAX-DOL OF ITCIACO (SCCF-LN-NUM).
          858:            IF CIACO-PART-OF-INCLUSIVE OF WC-ITCIACO (SCCF-LN-NUM)
          860:                   CIACO-CFAS-PRIV-RM-DIFF OF ITCIACO (SCCF-LN-NUM)
          861:                   CIACO-CFAS-PRIV-RM-DIFF OF ITCIACO (N-PLUS-1)
          864:                   CIACO-CFAS-PRIV-RM-DIFF OF ITCIACO (SCCF-LN-NUM).
          869:            IF CIACO-PART-OF-INCLUSIVE OF WC-ITCIACO (SCCF-LN-NUM)
          871:                   CIACO-CFAS-DED-AMT OF ITCIACO (SCCF-LN-NUM)
          872:                   CIACO-CFAS-DED-AMT OF ITCIACO (N-PLUS-1)
          875:                   CIACO-CFAS-DED-AMT OF ITCIACO (SCCF-LN-NUM).
          880:            IF CIACO-PART-OF-INCLUSIVE OF WC-ITCIACO (SCCF-LN-NUM)
          882:                   CIACO-CFAS-CO-PAY-AMT1 OF ITCIACO (SCCF-LN-NUM)
          883:                   CIACO-CFAS-CO-PAY-AMT1 OF ITCIACO (N-PLUS-1)
          886:                   CIACO-CFAS-CO-PAY-AMT1 OF ITCIACO (SCCF-LN-NUM).
          891:            IF CIACO-PART-OF-INCLUSIVE OF WC-ITCIACO (SCCF-LN-NUM)
          894:                   CIACO-CFAS-CO-INS-AMT OF ITCIACO (SCCF-LN-NUM)
          895:                   CIACO-CFAS-CO-INS-AMT OF ITCIACO (N-PLUS-1)
          899:                   CIACO-CFAS-CO-INS-AMT OF ITCIACO (SCCF-LN-NUM).
          920:            IF CIACO-PART-OF-INCLUSIVE OF WC-ITCIACO (SCCF-LN-NUM)
          922:                   CIACO-INIT-ALLWD-AMT   OF ITCIACO (SCCF-LN-NUM)
          923:                   CIACO-INIT-ALLWD-AMT   OF ITCIACO (N-PLUS-1)
          926:                   CIACO-INIT-ALLWD-AMT   OF ITCIACO (SCCF-LN-NUM).
          957:            IF CIACO-PART-OF-INCLUSIVE OF WC-ITCIACO (SCCF-LN-NUM)
          959:                   CIACO-CFAB-NON-COV-SERV OF ITCIACO (SCCF-LN-NUM)
          960:                   CIACO-CFAB-NON-COV-SERV OF ITCIACO (N-PLUS-1)
          963:                   CIACO-CFAB-NON-COV-SERV OF ITCIACO (SCCF-LN-NUM).
          968:            IF CIACO-PART-OF-INCLUSIVE OF WC-ITCIACO (SCCF-LN-NUM)
          970:                   CIACO-CFAB-NON-COV-D-V-U OF ITCIACO (SCCF-LN-NUM)
          971:                   CIACO-CFAB-NON-COV-D-V-U OF ITCIACO (N-PLUS-1)
          974:                   CIACO-CFAB-NON-COV-D-V-U OF ITCIACO (SCCF-LN-NUM).
          979:            IF CIACO-PART-OF-INCLUSIVE OF WC-ITCIACO (SCCF-LN-NUM)
          981:                   CIACO-CFAB-MAX-DOL OF ITCIACO (SCCF-LN-NUM)
          982:                   CIACO-CFAB-MAX-DOL OF ITCIACO (N-PLUS-1)
          985:                   CIACO-CFAB-MAX-DOL OF ITCIACO (SCCF-LN-NUM).
          990:            IF CIACO-PART-OF-INCLUSIVE OF WC-ITCIACO (SCCF-LN-NUM)
          992:                   CIACO-CFAB-PRIV-RM-DIFF OF ITCIACO (SCCF-LN-NUM)
          993:                   CIACO-CFAB-PRIV-RM-DIFF OF ITCIACO (N-PLUS-1)
          996:                   CIACO-CFAB-PRIV-RM-DIFF OF ITCIACO (SCCF-LN-NUM).
         1001:            IF CIACO-PART-OF-INCLUSIVE OF WC-ITCIACO (SCCF-LN-NUM)
         1003:                   CIACO-CFAB-DED-AMT OF ITCIACO (SCCF-LN-NUM)
         1004:                   CIACO-CFAB-DED-AMT OF ITCIACO (N-PLUS-1)
         1007:                   CIACO-CFAB-DED-AMT OF ITCIACO (SCCF-LN-NUM).
         1012:            IF CIACO-PART-OF-INCLUSIVE OF WC-ITCIACO (SCCF-LN-NUM)
         1014:                   CIACO-CFAB-CO-PAY-AMT1 OF ITCIACO (SCCF-LN-NUM)
         1015:                   CIACO-CFAB-CO-PAY-AMT1 OF ITCIACO (N-PLUS-1)
         1018:                   CIACO-CFAB-CO-PAY-AMT1 OF ITCIACO (SCCF-LN-NUM).
         1023:            IF CIACO-PART-OF-INCLUSIVE OF WC-ITCIACO (SCCF-LN-NUM)
         1026:                   CIACO-CFAB-CO-INS-AMT OF ITCIACO (SCCF-LN-NUM)
1        1027:                   CIACO-CFAB-CO-INS-AMT OF ITCIACO (N-PLUS-1)
         1031:                   CIACO-CFAB-CO-INS-AMT OF ITCIACO (SCCF-LN-NUM).
         1044:            IF CIACO-PART-OF-INCLUSIVE OF WC-ITCIACO (SCCF-LN-NUM)
         1046:                   CIACO-CFAB-PRC-PCT-AMT OF ITCIACO (SCCF-LN-NUM)
         1047:                   CIACO-CFAB-PRC-PCT-AMT OF ITCIACO (N-PLUS-1)
         1050:                   CIACO-CFAB-PRC-PCT-AMT OF ITCIACO (SCCF-LN-NUM).
         1073:            IF CIACO-PART-OF-INCLUSIVE OF WC-ITCIACO (SCCF-LN-NUM)
         1075:                TO CIACO-BMFASS-NON-COV-SERV OF ITCIACO (SCCF-LN-NUM)
         1076:                   CIACO-BMFASS-NON-COV-SERV OF ITCIACO (N-PLUS-1)
         1079:                TO CIACO-BMFASS-NON-COV-SERV OF ITCIACO (SCCF-LN-NUM).
         1084:            IF CIACO-PART-OF-INCLUSIVE OF WC-ITCIACO (SCCF-LN-NUM)
         1086:                TO CIACO-BMFASS-NON-COV-D-V-U OF ITCIACO (SCCF-LN-NUM)
         1087:                   CIACO-BMFASS-NON-COV-D-V-U OF ITCIACO (N-PLUS-1)
         1090:                TO CIACO-BMFASS-NON-COV-D-V-U OF ITCIACO (SCCF-LN-NUM).
         1095:            IF CIACO-PART-OF-INCLUSIVE OF WC-ITCIACO (SCCF-LN-NUM)
         1097:                   CIACO-BMFASS-MAX-DOL OF ITCIACO (SCCF-LN-NUM)
         1098:                   CIACO-BMFASS-MAX-DOL OF ITCIACO (N-PLUS-1)
         1101:                   CIACO-BMFASS-MAX-DOL OF ITCIACO (SCCF-LN-NUM).
         1106:            IF CIACO-PART-OF-INCLUSIVE OF WC-ITCIACO (SCCF-LN-NUM)
         1108:                   CIACO-BMFASS-DOL-RED OF ITCIACO (SCCF-LN-NUM)
         1109:                   CIACO-BMFASS-DOL-RED OF ITCIACO (N-PLUS-1)
         1112:                   CIACO-BMFASS-DOL-RED OF ITCIACO (SCCF-LN-NUM).
         1117:            IF CIACO-PART-OF-INCLUSIVE OF WC-ITCIACO (SCCF-LN-NUM)
         1119:                   CIACO-BMFASS-PCT-RED OF ITCIACO (SCCF-LN-NUM)
         1120:                   CIACO-BMFASS-PCT-RED OF ITCIACO (N-PLUS-1)
         1123:                   CIACO-BMFASS-PCT-RED OF ITCIACO (SCCF-LN-NUM).
         1141:            IF CIACO-PART-OF-INCLUSIVE OF WC-ITCIACO (SCCF-LN-NUM)
         1143:                TO CIACO-BMFASB-NON-COV-SERV OF ITCIACO (SCCF-LN-NUM)
         1144:                   CIACO-BMFASB-NON-COV-SERV OF ITCIACO (N-PLUS-1)
         1147:                TO CIACO-BMFASB-NON-COV-SERV OF ITCIACO (SCCF-LN-NUM).
         1152:            IF CIACO-PART-OF-INCLUSIVE OF WC-ITCIACO (SCCF-LN-NUM)
         1154:                TO CIACO-BMFASB-NON-COV-D-V-U OF ITCIACO (SCCF-LN-NUM)
         1155:                   CIACO-BMFASB-NON-COV-D-V-U OF ITCIACO (N-PLUS-1)
         1158:                TO CIACO-BMFASB-NON-COV-D-V-U OF ITCIACO (SCCF-LN-NUM).
         1163:            IF CIACO-PART-OF-INCLUSIVE OF WC-ITCIACO (SCCF-LN-NUM)
         1165:                   CIACO-BMFASB-MAX-DOL OF ITCIACO (SCCF-LN-NUM)
         1166:                   CIACO-BMFASB-MAX-DOL OF ITCIACO (N-PLUS-1)
         1169:                   CIACO-BMFASB-MAX-DOL OF ITCIACO (SCCF-LN-NUM).
         1174:            IF CIACO-PART-OF-INCLUSIVE OF WC-ITCIACO (SCCF-LN-NUM)
         1176:                   CIACO-BMFASB-DOL-RED OF ITCIACO (SCCF-LN-NUM)
         1177:                   CIACO-BMFASB-DOL-RED OF ITCIACO (N-PLUS-1)
         1180:                   CIACO-BMFASB-DOL-RED OF ITCIACO (SCCF-LN-NUM).
         1185:            IF CIACO-PART-OF-INCLUSIVE OF WC-ITCIACO (SCCF-LN-NUM)
         1187:                   CIACO-BMFASB-PCT-RED OF ITCIACO (SCCF-LN-NUM)
         1188:                   CIACO-BMFASB-PCT-RED OF ITCIACO (N-PLUS-1)
         1191:                   CIACO-BMFASB-PCT-RED OF ITCIACO (SCCF-LN-NUM).
         1200:            MOVE CIACO-SCCF-SER-NUM    OF WC-ITCIACO TO
         1207:            MOVE CIACO-TBL-ENTRY-CNT OF WC-ITCIACO TO
         1219:            MOVE SPACES        TO CIACO-CLM-RSN-CD        OF ITCIACO (1)
         1220:                                  CIACO-CLM-RSN-CD        OF ITCIACO (2)
         1221:                                  CIACO-CLM-RSN-CD        OF ITCIACO (3)
         1222:                                  CIACO-CLM-RSN-CD        OF ITCIACO (4)
         1223:                                  CIACO-CLM-RSN-CD        OF ITCIACO (5).
         1227:            MOVE CIACO-CALC-TYPE-CD   OF WC-ITCIACO TO
         1233:            MOVE ZEROES TO CIACO-DED-REM-1             OF ITCIACO
         1234:                           CIACO-DED-REM-2             OF ITCIACO
         1235:                           CIACO-DED-REM-3             OF ITCIACO
         1236:                           CIACO-REM-OOP-MAX           OF ITCIACO
         1238:                           CIACO-PAY-MAX-REM-CLM-1     OF ITCIACO
         1239:                           CIACO-PAY-MAX-REM-CLM-2     OF ITCIACO
1        1246:            MOVE CIACO-LN-STAT-CD       OF WC-ITCIACO (NN) TO
         1247:                 CIACO-LN-STAT-CD       OF ITCIACO    (NN).
         1249:            MOVE SPACES TO CIACO-LN-RSN-CD        OF ITCIACO (NN 1)
         1250:                           CIACO-LN-RSN-CD        OF ITCIACO (NN 2)
         1251:                           CIACO-LN-RSN-CD        OF ITCIACO (NN 3).
         1253:            MOVE WS-NO  TO CIACO-LN-ERR-MAX-IND   OF ITCIACO (NN).
         1275:            IF CIACO-INIT-CHRGS OF WC-ITCIACO (NN) NOT NUMERIC
         1276:                MOVE ZEROS TO CIACO-INIT-CHRGS OF WC-ITCIACO (NN)
         1280:            MOVE CIACO-INIT-CHRGS OF WC-ITCIACO (NN) TO
         1281:                 CIACO-INIT-CHRGS OF ITCIACO    (NN).
         1286:            MOVE ZEROES TO CIACO-CFAS-CO-PAY-AMT2 OF ITCIACO (NN).
         1291:            MOVE ZEROES TO CIACO-CFAB-CO-PAY-AMT2 OF ITCIACO (NN).
         1297: 106100*    MOVE ZEROES TO CIACO-BMFAP-NON-COV-SERV  OF ITCIACO (NN).    00106100
         1300:       *PAYMAX MOVE ZEROES TO CIACO-BMFAP-MAX-DOL       OF ITCIACO (NN).
         1303: 106700*    MOVE ZEROES TO CIACO-BMFAP-DOL-RED       OF ITCIACO (NN).    00106700
         1305: 106900*    MOVE ZEROES TO CIACO-BMFAP-PCT-RED       OF ITCIACO (NN).    00106900
         1323: 111518     MOVE ZEROES TO CIACO-DMEB-AMT            OF ITCIACO (NN).    00106410
         1325: 111518     MOVE ZEROES TO CIACO-DMES-AMT            OF ITCIACO (NN).    00106430
         1342: 109300                  UNTIL WS-S1 = CIACO-TBL-ENTRY-CNT OF ITCIACO    00109300
         1407: 111400                CIACO-CLM-ERR-MAX-IND   OF ITCIACO = WS-YES.      00111400
         1415:            IF CIACO-CLM-RSN-CD        OF ITCIACO (WS-ERROR) = SPACES
         1417:                    CIACO-CLM-RSN-CD        OF ITCIACO (WS-ERROR)
0    ELEMENT   IULP9306
          202:                                 ITCIACO
0    ELEMENT   IULP9308
           11:       *   NAME        : ALIM BUILD FINAL IUCIAAJR AREA MODULE          *00001100
           17: 001700*   FUNCTION    : THIS MODULE BUILDS THE FINAL IUCIAAJR AREA.    *00001700
           18:       *                 THE FINAL IUCIAAJR AREA IS PASSED TO HPA TO    *
           20:       *                 NO ERRORS, THE FINAL IUCIAAJR AREA IS PASSED   *
          112: 011300*                             USE ITCIACO TO DETERMINE PMT AMOUNT*00011300
          193:                'ALIM BUILD FINAL IUCIAAJR                         '.
          330:        01  ITCWSMCD.                                                    00019100
          331:            COPY ITCWSMCD.                                               00019200
          356:        01  IUCIAAJR.
          357:            COPY IUCIAAJR.
          360:            COPY IULIASJR.
          366:            COPY IULIAAJR.
          379: 023300                          ITCIACO                                 00023300
          381:                                 IUCIAAJR
0    ELEMENT   IULP9346
          300: 015800 01  IULIACSS.                                                    01580000
          301: 015900     COPY IULIACSS.                                               01590000
          316: 017700     COPY ITCIACP REPLACING CIACP-TBL-ENTRY-CNT BY                01770000
          350: 020000 01  IUCIAAJR.                                                    02000000
          351: 020100     COPY IUCIAAJR.                                               02010000
          368: 021700 01  IULIACOP.                                                    02170000
          369: 021800     COPY IULIACOP.                                               02180000
          373: 022200 01  SFAJR.  COPY IULIASJR.                                       02220000
          375: 022300 01  SFCP.   COPY ITCIACP REPLACING CIACP-TBL-ENTRY-CNT BY        02230000
          378: 022500 01  SFCO.   COPY ITCIACO REPLACING CIACO-TBL-ENTRY-CNT BY        02250000
          383: 022800 01  ADJAJR. COPY IULIAAJR.                                       02280000
          389: 023200 01  CALREP. COPY IULIAREP.                                       02320000
          407:            COPY IULIA2JR.
          503: 031700                                    IUCIAAJR                      03170000
          504: 031800                                    ITCIACP                       03180000
          505: 031900                                    ITCIACO                       03190000
          509: 032300                                    IULIACOP                      03230000
1         703:               PERFORM X600-SAVE-ITCIACP THRU X600-EXIT.
          716: 053600         IF CIACO-UNABLE-TO-CALC OF ITCIACO                       05360000
          737:               PERFORM B600-BUILD-IULIACOP THRU B600-EXIT.
          768:               AND CIACO-TBL-ENTRY-CNT OF ITCIACO >= 0 AND <= 99999
          770:                    UNTIL WS-S1 > CIACO-TBL-ENTRY-CNT OF ITCIACO
          817:                     IF CIACO-UNABLE-TO-CALC OF ITCIACO
          821:                        MOVE CIACO-CLM-STAT-CD OF ITCIACO
          824:                     IF CIACO-CALC-WITH-EXCEPTION OF ITCIACO
          828:                        MOVE CIACO-CLM-STAT-CD OF ITCIACO
          874:                  AND CIACO-TBL-ENTRY-CNT OF ITCIACO >= 0 AND <= 99999
          876:                       UNTIL WS-S1 > CIACO-TBL-ENTRY-CNT OF ITCIACO
          900:                          TO CIACO-CLM-STAT-CD OF ITCIACO
          907:                          TO CIACO-CLM-STAT-CD OF ITCIACO
          916: 056400         IF CIACO-UNABLE-TO-CALC OF ITCIACO                       05640000
          941:                PERFORM X700-RESTORE-ITCIACP THRU X700-EXIT.
         1110: 073400      MOVE IULIACSS TO IULIACSP.                                  07340000
         1113: 073700 B600-BUILD-IULIACOP.                                             07370000
         1117:       * THE IULIACOP COPYBOOK TO BE A 4 BYTE FIELD WHEN THEY  *
         1124:               MOVE ADJCO TO IULIACOP.
         1139:               IF CIACO-INCLUSIVE-TYPE-CALC OF ITCIACO
         1140:                  IF CIACO-INCLUSIVE-CALC OF ITCIACO
         1142:                       TO CIACO-BCBS-PMT-AMT OF ITCIACO
         1146:                  IF CIACO-INCLUSIVE-WITH-LN-CALC OF ITCIACO
         1161:                               AND CIACO-BCBS-PMT-AMT OF ITCIACO NUMERIC
         1165:                                           OF ITCIACO
         1176:                     AND CIACO-BCBS-PMT-AMT OF ITCIACO NUMERIC
         1180:                                 OF ITCIACO
         1200:                          AND CIACO-BCBS-PMT-AMT OF ITCIACO NUMERIC
         1204:                                      OF ITCIACO
         1222:               MOVE SFCP TO ITCIACP
         1976: 121500            OR  CIACO-CLM-RSN-CD OF ITCIACO (ERR-SUB1)            12150000
         1980: 121900     IF       CIACO-CLM-ERR-MAX-IND OF ITCIACO     NOT EQUAL      12190000
         2017: 125900              CIACO-CLM-RSN-CD OF ITCIACO (ERR-SUB1).             12590000
         2035: 127800                                    ITCIACP                       12780000
         2036: 127900                                    ITCIACO                       12790000
         2039:                                           IUCIAAJR
         2058: 129700                                    ITCIACP                       12970000
         2059: 129800                                    ITCIACO                       12980000
         2062:                                           IUCIAAJR
         2081: 131600                                    ITCIACP                       13160000
         2082: 131700                                    ITCIACO                       13170000
         2085:                                           IUCIAAJR
         2308: 221800*    MOVE CIACP-PRICING-DATA OF ITCIACP TO                        15080000
         2312: 222100     MOVE CIACP-SCCF-SER-NUM               OF ITCIACP TO
         2313: 222200          CIACP-SCCF-SER-NUM               OF WS-ITCIACP
         2314: 222300     MOVE CIACP-FDB-INV-CD                 OF ITCIACP TO
         2315: 222400          CIACP-FDB-INV-CD                 OF WS-ITCIACP
         2316: 222500     MOVE CIACP-PRC-DATA-PRESENT-IND       OF ITCIACP TO
         2317: 222600          CIACP-PRC-DATA-PRESENT-IND       OF WS-ITCIACP
         2318: 222700     MOVE CIACP-CLM-LVL-DATA               OF ITCIACP TO
         2319: 222800          CIACP-CLM-LVL-DATA               OF WS-ITCIACP
         2320: 222900     MOVE CIACP-COB-DATA-CLM               OF ITCIACP TO
         2321: 223000          CIACP-COB-DATA-CLM               OF WS-ITCIACP
         2322: 223100     MOVE CIACP-MEDICARE-AREA              OF ITCIACP TO
         2323: 223200          CIACP-MEDICARE-AREA              OF WS-ITCIACP
         2324: 223300     MOVE CIACP-REL-NUM                    OF ITCIACP TO
         2325: 223400          CIACP-REL-NUM                    OF WS-ITCIACP
         2327:            MOVE CIACP-SRC-PMT-CD                 OF ITCIACP    (1) TO   00223300
         2328:                 CIACP-SRC-PMT-CD                 OF WS-ITCIACP (1)      00223400
         2329:            MOVE CIACP-SRC-PMT-CD                 OF ITCIACP    (2) TO   00223300
1        2330:                 CIACP-SRC-PMT-CD                 OF WS-ITCIACP (2)      00223400
         2331:            MOVE CIACP-SRC-PMT-CD                 OF ITCIACP    (3) TO   00223300
         2332:                 CIACP-SRC-PMT-CD                 OF WS-ITCIACP (3)      00223400
         2335:            MOVE CIACP-OTHER-CLM-INFO             OF ITCIACP TO          00223100
         2336:                 CIACP-OTHER-CLM-INFO             OF WS-ITCIACP          00223200
         2339: 223500     MOVE    CIACP-TBL-ENTRY-CNT           OF ITCIACP TO
         2340: 223600          WS-CIACP-TBL-ENTRY-CNT           OF WS-ITCIACP
         2354: 225000*    MOVE CIACP-PRICING-DATA OF WS-ITCIACP TO                     00225000
         2357: 222100     MOVE CIACP-SCCF-SER-NUM          OF WS-ITCIACP TO            00222100
         2359: 222300     MOVE CIACP-FDB-INV-CD            OF WS-ITCIACP TO            00222300
         2361: 222500     MOVE CIACP-PRC-DATA-PRESENT-IND  OF WS-ITCIACP TO            00222500
         2363: 222700     MOVE CIACP-CLM-LVL-DATA          OF WS-ITCIACP TO            00222700
         2365: 222900     MOVE CIACP-COB-DATA-CLM          OF WS-ITCIACP TO            00222900
         2367: 223100     MOVE CIACP-MEDICARE-AREA         OF WS-ITCIACP TO            00223100
         2369: 223300     MOVE CIACP-REL-NUM               OF WS-ITCIACP TO            00223300
         2371:            MOVE CIACP-SRC-PMT-CD            OF WS-ITCIACP (1) TO        00223300
         2372:                 CIACP-SRC-PMT-CD            OF ITCIACP (1).             00223400
         2373:            MOVE CIACP-SRC-PMT-CD            OF WS-ITCIACP (2) TO        00223300
         2374:                 CIACP-SRC-PMT-CD            OF ITCIACP (2).             00223400
         2375:            MOVE CIACP-SRC-PMT-CD            OF WS-ITCIACP (3) TO        00223300
         2376:                 CIACP-SRC-PMT-CD            OF ITCIACP (3).             00223400
         2378:            MOVE CIACP-OTHER-CLM-INFO        OF WS-ITCIACP TO            00223100
         2382: 223500     MOVE WS-CIACP-TBL-ENTRY-CNT      OF WS-ITCIACP TO            00223500
         2397: 153800     MOVE CIACP-LN-ITEM-ENTRY OF ITCIACP (SUB) TO                 15380000
         2398: 153900          CIACP-LN-ITEM-ENTRY OF WS-ITCIACP (SUB).                15390000
         2408: 155000     MOVE CIACP-LN-ITEM-ENTRY OF WS-ITCIACP (SUB) TO              15500000
         2409: 155100          CIACP-LN-ITEM-ENTRY OF ITCIACP (SUB).                   15510000
0    ELEMENT   IULP9350
           46:       *                          PASS ITCIACO TO IULP9308.             *
          253:        01  IUCIAAJR.
          254:            COPY IUCIAAJR.
          263:            COPY ITCIACO REPLACING CIACO-TBL-ENTRY-CNT
          276:            COPY IULIASJR.
          279:            COPY ITCIACP REPLACING CIACP-TBL-ENTRY-CNT
          283:            COPY ITCIACO REPLACING CIACO-TBL-ENTRY-CNT
          290:            COPY IULIAAJR.
          308:            COPY IULIA2JR.
          395:                                 IUCIAAJR
          396:                                 ITCIACP
          397:                              ED-ITCIACO
          398:                                 ITCIACO
          512:                  IF CIACO-INCLUSIVE-CALC         OF ITCIACO             00045309
          513:                  OR CIACO-INCLUSIVE-WITH-LN-CALC OF ITCIACO             00045409
          522:                     IF CIACO-LN-ITEM-CALC-ONLY      OF ITCIACO
          796: 127245* ITCIACO WHICH IS USED IN THE PROCESSING BELOW.  THE INPUT CIACO 00081000
          818: 127245         IF  CIACO-INCLUSIVE-TYPE-CALC OF ITCIACO                 00083200
          831: 127245             IF  CIACO-ACCUM-SUB-LIAB OF ITCIACO (N-PLUS-1) > 0   00084800
          841: 127245                 CIACO-ACCUM-SUB-LIAB OF ITCIACO (N-PLUS-1)       00085800
          846: 127245             IF  CIACO-INCLUSIVE-WITH-LN-CALC OF ITCIACO          00086300
          861: 127245         ADD  WS-CLM-NOT-COV-AMT   TO CIACO-SUB-LIAB OF ITCIACO   00087800
          884:               IF CIACO-PART-OF-INCLUSIVE OF ITCIACO (SUB)               00090100
          910: 127245           IF  CIACO-ACCUM-SUB-LIAB OF ITCIACO (N-PLUS-1) > 0     00094200
          920:                      CIACO-ACCUM-SUB-LIAB OF ITCIACO (N-PLUS-1)         00080600
          928: 127245               CIACO-CFAS-NON-COV-SERV  OF ITCIACO (SUB) +        00096100
          929: 127245               CIACO-CFAS-NON-COV-D-V-U OF ITCIACO (SUB) +        00096200
          930: 127245               CIACO-CFAS-MAX-DOL       OF ITCIACO (SUB)          00096300
          933:                      CIACO-ACCUM-SUB-LIAB OF ITCIACO (SUB)              00080900
          945: 127245        (CIACO-ACCUM-SUB-LIAB OF ITCIACO (N-PLUS-1)       -       00097900
          946: 127245         CIACO-CFAS-PRIV-RM-DIFF OF ITCIACO (N-PLUS-1)    -       00098000
1         947: 127245         CIACO-CFAS-DED-AMT OF ITCIACO (N-PLUS-1)         -       00098100
          948: 127245         CIACO-CFAS-CO-PAY-AMT1 OF ITCIACO (N-PLUS-1)     -       00098200
          949: 127245         CIACO-CFAS-CO-PAY-AMT2 OF ITCIACO (N-PLUS-1)     -       00098300
          950: 127245         CIACO-CFAS-CO-INS-AMT OF ITCIACO (N-PLUS-1)      -       00098400
          951: 127245         CIACO-PMS-PAY-MAX-AMT OF ITCIACO (N-PLUS-1)      -       00098500
          952: 127245         CIACO-BMFASS-NON-COV-SERV OF ITCIACO (N-PLUS-1)  -       00098600
          953: 127245         CIACO-BMFASS-NON-COV-D-V-U OF ITCIACO (N-PLUS-1) -       00098700
          954: 127245         CIACO-BMFASS-MAX-DOL OF ITCIACO (N-PLUS-1)       -       00098800
          955: 127245         CIACO-BMFASS-DOL-RED OF ITCIACO (N-PLUS-1)       -       00098900
          956: 127245         CIACO-BMFASS-PCT-RED OF ITCIACO (N-PLUS-1) ).            00099000
          968:            IF CIACP-PRC-MTD-CLM OF ITCIACP  = WS-01                     00090000
          969:            OR CIACP-PRC-MTD-LN OF ITCIACP (WS-1) = WS-01                00090100
          971: 050200                UNTIL WS-S1 > CIACP-TBL-ENTRY-CNT OF ITCIACP      00090300
          974:                         TO CIACO-LN-RSN-CD OF ITCIACO (WS-S1, 1)        00090600
          979: 111518                  TO CIACO-LN-RSN-CD OF ITCIACO (WS-S1, 1)        00091100
          993:            IF CIACO-INCLUSIVE-CALC         OF ITCIACO                   00071709
          994:            OR CIACO-INCLUSIVE-WITH-LN-CALC OF ITCIACO                   00071809
         1032:                              OF ITCIACO (NPLUS1-SUB) NUMERIC AND        00090800
         1034:                              OF ITCIACO (NPLUS1-SUB) NUMERIC AND        00091000
         1036:                              OF ITCIACO (NPLUS1-SUB) NUMERIC            00091200
         1040:                                 OF ITCIACO (NPLUS1-SUB) +               00091600
         1042:                                 OF ITCIACO (NPLUS1-SUB) +               00091800
         1044:                                 OF ITCIACO (NPLUS1-SUB)                 00092000
         1088:            IF CIACO-LN-ITEM-CALC-ONLY OF ITCIACO                        00080209
         1089:            OR CIACO-INCLUSIVE-WITH-LN-CALC OF ITCIACO                   00080309
         1090:               IF CIACO-INCLUSIVE-WITH-LN-CALC OF ITCIACO                00080509
         1113:                                 OF ITCIACO (WS-S1) NUMERIC AND          00099100
         1115:                                 OF ITCIACO (WS-S1) NUMERIC AND          00099300
         1117:                                 OF ITCIACO (WS-S1) NUMERIC              00099500
         1121:                                    OF ITCIACO (WS-S1) +                 00099900
         1123:                                    OF ITCIACO (WS-S1) +                 00100100
         1125:                                    OF ITCIACO (WS-S1)                   00100300
         1184:            MOVE CIACO-SCCF-SER-NUM    OF ED-ITCIACO
         1187:            MOVE CIACO-CALC-RESULTS-CNTL-DATA OF ED-ITCIACO
         1190:            MOVE CIACO-CALC-RESULTS-CLM-LVL   OF ED-ITCIACO
         1193:            MOVE CIACO-TBL-ENTRY-CNT OF ED-ITCIACO
         1207:            MOVE CIACO-CALC-RESULTS-LN-ITEM   OF ED-ITCIACO (SUB)
         1208:                       TO CIACO-CALC-RESULTS-LN-ITEM   OF ITCIACO (SUB).
         1331:                                           ITCIACO
         1349:                                           ITCIACO
         1367:                                           ITCIACO
         1384:                                           ITCIACO
         1386:                                           IUCIAAJR
         1401:                                           ITCIACP
         1402:                                           IUCIAAJR
         1404:                                           ED-ITCIACO
         1470:                       CIACO-CLM-STAT-CD                 OF ED-ITCIACO
         1471:                       CIACO-DED-REM-1                   OF ED-ITCIACO
         1472:                       CIACO-DED-REM-2                   OF ED-ITCIACO
         1473:                       CIACO-DED-REM-3                   OF ED-ITCIACO
         1474:                       CIACO-REM-OOP-MAX                 OF ED-ITCIACO
         1475:                       CIACO-PAY-MAX-REM-CLM-1           OF ED-ITCIACO
         1476:                       CIACO-PAY-MAX-REM-CLM-2           OF ED-ITCIACO
         1477:                       CIACO-PAY-MAX-REM-CLM-3           OF ED-ITCIACO
         1478:                       CIACO-BCBS-PMT-AMT                OF ED-ITCIACO
         1488:                          CIACO-TBL-ENTRY-CNT            OF ED-ITCIACO
         1491:                          CIACO-TBL-ENTRY-CNT            OF ED-ITCIACO
         1501:                       CIACO-CALC-RESULTS-LN-ITEM   OF ED-ITCIACO (SUB).
         1504:                       CIACO-LN-STAT-CD       OF ED-ITCIACO (SUB).
         1507:                       CIACO-INIT-CHRGS OF ED-ITCIACO (SUB)
1        1508:                       CIACO-INIT-PMT-AMT OF ED-ITCIACO (SUB)
         1509:                       CIACO-INIT-ALLWD-AMT   OF ED-ITCIACO (SUB)
         1510:                       CIACO-COV-SERV-CHRGS-EXC-CS OF ED-ITCIACO (SUB)
         1511:                       CIACO-REM-COV-CHRGS    OF ED-ITCIACO (SUB)
         1512:                       CIACO-REM-PMT-ALLWD-AMT    OF ED-ITCIACO (SUB)
         1513:                       CIACO-REM-ALLWD-AMT      OF ED-ITCIACO (SUB)
         1514:                       CIACO-ACCUM-SUB-LIAB OF ED-ITCIACO (SUB)
         1515:                       CIACO-CFAS-NON-COV-SERV OF ED-ITCIACO (SUB)
         1516:                       CIACO-CFAS-NON-COV-D-V-U OF ED-ITCIACO (SUB)
         1517:                       CIACO-CFAS-MAX-DOL OF ED-ITCIACO (SUB)
         1518:                       CIACO-CFAS-PRIV-RM-DIFF OF ED-ITCIACO (SUB)
         1519:                       CIACO-CFAS-DED-AMT OF ED-ITCIACO (SUB)
         1520:                       CIACO-CFAS-CO-PAY-AMT1 OF ED-ITCIACO (SUB)
         1521:                       CIACO-CFAS-CO-PAY-AMT2 OF ED-ITCIACO (SUB)
         1522:                       CIACO-CFAS-CO-INS-AMT OF ED-ITCIACO (SUB)
         1523:                       CIACO-CFAB-NON-COV-SERV OF ED-ITCIACO (SUB)
         1524:                       CIACO-CFAB-NON-COV-D-V-U OF ED-ITCIACO (SUB)
         1525:                       CIACO-CFAB-MAX-DOL OF ED-ITCIACO (SUB)
         1526:                       CIACO-CFAB-PRIV-RM-DIFF OF ED-ITCIACO (SUB)
         1527:                       CIACO-CFAB-DED-AMT OF ED-ITCIACO (SUB)
         1528:                       CIACO-CFAB-CO-PAY-AMT1 OF ED-ITCIACO (SUB)
         1529:                       CIACO-CFAB-CO-PAY-AMT2 OF ED-ITCIACO (SUB)
         1530:                       CIACO-CFAB-CO-INS-AMT OF ED-ITCIACO (SUB)
         1531:                       CIACO-CFAB-PRC-PCT-AMT OF ED-ITCIACO (SUB)
         1533: 001142                CIACO-DMEB-AMT OF ED-ITCIACO (SUB)                00114205
         1534: 001143                CIACO-DMES-AMT OF ED-ITCIACO (SUB)                00114305
         1537:                       CIACO-BMFASS-NON-COV-SERV OF ED-ITCIACO (SUB)
         1538:                       CIACO-BMFASS-NON-COV-D-V-U OF ED-ITCIACO (SUB)
         1539:                       CIACO-BMFASS-MAX-DOL OF ED-ITCIACO (SUB)
         1540:                       CIACO-BMFASS-DOL-RED OF ED-ITCIACO (SUB)
         1541:                       CIACO-BMFASS-PCT-RED OF ED-ITCIACO (SUB)
         1542:                       CIACO-BMFASB-NON-COV-SERV OF ED-ITCIACO (SUB)
         1543:                       CIACO-BMFASB-NON-COV-D-V-U OF ED-ITCIACO (SUB)
         1544:                       CIACO-BMFASB-MAX-DOL OF ED-ITCIACO (SUB)
         1545:                       CIACO-BMFASB-DOL-RED OF ED-ITCIACO (SUB)
         1546:                       CIACO-BMFASB-PCT-RED OF ED-ITCIACO (SUB)
         1547:                       CIACO-SSAB-MAX-SUPP-AMT   OF ED-ITCIACO (SUB)
         1548:                       CIACO-SSAB-SURCHARGE-AMT  OF ED-ITCIACO (SUB)
         1549:                       CIACO-PMS-PAY-MAX-AMT     OF ED-ITCIACO (SUB)
         1550: 116000                CIACO-PMB-PAY-MAX-AMT     OF ED-ITCIACO (SUB)     00134000
         1552:                       CIACO-BMFAP-SANC-DOL-RED OF ED-ITCIACO (SUB)      00134200
         1553:                       CIACO-BMFAP-SANC-PCT-RED OF ED-ITCIACO (SUB)      00134300
         1554:                       CIACO-BMFAP-EXCESS-DOL-RED OF ED-ITCIACO (SUB)    00134400
         1556:                                                  OF ED-ITCIACO (SUB)    00134600
         1557:                       CIACO-BMFAS-PROV-SANC-RED  OF ED-ITCIACO (SUB)    00149400
         1560: 111518                CIACO-DME-APPLIED-AMT-ACTUAL OF ED-ITCIACO (SUB). 00149700
         1563:                       CIACO-LN-ERR-MAX-IND   OF ED-ITCIACO (SUB).
         1593:                 IF CIACO-CLM-STAT-CD OF ED-ITCIACO = WS-ONE-ND
         1597:                         CIACO-LN-RSN-CD OF ED-ITCIACO
         1600:            MOVE CIACO-CLM-STAT-CD OF ED-ITCIACO TO WS-STATUS-CHECK.
         1608:                 IF CIACO-SUCCESSFUL OF ED-ITCIACO
         1609:                      MOVE WS-ERROR TO CIACO-CLM-STAT-CD OF ED-ITCIACO
         1610:                      MOVE CIACO-CLM-STAT-CD OF ED-ITCIACO
         1634:                     CIACO-LN-ERR-MAX-IND OF ED-ITCIACO (SUBSCRIPT-CO).
0    ELEMENT   IULP9352
           47:       *         ED-ITCIACO, BUILD FROM ITCIACO AND PASS INTO HPA ON    *
           48:       *         FULL C2 CALL.  PASS IUCIAAJR TO IULP9360.              *
          159:        01  ITCWSMCD.
          160:            COPY ITCWSMCD.
1         191:        01  IUCIAAJR.
          192:            COPY IUCIAAJR.
          198:            COPY ITCIACO REPLACING CIACO-TBL-ENTRY-CNT
          211:            COPY IULIASJR.
          214:            COPY ITCIACP REPLACING CIACP-TBL-ENTRY-CNT
          218:            COPY ITCIACO REPLACING CIACO-TBL-ENTRY-CNT
          225:            COPY IULIAAJR.
          253:            COPY IULIA2JR.
          259:            COPY IUCIAAJR REPLACING CIAAJR-TBL-ENTRY-CNT BY
          374:                                 IUCIAAJR
          375:                                 ITCIACP
          376:                                 ITCIACO
          558:            PERFORM C300-MOVE-ED-ITCIACO THRU C300-EXIT.
          633:            MOVE CIACO-CALC-RESULTS OF ITCIACO    (1:158)
          634:              TO CIACO-CALC-RESULTS OF ED-ITCIACO (1:158).
          642:                MOVE CIACO-CALC-RESULTS-LN-ITEM OF ITCIACO    (SUB)
          643:                  TO CIACO-CALC-RESULTS-LN-ITEM OF ED-ITCIACO (SUB)
          698:                IF CIAAJR-DF-MSG-CD-CLM OF IUCIAAJR (SUB1) NOT EQUAL
          700:                   MOVE CIAAJR-DF-MSG-CD-CLM OF IUCIAAJR (SUB1)
          732:               MOVE CIAAJR-DF-MSG-CD-LN OF IUCIAAJR (SUB1)
          874:            IF CIACP-REL-NUM OF ITCIACP >= WS-REL195
          945:            IF  CIAAJR-LINE-BUS OF IUCIAAJR NOT = SPACES
          946:            AND CIAAJR-LINE-BUS OF IUCIAAJR NOT = LOW-VALUES
          947:              MOVE CIAAJR-LINE-BUS OF IUCIAAJR
          951:            IF  CIAAJR-MED-ASGNMT-IND OF IUCIAAJR NOT = SPACES
          952:            AND CIAAJR-MED-ASGNMT-IND OF IUCIAAJR NOT = LOW-VALUES
          953:              MOVE CIAAJR-MED-ASGNMT-IND OF IUCIAAJR
         1095:                                           ITCIACO
         1109:                                           ITCIACP
         1126:                                           ITCIACO
         1136:                                           IUCIAAJR
         1149:                                           IUCIAAJR
         1163:                                           ITCIACP
         1164:                                           IUCIAAJR
         1166:       *R16.0  PD_103727  KJO  CHG'D ITCIACO TO ED-ITCIACO BELOW
         1167:                                           ED-ITCIACO
0    ELEMENT   IULP9354
           24:       *                 03/26/02 02.0  - 1.ADD ITCIACP TO WS           *
           26:       *                                    SFCP TO ITCIACP             *
          140:        01  IUCIAAJR.
          141:            COPY IUCIAAJR.
          147:            COPY ITCIACO REPLACING CIACO-TBL-ENTRY-CNT
          157:            COPY ITCIACP REPLACING CIACP-TBL-ENTRY-CNT
          160:            COPY ITCIACO REPLACING CIACO-TBL-ENTRY-CNT
          252:                                 IUCIAAJR
          253:                              ED-ITCIACO
          254:                                 ITCIACO
          335:               IF CIACO-CLM-STAT-CD OF ED-ITCIACO EQUAL WS-ZERO
          339:               IF CIACO-CLM-STAT-CD OF ED-ITCIACO EQUAL WS-TWO
          346:               IF CIACO-CLM-STAT-CD OF ED-ITCIACO EQUAL WS-ZERO
          352:               IF CIACO-CLM-STAT-CD OF ED-ITCIACO EQUAL WS-TWO
          354:                  IF CIACO-CLM-STAT-CD OF ED-ITCIACO EQUAL WS-TWO
          395:               MOVE SFCP TO ITCIACP
          424:            MOVE CIACO-CLM-STAT-CD OF ED-ITCIACO
          427:            MOVE CIACO-CLM-RSN-CD OF ED-ITCIACO (1)
          428:              TO CIACO-CLM-RSN-CD OF ITCIACO (1).
          430:            MOVE CIACO-CLM-RSN-CD OF ED-ITCIACO (2)
          431:              TO CIACO-CLM-RSN-CD OF ITCIACO (2).
          433:            MOVE CIACO-CLM-RSN-CD OF ED-ITCIACO (3)
1         434:              TO CIACO-CLM-RSN-CD OF ITCIACO (3).
          436:            MOVE CIACO-CLM-RSN-CD OF ED-ITCIACO (4)
          437:              TO CIACO-CLM-RSN-CD OF ITCIACO (4).
          439:            MOVE CIACO-CLM-RSN-CD OF ED-ITCIACO (5)
          440:              TO CIACO-CLM-RSN-CD OF ITCIACO (5).
          442:            MOVE CIACO-CLM-ERR-MAX-IND OF ED-ITCIACO
          455:            MOVE CIACO-LN-RSN-CD OF ED-ITCIACO (SUB, 1)
          456:              TO CIACO-LN-RSN-CD OF ITCIACO (SUB, 1).
          458:            MOVE CIACO-LN-RSN-CD OF ED-ITCIACO (SUB, 2)
          459:              TO CIACO-LN-RSN-CD OF ITCIACO (SUB, 2).
          461:            MOVE CIACO-LN-RSN-CD OF ED-ITCIACO (SUB, 3)
          462:              TO CIACO-LN-RSN-CD OF ITCIACO (SUB, 3).
          464:            MOVE CIACO-LN-ERR-MAX-IND OF ED-ITCIACO (SUB)
          465:              TO CIACO-LN-ERR-MAX-IND OF ITCIACO (SUB).
          552:                                           ITCIACP
          553:                                           IUCIAAJR
          555:                                           ITCIACO
          612:            IF  CIACO-LN-STAT-CD       OF ITCIACO (SUB)
          615:                       CIACO-REM-COV-CHRGS    OF ITCIACO (SUB)
          616:                       CIACO-REM-PMT-ALLWD-AMT    OF ITCIACO (SUB)
          617: 058500                CIACO-ACCUM-SUB-LIAB OF ITCIACO (SUB)             05850005
          618:                       CIACO-REM-ALLWD-AMT      OF ITCIACO (SUB)
          620:                       CIACO-ACCUM-EXCL-SUB-REDS OF ITCIACO (SUB)        05850005
          621:                       CIACO-CFAS-MAX-DOL OF ITCIACO (SUB)
          622:                       CIACO-CFAS-DED-AMT OF ITCIACO (SUB)
          623:                       CIACO-CFAS-CO-PAY-AMT1 OF ITCIACO (SUB)
          624:                       CIACO-CFAS-CO-PAY-AMT2 OF ITCIACO (SUB)
          625:                       CIACO-CFAS-CO-INS-AMT OF ITCIACO (SUB)
          626:                       CIACO-CFAB-MAX-DOL OF ITCIACO (SUB)
          627:                       CIACO-CFAB-DED-AMT OF ITCIACO (SUB)
          628:                       CIACO-CFAB-CO-PAY-AMT1 OF ITCIACO (SUB)
          629:                       CIACO-CFAB-CO-PAY-AMT2 OF ITCIACO (SUB)
          630:                       CIACO-CFAB-CO-INS-AMT OF ITCIACO (SUB)
          631:                       CIACO-CFAB-PRC-PCT-AMT OF ITCIACO (SUB)
          633: 059810                CIACO-DMEB-AMT OF ITCIACO (SUB)                   05980006
          634: 059820                CIACO-DMES-AMT OF ITCIACO (SUB)                   05980007
          637:                       CIACO-SSAB-MAX-SUPP-AMT   OF ITCIACO (SUB)
          638:                       CIACO-SSAB-SURCHARGE-AMT  OF ITCIACO (SUB)
          639:                       CIACO-PMS-PAY-MAX-AMT     OF ITCIACO (SUB)
          640: 060400                CIACO-PMB-PAY-MAX-AMT     OF ITCIACO (SUB)        06040005
          645:       *               CIACO-COV-SERV-CHRGS-EXC-CS OF ITCIACO (SUB)      05850005
          646:       *               CIACO-BMFAP-SANC-DOL-RED OF ITCIACO (SUB)
          647:       *               CIACO-BMFAP-SANC-PCT-RED OF ITCIACO (SUB)
          648:       *               CIACO-BMFAP-EXCESS-DOL-RED OF ITCIACO (SUB)
          649:       *               CIACO-BMFAP-EXCESS-PER-DAY-RED OF ITCIACO (SUB)
          650:       *               CIACO-BMFAS-PROV-SANC-RED OF ITCIACO (SUB)
          653: 111518                CIACO-DME-APPLIED-AMT-ACTUAL OF ITCIACO (SUB).    05980007
          660:            IF  CIACO-LN-STAT-CD       OF ITCIACO (SUB)
          691:                 CIACO-INIT-PMT-AMT OF ITCIACO    (SUB).
          694:                 CIACO-INIT-ALLWD-AMT   OF ITCIACO    (SUB).
0    ELEMENT   IULP9356
          126:                                 ITCIACO
          278:                    CIACO-CLM-ERR-MAX-IND OF ITCIACO
          280:                    CIACO-CLM-RSN-CD OF ITCIACO (WS-5)
          282:            IF CIACO-CLM-RSN-CD OF ITCIACO (ERR-SUB1) EQUAL
          285:                    CIACO-CLM-RSN-CD OF ITCIACO (ERR-SUB1)
0    ELEMENT   IULP9358
          107:                                 ITCIACP
1         153:            MOVE CIACP-CLM-TYPE  OF ITCIACP
          157:            MOVE CIACP-TOT-CHRG  OF ITCIACP
          165:            MOVE CIACP-TBL-ENTRY-CNT  OF ITCIACP
0    ELEMENT   IULP9360
           38:       *         GROUPINGS - CHANGE CO/COP LIMITS, ADD ITCIACP ARGUMENT *00329004
           42:       *R16.0   11/12/2015  03.4  PD_103727 KJO: PASS IN IUCIAAJR.  *00342000
          180:        01  ITCWSMCD.                                                    01142103
          181:            COPY ITCWSMCD.                                               01142203
          209:            COPY ITCIACO REPLACING CIACO-TBL-ENTRY-CNT
          230:        01  IUCIAAJR.                                                    01496000
          231:            COPY IUCIAAJR.                                               01497000
          247:                                 ITCIACO
          257:                                 IUCIAAJR                                01633001
          352:            MOVE CIACO-TBL-ENTRY-CNT OF ITCIACO
          980:            MOVE CIACO-TBL-ENTRY-CNT OF ITCIACO
         1780:                CIACO-BCBS-PMT-AMT              OF ITCIACO
         1930:                    CIACO-CLM-ERR-MAX-IND OF ITCIACO
         1932:                    CIACO-CLM-RSN-CD OF ITCIACO (WS-5)
         1934:            IF CIACO-CLM-RSN-CD OF ITCIACO (ERR-SUB1) EQUAL
         1937:                    CIACO-CLM-RSN-CD OF ITCIACO (ERR-SUB1)
         1962:                      UNTIL WS-S1 > CIACO-TBL-ENTRY-CNT OF ITCIACO       17217000
         1967:                               CIACO-SSAB-MAX-SUPP-AMT OF ITCIACO        17218404
         1973:               IF CIACO-INCLUSIVE-TYPE-CALC OF ITCIACO                   17219008
         1980:                                  OF ITCIACO  (WS-S1)                    17219709
         1982:                                  OF ITCIACO  (WS-S1)                    17219909
         2003:                 TO CIACO-BCBS-PMT-AMT OF ITCIACO                        17222004
         2022:            IF CIACO-PART-OF-INCLUSIVE OF ITCIACO (WS-S2)                17223804
         2025:                                  OF ITCIACO  (WS-S2)                    17224105
         2028:                                  OF ITCIACO  (NPLUS1-SUB)               17224405
         2031:                                  OF ITCIACO  (WS-S2)                    17224705
         2033:                                  OF ITCIACO  (NPLUS1-SUB)               17224905
         2036:                                  OF ITCIACO  (WS-S2)                    17225205
         2039:                                  OF ITCIACO  (NPLUS1-SUB)               17225505
         2043:                                  OF ITCIACO  (WS-S2)                    17225905
         2046:                                  OF ITCIACO  (WS-S2)                    17226205
         2049:                                  OF ITCIACO  (WS-S2)                    17226505
0    ELEMENT   IULP9362
           11:       *   NAME:         ALIM BUILD FINAL IUCIAAJR AREA MODULE C3       *
           17:       *   FUNCTION:     THIS MODULE BUILDS THE FINAL IUCIAAJR AREA     *
           48:                'ALIM BUILD FINAL IUCIAAJR C3 AREA MODULE'.
           73:        01  IUCIAAJR.
           74:            COPY IUCIAAJR.
           76:            COPY IULIA2JR.
           78:            COPY IUCIAAJR REPLACING CIAAJR-TBL-ENTRY-CNT BY
           87:                                 IUCIAAJR
          123:                       TO CIAAJR-ADJUD-DT OF IUCIAAJR
          136:                       TO CIAAJR-ORIG-OPERATOR-ID OF IUCIAAJR
          149:                       TO CIAAJR-ORIG-PROCESS-DT OF IUCIAAJR
          165:                      = CIAAJR-CLM-REASON-CD OF IUCIAAJR(WS-S2)
          188:                            = CIAAJR-CLM-REASON-CD OF IUCIAAJR(WS-S2)
          198:                              AND CIAAJR-CLM-REASON-CD OF IUCIAAJR(WS-S3)
          203:                                  CIAAJR-CLM-REASON-CD OF IUCIAAJR(WS-S3)
          216:                                        OF IUCIAAJR(WS-S3)
          238:                      = CIAAJR-DF-MSG-CD-CLM OF IUCIAAJR(WS-S2)
          261:                            = CIAAJR-DF-MSG-CD-CLM OF IUCIAAJR(WS-S2)
          271:                              AND CIAAJR-DF-MSG-CD-CLM OF IUCIAAJR(WS-S3)
          276:                                  CIAAJR-DF-MSG-CD-CLM OF IUCIAAJR(WS-S3)
          289:                                        OF IUCIAAJR(WS-S3)
1         309:            SET CIAAJR-SECONDARY OF IUCIAAJR TO TRUE.
0    ELEMENT   IULP9364
           98:        01  IUCIAAJR.
           99:            COPY IUCIAAJR.
          103:            COPY ITCIACO REPLACING CIACO-TBL-ENTRY-CNT
          112:            COPY IULIASJR.
          114:            COPY ITCIACP REPLACING CIACP-TBL-ENTRY-CNT
          117:            COPY ITCIACO REPLACING CIACO-TBL-ENTRY-CNT
          122:            COPY IULIAAJR.
          139:            COPY IULIA2JR.
          219:                                 IUCIAAJR
          220:                                 ITCIACP
          221:                                 ITCIACO
          431:                                           IUCIAAJR
          432:                                           ITCIACO
          444:                                 IUCIAAJR
          460:                                 IUCIAAJR
          461:                                 ITCIACP
          462:                                 ITCIACO
0    ELEMENT   IULP9366
           88:        01  IUCIAAJR.
           89:            COPY IUCIAAJR.
           93:            COPY ITCIACO REPLACING CIACO-TBL-ENTRY-CNT
          101:                                 IUCIAAJR
          102:                                 ITCIACO
          111:            IF CIACO-UNABLE-TO-CALC OF ITCIACO
0    ELEMENT   IULP9368
           11:       *   NAME:         ALIM BUILD FINAL IUCIAAJR AREA MODULE P3       *
           17:       *   FUNCTION:     THIS MODULE BUILDS THE FINAL IUCIAAJR AREA     *
          131:            COPY IUCIAAJR REPLACING CIAAJR-TBL-ENTRY-CNT BY
          151:        01  IUCIAAJR.
          152:            COPY IUCIAAJR.
          155:            COPY IULIASJR.
          158:            COPY ITCIACP REPLACING CIACP-TBL-ENTRY-CNT
          162:            COPY ITCIACO REPLACING CIACO-TBL-ENTRY-CNT
          171: 011700*R14.0 E_84725 RDW ADD CALCS/IULIACS                              00011700
          178:                                 IUCIAAJR
          184: 011700*R14.0 E_84725 RDW ADD CALCS/IULIACS                              00011700
          208:            MOVE IUCIAAJR TO INTAJR.
          211:            MOVE SPACE TO CIAAJR-DATA OF IUCIAAJR.
          212:            MOVE ZERO TO  CIAAJR-INVEST-DAY                  OF IUCIAAJR
          213:                          CIAAJR-CARVE-OUT-DAY               OF IUCIAAJR
          214:                          CIAAJR-TOT-COB-SAV-AMT             OF IUCIAAJR
          215:                          CIAAJR-TOT-AMT-APPV-PMT            OF IUCIAAJR
          216:                          CIAAJR-TOT-PAT-LIAB-AMT            OF IUCIAAJR
          217:                          CIAAJR-TOT-COV-CHRG                OF IUCIAAJR
          218:                          CIAAJR-TOT-CONT-NON-COV-AMT        OF IUCIAAJR
          219:                          CIAAJR-TOT-CONT-RED-DAYS           OF IUCIAAJR
          220:                          CIAAJR-TOT-DED-AMT                 OF IUCIAAJR
          221:                          CIAAJR-TOT-CO-PAY-AMT              OF IUCIAAJR
          222:                          CIAAJR-TOT-CO-INS-AMT              OF IUCIAAJR
          223:                          CIAAJR-TOT-AMT-PAID-OTH-CARR       OF IUCIAAJR
          224:                          CIAAJR-TOT-BNFT-MGMT-RED-DAY       OF IUCIAAJR
          225:                          CIAAJR-TOT-PMT-RED-AMT-1           OF IUCIAAJR
          226:                          CIAAJR-TOT-PMT-RED-AMT-2           OF IUCIAAJR
          227:                          CIAAJR-TOT-PMT-RED-AMT-3           OF IUCIAAJR
          228:                          CIAAJR-TOT-PMT-RED-AMT-4           OF IUCIAAJR
1         229:                          CIAAJR-TOT-PMT-RED-AMT-5           OF IUCIAAJR
          230:                          CIAAJR-TOT-PMT-RED-AMT-6           OF IUCIAAJR
          231:                          CIAAJR-TOT-PMT-RED-AMT-7           OF IUCIAAJR
          232:                          CIAAJR-TOT-PMT-RED-AMT-8           OF IUCIAAJR
          233:                          CIAAJR-TOT-PMT-RED-AMT-9           OF IUCIAAJR
          234:                          CIAAJR-TOT-PMT-RED-AMT-10          OF IUCIAAJR
          235: 015700                   CIAAJR-TOT-PVT-RM-NON-COV          OF IUCIAAJR 00015700
          237: 015700                   CIAAJR-EXCESS-DAYS-OV              OF IUCIAAJR.00015700
          240:               MOVE SPACE TO CIAAJR-PAY-OVR-LN-ITEM OF IUCIAAJR(WS-S1)
          242:                         CIAAJR-COV-CHRG           OF IUCIAAJR(WS-S1)
          243:                         CIAAJR-AMT-APPV-PMT       OF IUCIAAJR(WS-S1)
          244:                         CIAAJR-PAT-LIAB-AMT       OF IUCIAAJR(WS-S1)
          245:                         CIAAJR-NON-COV-CHRG       OF IUCIAAJR(WS-S1)
          246:                         CIAAJR-CONT-RED-DAYS      OF IUCIAAJR(WS-S1)
          247:                         CIAAJR-DED-AMT            OF IUCIAAJR(WS-S1)
          248:                         CIAAJR-CO-PAY-AMT         OF IUCIAAJR(WS-S1)
          249:                         CIAAJR-CO-INS-AMT         OF IUCIAAJR(WS-S1)
          250:                         CIAAJR-BNFT-MGMT-RED-AMT  OF IUCIAAJR(WS-S1)
          251:                         CIAAJR-BNFT-MGMT-RED-DAYS OF IUCIAAJR(WS-S1)
          252:                         CIAAJR-PMT-RED-AMT-1      OF IUCIAAJR(WS-S1)
          253:                         CIAAJR-PMT-RED-AMT-2      OF IUCIAAJR(WS-S1)
          254:                         CIAAJR-PMT-RED-AMT-3      OF IUCIAAJR(WS-S1)
          255:                         CIAAJR-PMT-RED-AMT-4      OF IUCIAAJR(WS-S1)
          256:                         CIAAJR-PMT-RED-AMT-5      OF IUCIAAJR(WS-S1)
          257:                         CIAAJR-PMT-RED-AMT-6      OF IUCIAAJR(WS-S1)
          258:                         CIAAJR-PMT-RED-AMT-7      OF IUCIAAJR(WS-S1)
          259:                         CIAAJR-PMT-RED-AMT-8      OF IUCIAAJR(WS-S1)
          260:                         CIAAJR-PMT-RED-AMT-9      OF IUCIAAJR(WS-S1)
          261:                         CIAAJR-PMT-RED-AMT-10     OF IUCIAAJR(WS-S1)
          262:                         CIAAJR-AMT-PAID-OTH-CARR  OF IUCIAAJR(WS-S1)
          263:                         CIAAJR-PVT-RM-NON-COV     OF IUCIAAJR(WS-S1)
          372:                 TO CIAAJR-ADJ-RSN-CD OF IUCIAAJR.
          378:                 TO CIAAJR-ADJUD-APPV-CD OF IUCIAAJR.
          385:                 TO CIAAJR-ADJUD-DT OF IUCIAAJR
          390:                 TO CIAAJR-ADJUD-DT OF IUCIAAJR.
          398:                 TO CIAAJR-PAYMENT-OVERRIDE-IND OF IUCIAAJR.
          406:                 TO CIAAJR-ADJUD-STAT-IND OF IUCIAAJR.
          414:                 TO CIAAJR-ASO-IND OF IUCIAAJR
          420:                 TO CIAAJR-ASO-IND OF IUCIAAJR.
          430:                  IF CIAAJR-BMSP-ADJ-RSN-CD OF IUCIAAJR(WS-S2) = SPACE
          432:                       TO CIAAJR-BMSP-ADJ-RSN-CD OF IUCIAAJR(WS-S2)
          443:                 TO CIAAJR-CARVE-OUT-DAY OF IUCIAAJR
          448:                 TO CIAAJR-CARVE-OUT-DAY OF IUCIAAJR.
          456:                 TO CIAAJR-CARVE-OUT-IND OF IUCIAAJR
          462:                 TO CIAAJR-CARVE-OUT-IND OF IUCIAAJR.
          474:                    TO CIAAJR-CLM-REASON-CD OF IUCIAAJR(WS-S1)
          479:            IF CIAAJR-CLM-REASON-CD OF IUCIAAJR(1) = SPACE
          480:            OR CIAAJR-CLM-REASON-CD OF IUCIAAJR(2) = SPACE
          481:            OR CIAAJR-CLM-REASON-CD OF IUCIAAJR(3) = SPACE
          482:            OR CIAAJR-CLM-REASON-CD OF IUCIAAJR(4) = SPACE
          483:            OR CIAAJR-CLM-REASON-CD OF IUCIAAJR(5) = SPACE
          492:                         = CIAAJR-CLM-REASON-CD OF IUCIAAJR(WS-S2)
          511:                            = CIAAJR-CLM-REASON-CD OF IUCIAAJR(WS-S2)
          521:                              AND CIAAJR-CLM-REASON-CD OF IUCIAAJR(WS-S3)
          526:                                  CIAAJR-CLM-REASON-CD OF IUCIAAJR(WS-S3)
          539:                                        OF IUCIAAJR(WS-S3)
          552:            IF CIAAJR-CLM-REASON-CD OF IUCIAAJR(1) = SPACE
          553:            OR CIAAJR-CLM-REASON-CD OF IUCIAAJR(2) = SPACE
          554:            OR CIAAJR-CLM-REASON-CD OF IUCIAAJR(3) = SPACE
          555:            OR CIAAJR-CLM-REASON-CD OF IUCIAAJR(4) = SPACE
1         556:            OR CIAAJR-CLM-REASON-CD OF IUCIAAJR(5) = SPACE
          565:                         = CIAAJR-CLM-REASON-CD OF IUCIAAJR(WS-S2)
          575:                           AND CIAAJR-CLM-REASON-CD OF IUCIAAJR(WS-S3)
          580:                               CIAAJR-CLM-REASON-CD OF IUCIAAJR(WS-S3)
          593:                                     OF IUCIAAJR(WS-S3)
          610:                 TO CIAAJR-CROSS-REF-SCCF-NUM OF IUCIAAJR.
          622:                    TO CIAAJR-DF-MSG-CD-CLM OF IUCIAAJR(WS-S1)
          627:            IF CIAAJR-DF-MSG-CD-CLM OF IUCIAAJR(1) = SPACE
          628:            OR CIAAJR-DF-MSG-CD-CLM OF IUCIAAJR(2) = SPACE
          629:            OR CIAAJR-DF-MSG-CD-CLM OF IUCIAAJR(3) = SPACE
          630:            OR CIAAJR-DF-MSG-CD-CLM OF IUCIAAJR(4) = SPACE
          631:            OR CIAAJR-DF-MSG-CD-CLM OF IUCIAAJR(5) = SPACE
          640:                         = CIAAJR-DF-MSG-CD-CLM OF IUCIAAJR(WS-S2)
          659:                            = CIAAJR-DF-MSG-CD-CLM OF IUCIAAJR(WS-S2)
          669:                              AND CIAAJR-DF-MSG-CD-CLM OF IUCIAAJR(WS-S3)
          674:                                  CIAAJR-DF-MSG-CD-CLM OF IUCIAAJR(WS-S3)
          687:                                        OF IUCIAAJR(WS-S3)
          700:            IF CIAAJR-DF-MSG-CD-CLM OF IUCIAAJR(1) = SPACE
          701:            OR CIAAJR-DF-MSG-CD-CLM OF IUCIAAJR(2) = SPACE
          702:            OR CIAAJR-DF-MSG-CD-CLM OF IUCIAAJR(3) = SPACE
          703:            OR CIAAJR-DF-MSG-CD-CLM OF IUCIAAJR(4) = SPACE
          704:            OR CIAAJR-DF-MSG-CD-CLM OF IUCIAAJR(5) = SPACE
          713:                         = CIAAJR-DF-MSG-CD-CLM OF IUCIAAJR(WS-S2)
          723:                           AND CIAAJR-DF-MSG-CD-CLM OF IUCIAAJR(WS-S3)
          728:                               CIAAJR-DF-MSG-CD-CLM OF IUCIAAJR(WS-S3)
          741:                                     OF IUCIAAJR(WS-S3)
          761:                  IF CIAAJR-DF-MSG-CD-LN OF IUCIAAJR(WS-S2) = SPACE
          763:                       TO CIAAJR-DF-MSG-CD-LN OF IUCIAAJR(WS-S2)
          772:                 TO CIAAJR-FORCED-ERROR-IND OF IUCIAAJR.
          780:                 TO CIAAJR-FUNC-CD OF IUCIAAJR.
          788:                 TO CIAAJR-INDEM-CUTBK-IND OF IUCIAAJR.
          795:                 TO CIAAJR-INVEST-DAY OF IUCIAAJR
          800:                 TO CIAAJR-INVEST-DAY OF IUCIAAJR.
          808:                 TO CIAAJR-INVEST-IND OF IUCIAAJR
          814:                 TO CIAAJR-INVEST-IND OF IUCIAAJR.
          821:                 TO CIAAJR-INVEST-RECEIPT-DT OF IUCIAAJR
          826:                 TO CIAAJR-INVEST-RECEIPT-DT OF IUCIAAJR.
          834:                 TO CIAAJR-LAST-NAME-1-3 OF IUCIAAJR
          840:                 TO CIAAJR-LAST-NAME-1-3 OF IUCIAAJR.
          848:                 TO CIAAJR-LAST-OPERATOR-ID OF IUCIAAJR.
          855:                 TO CIAAJR-LAST-PROCESS-DT OF IUCIAAJR.
          862:                 TO CIAAJR-LAST-PROCESS-TIME OF IUCIAAJR.
          870:                 TO CIAAJR-LINE-BUS OF IUCIAAJR.
          878:                 TO CIAAJR-MED-ASGNMT-IND OF IUCIAAJR.
          884:              TO CIAAJR-ONLINE-BATCH-CD OF IUCIAAJR.
          892:                 TO CIAAJR-ORIG-OPERATOR-ID OF IUCIAAJR
          898:                 TO CIAAJR-ORIG-OPERATOR-ID OF IUCIAAJR.
          905:                 TO CIAAJR-ORIG-PROCESS-DT OF IUCIAAJR
          910:                 TO CIAAJR-ORIG-PROCESS-DT OF IUCIAAJR.
          917:                 TO CIAAJR-PAT-BRT-DT OF IUCIAAJR.
          925:                 TO CIAAJR-PAT-NAME OF IUCIAAJR.
          933:                 TO CIAAJR-PAT-SEX OF IUCIAAJR.
          941:                 TO CIAAJR-PRC-MTD-ALT-IND OF IUCIAAJR.
          949:                 TO CIAAJR-PRC-MTD-CLM OF IUCIAAJR.
          976:               SET CIAAJR-PRIMARY  OF IUCIAAJR TO TRUE
          980:               SET CIAAJR-MEDICARE OF IUCIAAJR TO TRUE
          983:               SET CIAAJR-SECONDARY-WOULD-PAY OF IUCIAAJR TO TRUE
          986:               SET CIAAJR-SECONDARY OF IUCIAAJR TO TRUE
          988:               SET CIAAJR-SECONDARY OF IUCIAAJR TO TRUE.
          996:                 TO CIAAJR-PROCESS-CD OF IUCIAAJR.
1        1002:                 TO CIAAJR-PROCESS-STATUS OF IUCIAAJR.
         1010:                 TO CIAAJR-SCCF-SER-NUM OF IUCIAAJR.
         1018:                 TO CIAAJR-STREAMLINE-ADJ-IND OF IUCIAAJR.
         1026:                 TO CIAAJR-SUB-GRP-NUM OF IUCIAAJR.
         1034:                 TO CIAAJR-SUB-ID-NUM-ACTUAL OF IUCIAAJR.
         1041:                 TO CIAAJR-COB-CALC-MTD OF IUCIAAJR.
         1048:                 TO CIAAJR-SEC-PAYOR-PRC-QUAL OF IUCIAAJR.
         1052:            MOVE SPACE TO CIAAJR-RULE-NUM-PRIM-CLM OF IUCIAAJR.
         1056:            MOVE SPACE TO CIAAJR-RULE-NUM-SEC-CLM OF IUCIAAJR.
         1073:                         = CIAAJR-TOT-PMT-RED-RSN-CD OF IUCIAAJR(WS-S2)
         1084:                               OF IUCIAAJR(WS-S3) = SPACE
         1089:                                  OF IUCIAAJR(WS-S3)
         1102:                                     OF IUCIAAJR(WS-S3)
         1116:            IF CIAAJR-TOT-PMT-RED-RSN-CD OF IUCIAAJR(1) NOT = SPACE
         1117:            OR CIAAJR-TOT-PMT-RED-RSN-CD OF IUCIAAJR(2) NOT = SPACE
         1118:            OR CIAAJR-TOT-PMT-RED-RSN-CD OF IUCIAAJR(3) NOT = SPACE
         1119:            OR CIAAJR-TOT-PMT-RED-RSN-CD OF IUCIAAJR(4) NOT = SPACE
         1120:            OR CIAAJR-TOT-PMT-RED-RSN-CD OF IUCIAAJR(5) NOT = SPACE
         1121:            OR CIAAJR-TOT-PMT-RED-RSN-CD OF IUCIAAJR(6) NOT = SPACE
         1122:            OR CIAAJR-TOT-PMT-RED-RSN-CD OF IUCIAAJR(7) NOT = SPACE
         1123:            OR CIAAJR-TOT-PMT-RED-RSN-CD OF IUCIAAJR(8) NOT = SPACE
         1124:            OR CIAAJR-TOT-PMT-RED-RSN-CD OF IUCIAAJR(9) NOT = SPACE
         1125:            OR CIAAJR-TOT-PMT-RED-RSN-CD OF IUCIAAJR(10) NOT = SPACE
         1128:                  IF CIAAJR-TOT-PMT-RED-RSN-CD OF IUCIAAJR(WS-S1)
         1136:                           = CIAAJR-TOT-PMT-RED-RSN-CD OF IUCIAAJR(WS-S1)
         1138:                             TO CIAAJR-TOT-PMT-RED-AMT OF IUCIAAJR(WS-S1)
         1150:                 TO CIAAJR-TBL-ENTRY-CNT OF IUCIAAJR.
         1158:                TO CIAAJR-TOT-COB-SAV-AMT OF IUCIAAJR
         1160:                TO CIAAJR-TOT-AMT-APPV-PMT OF IUCIAAJR
         1162:                TO CIAAJR-TOT-PAT-LIAB-AMT OF IUCIAAJR
         1164:                TO CIAAJR-TOT-COV-CHRG OF IUCIAAJR
         1166:                TO CIAAJR-TOT-CONT-NON-COV-AMT OF IUCIAAJR
         1168:                TO CIAAJR-TOT-CONT-RED-DAYS OF IUCIAAJR
         1170:                TO CIAAJR-TOT-DED-AMT OF IUCIAAJR
         1172:                TO CIAAJR-TOT-CO-PAY-AMT OF IUCIAAJR
         1174:                TO CIAAJR-TOT-CO-INS-AMT OF IUCIAAJR
         1176:                TO CIAAJR-TOT-AMT-PAID-OTH-CARR OF IUCIAAJR
         1178:                TO CIAAJR-TOT-BNFT-MGMT-RED-DAY OF IUCIAAJR
         1180:                TO CIAAJR-TOT-PVT-RM-NON-COV OF IUCIAAJR
         1199:                         OF IUCIAAJR(WS-S4 WS-S1)
         1215:                         = CIAAJR-PMT-RED-RSN-CD OF IUCIAAJR(WS-S4 WS-S2)
         1224:                              OF IUCIAAJR(WS-S4 WS-S3) = SPACE
         1228:                                   OF IUCIAAJR(WS-S4 WS-S3)
         1254:                          OF IUCIAAJR(WS-S3 WS-S1)
         1262:               IF CIAAJR-PMT-RED-RSN-CD OF IUCIAAJR(WS-S3 1) NOT = SPACE
         1263:               OR CIAAJR-PMT-RED-RSN-CD OF IUCIAAJR(WS-S3 2) NOT = SPACE
         1264:               OR CIAAJR-PMT-RED-RSN-CD OF IUCIAAJR(WS-S3 3) NOT = SPACE
         1265:               OR CIAAJR-PMT-RED-RSN-CD OF IUCIAAJR(WS-S3 4) NOT = SPACE
         1266:               OR CIAAJR-PMT-RED-RSN-CD OF IUCIAAJR(WS-S3 5) NOT = SPACE
         1267:               OR CIAAJR-PMT-RED-RSN-CD OF IUCIAAJR(WS-S3 6) NOT = SPACE
         1268:               OR CIAAJR-PMT-RED-RSN-CD OF IUCIAAJR(WS-S3 7) NOT = SPACE
         1269:               OR CIAAJR-PMT-RED-RSN-CD OF IUCIAAJR(WS-S3 8) NOT = SPACE
         1270:               OR CIAAJR-PMT-RED-RSN-CD OF IUCIAAJR(WS-S3 9) NOT = SPACE
         1271:               OR CIAAJR-PMT-RED-RSN-CD OF IUCIAAJR(WS-S3 10) NOT = SPACE
         1274:                     IF CIAAJR-PMT-RED-RSN-CD OF IUCIAAJR(WS-S3 WS-S1)
         1286:                                                 OF IUCIAAJR(WS-S3 WS-S1)
         1290:                                              OF IUCIAAJR(WS-S3 WS-S1)
         1316:                                                       OF IUCIAAJR(WS-S2)
         1318:                                                       OF IUCIAAJR(WS-S2)
         1321:                                                       OF IUCIAAJR(WS-S2)
1        1323:                                                       OF IUCIAAJR(WS-S2)
         1325:                                                       OF IUCIAAJR(WS-S2)
         1327:                                                       OF IUCIAAJR(WS-S2)
         1329:                                                       OF IUCIAAJR(WS-S2)
         1331:                                                       OF IUCIAAJR(WS-S2)
         1333:                                                       OF IUCIAAJR(WS-S2)
         1335:                                                       OF IUCIAAJR(WS-S2)
         1337:                                                       OF IUCIAAJR(WS-S2)
         1339:                                                       OF IUCIAAJR(WS-S2)
         1344:                                                       OF IUCIAAJR(WS-S2)
         1349:                                                       OF IUCIAAJR(WS-S2)
         1364: 120900                                                OF IUCIAAJR(WS-S6)00120900
         1368: 121300                                                OF IUCIAAJR(WS-S6)00121300
         1372: 122500                                                OF IUCIAAJR(WS-S6)00122500
         1376: 122900                                                OF IUCIAAJR(WS-S6)00122900
         1380: 123300                                                OF IUCIAAJR(WS-S6)00123300
         1384: 125100                                                OF IUCIAAJR(WS-S6)00125100
         1391:                                                       OF IUCIAAJR(WS-S2)
         1395:                                                       OF IUCIAAJR(WS-S2)
         1399:                                                       OF IUCIAAJR(WS-S2)
         1403:                                                       OF IUCIAAJR(WS-S2)
         1407:                                                       OF IUCIAAJR(WS-S2)
         1411:                                                       OF IUCIAAJR(WS-S2)
         1415:                                                       OF IUCIAAJR(WS-S2)
         1419:                                                       OF IUCIAAJR(WS-S2)
         1423:                                                       OF IUCIAAJR(WS-S2)
         1427:                                                       OF IUCIAAJR(WS-S2)
         1430:                                                       OF IUCIAAJR(WS-S2)
         1433:                                                       OF IUCIAAJR(WS-S2)
         1437:                                                       OF IUCIAAJR(WS-S2)
         1441:                                                       OF IUCIAAJR(WS-S2)
         1451: 125760          TO CIAAJR-BOID OF IUCIAAJR                              00125760
         1454: 125790          TO CIAAJR-BOID OF IUCIAAJR.                             00125790
         1465:                 TO CIAAJR-CORR-PRI-PAYER-NM OF IUCIAAJR
         1471:                    TO CIAAJR-CORR-PRI-PAYER-NM OF IUCIAAJR              00090100
         1478:                 TO CIAAJR-OTH-SUB-LAST-NM OF IUCIAAJR
         1484:                    TO CIAAJR-OTH-SUB-LAST-NM OF IUCIAAJR                00090100
         1491:                 TO CIAAJR-OTH-SUB-MDL-INIT OF IUCIAAJR
         1497:                    TO CIAAJR-OTH-SUB-MDL-INIT OF IUCIAAJR               00090100
         1504:                 TO CIAAJR-OTH-SUB-FIRST-NM OF IUCIAAJR
         1510:                    TO CIAAJR-OTH-SUB-FIRST-NM OF IUCIAAJR               00090100
         1517:                 TO CIAAJR-OTH-SUB-ID-NUM OF IUCIAAJR
         1523:                    TO CIAAJR-OTH-SUB-ID-NUM OF IUCIAAJR                 00090100
         1530:                 TO CIAAJR-COV-EXP-DATE OF IUCIAAJR
         1535:                   TO CIAAJR-COV-EXP-DATE OF IUCIAAJR
         1541:                     TO CIAAJR-COV-EXP-DATE OF IUCIAAJR                  00090100
         1558:                    IF CIAAJR-HEALTH-POLICY-ID OF IUCIAAJR(WS-S2, WS-S6) 00030500
         1561:                        TO CIAAJR-HEALTH-POLICY-ID OF IUCIAAJR           00030700
         1576:                 TO CIAAJR-SYS-CREATOR-CD OF IUCIAAJR
         1581:                    TO CIAAJR-SYS-CREATOR-CD OF IUCIAAJR                 00090100
         1591:                 TO CIAAJR-TRANSM-MODE-CD-OVR OF IUCIAAJR
         1596:                    TO CIAAJR-TRANSM-MODE-CD-OVR OF IUCIAAJR             00090100
         1611:                      OF IUCIAAJR
         1626:                 TO CIAAJR-ADJ-RCPT-DT OF IUCIAAJR
         1631:                    TO CIAAJR-ADJ-RCPT-DT OF IUCIAAJR                    00090100
         1646: 117939          TO CIAAJR-PRFX-ACCT-ID OF IUCIAAJR
         1651: 117939             TO CIAAJR-PRFX-ACCT-ID OF IUCIAAJR                   00090100
         1680: 108000               = CIAAJR-PMT-RED-RSN-CD OF IUCIAAJR(WS-S7 WS-S2)   00108000
         1689: 108900                    OF IUCIAAJR(WS-S7 WS-S3) = SPACE              00108900
         1693: 109300                         OF IUCIAAJR(WS-S7 WS-S3)                 00109300
1        1716: 111800     IF CIAAJR-PMT-RED-RSN-CD OF IUCIAAJR(WS-S7 1) NOT = SPACE    00111800
         1717: 111900     OR CIAAJR-PMT-RED-RSN-CD OF IUCIAAJR(WS-S7 2) NOT = SPACE    00111900
         1718: 112000     OR CIAAJR-PMT-RED-RSN-CD OF IUCIAAJR(WS-S7 3) NOT = SPACE    00112000
         1719: 112100     OR CIAAJR-PMT-RED-RSN-CD OF IUCIAAJR(WS-S7 4) NOT = SPACE    00112100
         1720: 112200     OR CIAAJR-PMT-RED-RSN-CD OF IUCIAAJR(WS-S7 5) NOT = SPACE    00112200
         1721: 112300     OR CIAAJR-PMT-RED-RSN-CD OF IUCIAAJR(WS-S7 6) NOT = SPACE    00112300
         1722: 112400     OR CIAAJR-PMT-RED-RSN-CD OF IUCIAAJR(WS-S7 7) NOT = SPACE    00112400
         1723: 112500     OR CIAAJR-PMT-RED-RSN-CD OF IUCIAAJR(WS-S7 8) NOT = SPACE    00112500
         1724: 112600     OR CIAAJR-PMT-RED-RSN-CD OF IUCIAAJR(WS-S7 9) NOT = SPACE    00112600
         1725: 112700     OR CIAAJR-PMT-RED-RSN-CD OF IUCIAAJR(WS-S7 10) NOT = SPACE   00112700
         1728: 113000           IF CIAAJR-PMT-RED-RSN-CD OF IUCIAAJR(WS-S7 WS-S1)      00113000
         1740: 114200                                       OF IUCIAAJR(WS-S7 WS-S1)   00114200
         1744: 114600                                    OF IUCIAAJR(WS-S7 WS-S1)      00114600
0    ELEMENT   IULP9370
           92:        01  IUCIAAJR.
           93:            COPY IUCIAAJR.
           97:            COPY ITCIACO REPLACING CIACO-TBL-ENTRY-CNT
          181:                                 IUCIAAJR
          182:                                 ITCIACP
          183:                                 ITCIACO
          314:                                           ITCIACP
          315:                                           IUCIAAJR
          317:                                           ITCIACO
0    ELEMENT   IULP9440
           80:        01  IUCIAAJR.
           81:            COPY IUCIAAJR.
           91:        01  SFAJR.  COPY IULIASJR.
           92:        01  SFCP.   COPY ITCIACP REPLACING CIACP-TBL-ENTRY-CNT BY
           94:        01  SFCO.   COPY ITCIACO REPLACING CIACO-TBL-ENTRY-CNT BY
           97:        01  ADJAJR. COPY IULIAAJR.
          101:        01  CALREP. COPY IULIAREP.
          107:        01  C2AJR.    COPY IULIA2JR.
          114:                                           IUCIAAJR
          115:                                           ITCIACP
          116:                                           ITCIACO
          226:                                           IUCIAAJR
          227:                                           ITCIACO
          232:       *14.0.1  KJO  TD_92489  PASS CALCS/IULIACS
          240:                                           IUCIAAJR
          241:                                           ITCIACO
0    ELEMENT   IULP9442
           91:        01  IUCIAAJR.
           92:            COPY IUCIAAJR.
           97:        01  SFCP.   COPY ITCIACP REPLACING CIACP-TBL-ENTRY-CNT BY
          109:                                 IUCIAAJR
          110:                                 ITCIACO
          115:       *14.0.1  KJO  TD_92489  PASS IN CALCS/IULIACS                     00941002
0    ELEMENT   IULP9444
           73:        01  IUCIAAJR.
           74:            COPY IUCIAAJR.
           84:                                 IUCIAAJR
           85:                                 ITCIACO
          108:            PERFORM C200-MOVE-IUCIAAJR-TO-P2AJR.
          124:        C200-MOVE-IUCIAAJR-TO-P2AJR.
0    ELEMENT   IULP9490
1          41:       * COPYBOOK IULIACS CONTAINS DATA PASSED FROM APPLICATION PROGRAM *
           72:       *                                - CORRECT IULIAAJR LINE SELECT  *
          130:       *         MODIFY FOR ITCIACO LINE EXPANSION.                     *
          380:        01  IULIASJR-WORK-AREA.
          427:        01  IULIAAJR-WORK-AREA.
          521:        01  IULIA2JR-WORK-AREA.
          543:        01  IULIAREP-WORK-AREA.
          579:            05  IULIAAJR-OCCURS-ROW       PIC S9(04) COMP VALUE +82.
          587:            05  IULIA2JR-OCCURS-ROW       PIC S9(04) COMP VALUE +135.
          589:            05  IULIAREP-OCCURS-ROW       PIC S9(04) COMP VALUE +52.
          678:            COPY IULIASJR.
          694:            COPY IULIAAJR.
          706:            COPY IULIAREP.
          722:            COPY IULIA2JR.
         1119:       * THE RECORDS ARE: ITSIAPC; IULIALM; IULIASJR; ITCIACP; ITCIACO;
         1191:       * THE RECORDS ARE: ITSIAPC; IULIAALM; IULIAAJR; IULIACO; IULIACS;
         1192:       * IULIAREP; IULIACI; IULIROWS
         1248:       * THE RECORDS ARE: IULIACI; IULIACIP; IULIACOZ; IULIA2JR;
         1654:       * THE RECORDS ARE: IULIALM(10); IULIASJR(20); ITCIACP(30)
         1681:       * THE L1 GROUP: IULIALM(10); IULIASJR(20); ITCIACP(30)
         1684:       * THE L2 GROUP: (IULIAALM (50); IULIAAJR (60); IULIACO (70)
         1685:       * IULIACS (80); IULIAREP (90)
         1710:       * THE L1 GROUP: IULIALM(10); IULIASJR(20); ITCIACP(30)
         1713:       * THE L2 GROUP: (IULIAALM (50); IULIAAJR (60); IULIACO (70)
         1714:       * IULIACS (80); IULIAREP (90)
         1717:       * IULIA2JR (98); IULIA2LM (99)
         1743:       * THE RECORDS ARE: IULIALM(10); IULIASJR(20); ITCIACP(30)
         1969:       *  ITCIACP (30); ITCIACO (40) AND IULIACS (80)                    00485
         2487:       *  SAVE IULIASJR RECORD IN THE ALIM_WRK_CLM DB2 TABLE
         2488:       *  USE IULIASJR-WORK-AREA TO FORMAT THE DATA AND THEN WRITE ROW
         2511:                                         IULIASJR-WORK-AREA.
         2531:       *  SAVE ITCIACP RECORD IN THE ALIM_WRK_CLM DB2 TABLE
         2622:       * RESTORE THE FIRST (OR NEXT ROW) FOR ITCIACP DATA
         2625:       * ITCIACP RETRIEVED FROM DB2 TABLE
         2661:       *  ITCIACO - UPF CALCULATOR OUTPUT INTERFACE AREA
         2662:       *  SAVE ITCIACO RECORD IN THE ALIM_WRK_CLM DB2 TABLE
         2754:       * RESTORE THE FIRST (OR NEXT ROW) FOR ITCIACO DATA
         2757:       * ITCIACO RETRIEVED FROM DB2 TABLE
         2937:       *  IULIAAJR - ONE OF THE WORK CLAIM AREAS (PARTIAL IULIAJR).
         2940:       *  SAVE IULIAAJR RECORD IN THE ALIM_WRK_CLM DB2 TABLE
         2941:       *  USE IULIAAJR-WORK-AREA TO FORMAT THE DATA AND WRITE ROW
         2974:            IF  TBL-SUB > IULIAAJR-OCCURS-ROW
         3034:       * RESTORE THE FIRST (OR NEXT ROW) FOR IULIAAJR DATA (60)
         3054:                  UNTIL TBL-SUB > IULIAAJR-OCCURS-ROW
         3093:       *  IULIACS - ONE OF THE WORK CLAIM AREAS USED TO STORE
         3096:       *  SAVE IULIACS RECORD IN THE ALIM_WRK_CLM DB2 TABLE
         3455:       *  IULIACS - RECORD ID = 80
         3464:       * RESTORE THE FIRST (OR NEXT ROW) FOR IULIACS DATA (80)
         3467:       * IULIACS RETRIEVED FROM DB2 TABLE
         3601:       *  IULIACO - USED TO STORE ADJUDICATION (LINE) DATA RETURNED
         3602:       *  FROM THE UPF CALCULATOR VIA HPA PRIOR TO POPULATING IULIACOP.
         3604:       *  SAVE IULIACO RECORD IN THE ALIM_WRK_CLM DB2 TABLE
         3607:       *  IULIACO LINES OCCUR 1998 (SPLIT LINE) AND 3 BENE LEVELS
         3695:       * RESTORE THE FIRST (OR NEXT ROW) FOR ITCIACO DATA (70)
         3702:       * IULIACO RETRIEVED FROM DB2 TABLE
         3738:       *  IULIAREP - ONE OF THE WORK CLAIM AREAS. USED TO STORE DATA
         3739:       *  REQUIRED TO RESTORE THE IULIACS WORK CLAIM AREA IF A
         3742:       *  SAVE IULIAREP RECORD IN THE ALIM_WRK_CLM DB2 TABLE
         3744:       *  USE IULIAREP-WORK-AREA TO FORMAT THE DATA AND WRITE ROW
         3745:       *  IULIAREP LINES OCCUR 7992 (SPLIT LINE AND 3 BENE LEVELS).
1        3776:                       OR  TBL-SUB  > IULIAREP-OCCURS-ROW.
         3780:            IF  TBL-SUB > IULIAREP-OCCURS-ROW
         3827:            OR  TBL-SUB < IULIAREP-OCCURS-ROW
         3847:       * RESTORE THE FIRST (OR NEXT ROW) FOR IULIAREP DATA (90)
         3850:       * IULIAREP RETRIEVED FROM DB2 TABLE
         3863:                  UNTIL TBL-SUB > IULIAREP-OCCURS-ROW
         4319:       *  IULIA2JR - ONE OF THE WORK CLAIM AREAS (PARTIAL IUCIA2JR) USED
         4322:       *  SAVE IULIA2JR RECORD IN THE ALIM_WRK_CLM DB2 TABLE
         4324:       *  USE IULIA2JR-WORK-AREA TO FORMAT THE DATA AND WRITE ROW
         4325:       *  IULIA2JR LINES OCCUR 1998 (SPLIT LINE) ONLY 1 BENE LEVEL.
         4353:                     OR    TBL-SUB > IULIA2JR-OCCURS-ROW.
         4357:            IF  TBL-SUB > IULIA2JR-OCCURS-ROW
         4422:       * RESTORE THE FIRST (OR NEXT ROW) FOR IULIA2JR DATA (98)
         4426:       * IULIA2JR RETRIEVED FROM DB2 TABLE
         4439:                  UNTIL TBL-SUB > IULIA2JR-OCCURS-ROW
         4611:       *  IULIAPJR - ONE OF THE WORK CLAIM AREAS (PARTIAL IUCIAAJR)
         4997:                IF  TBL-SUB > IULIAAJR-OCCURS-ROW
         5115:                IF  TBL-SUB > IULIAREP-OCCURS-ROW
         5209:                IF  TBL-SUB > IULIA2JR-OCCURS-ROW
1ENVIRONMENT  BCBS01    SYSTEM  ITS       SUBSYSTEM  HERF
 TYPE  COBOL     STAGE NUMBER 2 .
0    ELEMENT   DIT7110P
          237: 00141  01  IUCIAAJR.                                                    ITCP9236
          238: 00142      COPY IUCIAAJR.                                               ITCP9236
0    ELEMENT   DIT7330P
           94: ITS104*!ITS!     - CHANGES MADE TO COMMENT OBSOLETE FIELDS OF ITCIACO
           97: ITS104*!ITS!       ITCIACI AND ITCIACO COPYBOOKS.
          109: ITS112*!ITS!     - CHANGES MADE TO INCORPORATE CHANGES IN IUCIAAJR     *
          128: ITS140*!ITS!     - CHANGES MADE TO INCORPORATE CHANGES IN ITCIACO      *
          153: ITS185*!ITS!       ITCIACO COPYBOOKS. INITIALIZE BELOW NEW FIELDS      *
          208:            COPY IUCDB100.
          213:        01  IUCIAAJR.
          214:            COPY IUCIAAJR.
          683:                       ITSIAPC       ITCIACI         ITCIACP
          684:                       IUCIAAJR      ITCIACIP        ITCIACO
0    ELEMENT   DIT9000P
          118: ITS104*!ITS!       ITCIACI AND ITCIACO COPYBOOKS.
          163: ITS112*!ITS!     - CHANGES MADE TO INCORPORATE CHANGES IN IUCIAAJR     *
          202: ITS140*!ITS!     - CHANGES MADE TO INCORPORATE CHANGES IN ITCIACO      *
          322:            COPY IUCDB100.
          325:        01  IUCIAAJR.
          326:            COPY IUCIAAJR.
         5123:                       ITSIAPC       ITCIACI         ITCIACP
         5124:                       IUCIAAJR      ITCIACIP        ITCIACO
         5159: ITS89C                ITCIACP
         5194: ITS90C                ITCIACP
         5197: ITS90C                ITCIACO
         5199: ITS90C                IUCIAAJR
1ENVIRONMENT  BCBS01    SYSTEM  ITS       SUBSYSTEM  HPA
 TYPE  COBOL     STAGE NUMBER 2 .
0    ELEMENT   IUCP2002
           97:       *R16.5.1 08/25/2016  11.8  PD_113047 DJL: INITIALIZE ITCIAAI *
          334:            COPY IUCDB100.
          356:        01  IUCIAAJR-AREA.
          357:            03  IUCIAAJR-ID  PIC X.
          358:            03  IUCIAAJR.
          359:                COPY IUCIAAJR.
          382:            COPY ITCIARAP.
          730:            MOVE CIARAP-AIDCOMM-RECORD TO IUCIAAJR-AREA.
         1040:                                       ITCIACP
         1041:                                       IUCIAAJR
         1043:                                       ITCIACO
         1080:       *14.0   E_72114  KJO PASS ITCIAAI
0    ELEMENT   IUCP3102
          147:        01  IUCIAAJR.
          148:            COPY IUCIAAJR.
          166:                                 ITCIACP
          168:                                 ITCIACO
          170:                                 IUCIAAJR
0    ELEMENT   IUCP3104
           97:        01  IUCIAAJR.
           98:            COPY IUCIAAJR.
          119:                                 ITCIACP
          121:                                 ITCIACO
          128:                                 IUCIAAJR
0    ELEMENT   IUCP3106
           28:       *                                - ADDED ITCIACI AND IUCIAAJR    *
           31:       *                                - ADDED IUCIAAJR TO USING       *
           96:        01  IUCIAAJR.
           98:            COPY IUCIAAJR.
          121:                                 IUCIAAJR
0    ELEMENT   IUCP3108
           99:        01  IUCIAAJR.
          100:            COPY IUCIAAJR.
          214:                                 ITCIACP
          216:                                 ITCIACO
          223:                                 IUCIAAJR
0    ELEMENT   IUCP3110
           83:        01  IUCIAAJR.
           85:            COPY IUCIAAJR.
          105:                                 ITCIACP
          106:                                 IUCIAAJR
0    ELEMENT   IUCP3112
           85:        01  IUCIAAJR.
           87:            COPY IUCIAAJR.
          104:                                 ITCIACP
          105:                                 IUCIAAJR
0    ELEMENT   IUCP3114
          102:        01  IUCIAAJR.
          103:            COPY IUCIAAJR.
1         119:                                 ITCIACO
          121:                                 ITCIACP
          127:                                 IUCIAAJR
0    ELEMENT   IUCP5090
          655:                                           ITCIACP
          695:                                           ITCIACP
0    ELEMENT   IUCP6002
           31:       *                                 UPDATED COPY MEMBER IUCDB100.  *
          251:            COPY IUCDB100.
          272:        01  IUCIAAJR-AREA.
          273:            03  IUCIAAJR-ID  PIC X.
          274:            03  IUCIAAJR.
          275:                COPY IUCIAAJR.
          298:            COPY ITCIARAP.
          299:        01  ITCIARAP REDEFINES
          676:            MOVE CIARAP-AIDCOMM-RECORD TO IUCIAAJR-AREA.
          904:                                       ITCIACP
          905:                                       IUCIAAJR
          907:                                       ITCIACO
0    ELEMENT   IUCP6024
           57:            COPY IUCDBF00.
          104:        01  IUCIAAJR.
          106:            COPY IUCIAAJR
          132:            COPY ITCIACP
          144:            COPY ITCIACO
          296:                PERFORM B100-WRITE-IUCIAAJR THRU B100-EXIT.
          308:                PERFORM B500-WRITE-ITCIACP  THRU B500-EXIT.
          314:                PERFORM B700-WRITE-ITCIACO  THRU B700-EXIT.
          336:        B100-WRITE-IUCIAAJR.
          339:            MOVE LOW-VALUES           TO IUCIAAJR.
          349:            WRITE CDBFAJ-AREA FROM IUCIAAJR.
          516:                 CIAAJR-PAY-OVR-LN-ITEM OF IUCIAAJR (LINE-SUB).
          646:            DISPLAY 'IUCDBF00 DB GET ERROR.'.
0    ELEMENT   IUCP6122
          203:        01  IUCIAAJR.
          204:            COPY IUCIAAJR.
          269:                                 IUCIAAJR
0    ELEMENT   IUCP6124
          155:        01  WS-IUCIAAJR.
          158:            COPY IUCIAAJR
          188:            COPY ITCIACP
          210:            COPY ITCIACO
          257:        01  IUCIAAJR.
          258:            COPY IUCIAAJR.
          299:                                 IUCIAAJR
          303:                                 ITCIACP
          306:                                 ITCIACO
          345:            IF CIAAJR-FORCED-ERR-NA OF IUCIAAJR
          353:            IF CIAAJR-COB OF IUCIAAJR
          374:            MOVE CIAAJR-SCCF-SER-NUM OF IUCIAAJR TO WS-SCCF-KEY-17.
          404:            MOVE CIAAJR-SCCF-SER-NUM OF IUCIAAJR TO WS-SCCF-KEY-17.
          434:            MOVE LOW-VALUES TO WS-IUCIAAJR.
          436:            IF CIAAJR-TBL-ENTRY-CNT OF IUCIAAJR NUMERIC
          437:                IF CIAAJR-TBL-ENTRY-CNT OF IUCIAAJR NOT GREATER WS-23
          441:                                           OF IUCIAAJR
1         444:                                           OF IUCIAAJR.
          447:                 CIAAJR-SCCF-SER-NUM OF IUCIAAJR.
          449:            MOVE CIAAJR-DATA OF IUCIAAJR TO
          450:                 CIAAJR-DATA OF WS-IUCIAAJR.
          454:            MOVE CIAAJR-TBL-ENTRY-CNT OF IUCIAAJR TO
          456:              WS-CIAAJR-TBL-ENTRY-CNT OF WS-IUCIAAJR.
          460:                    UNTIL AJX > CIAAJR-TBL-ENTRY-CNT OF IUCIAAJR.
          465:                    CIAAJR-TBL-ENTRY-CNT OF IUCIAAJR) + 3.
          579:            IF CIACP-TBL-ENTRY-CNT OF ITCIACP NUMERIC
          580:                IF CIACP-TBL-ENTRY-CNT OF ITCIACP NOT GREATER WS-23
          584:                                        OF ITCIACP
          589:            MOVE CIACP-PRICING-DATA OF ITCIACP TO
          594:            MOVE CIACP-TBL-ENTRY-CNT OF ITCIACP TO
          650:            IF CIACO-TBL-ENTRY-CNT OF ITCIACO NUMERIC
          651:                IF CIACO-TBL-ENTRY-CNT OF ITCIACO NOT GREATER WS-24
          655:                                        OF ITCIACO
          660:            MOVE CIACO-CALC-RESULTS OF ITCIACO TO
          665:            IF CIAAJR-PAY-OVR-APPLIED OF IUCIAAJR
          666:                SUBTRACT WS-ONE  FROM  CIACO-TBL-ENTRY-CNT OF ITCIACO
          669:            MOVE CIACO-TBL-ENTRY-CNT OF ITCIACO TO
          794:            IF CIAAJR-PAY-OVR-APPLIED OF IUCIAAJR
          825:            MOVE CIAAJR-PAY-OVR-LN-ITEM OF IUCIAAJR (AJX) TO
          826:                 CIAAJR-PAY-OVR-LN-ITEM OF WS-IUCIAAJR (AJX).
          858:            MOVE CIACP-LN-ITEM-ENTRY OF ITCIACP (CPX) TO
          859:                 CIACP-LN-ITEM-ENTRY OF WS-ITCIACP (CPX).
          869:            MOVE CIACO-CALC-RESULTS-LN-ITEM OF ITCIACO (COX) TO
          870:                 CIACO-CALC-RESULTS-LN-ITEM OF WS-ITCIACO (COX).
          930:                                 WS-IUCIAAJR
          969:                                 WS-ITCIACP
          995:                                 WS-ITCIACO
0    ELEMENT   IUCP9002
          123:       *R14.0   11/07/2013  16.5  E_84725   RDW: CHANGE ITCIACO     *
          144:            SELECT  IUCDBF00-IN-FILE       ASSIGN TO UT-S-IUCDBF00.
          150:        FD  IUCDBF00-IN-FILE
          157:        01  IUCDBF00-IN-RECORD.
          158:            COPY IUCDBF00.
         1535:        01  IUCIAAJR.
         1536:            COPY IUCIAAJR.
         1573:            COPY ITCIARAP.
         1661:            OPEN INPUT  IUCDBF00-IN-FILE.
         1674:            READ IUCDBF00-IN-FILE
         1693:                       READ IUCDBF00-IN-FILE
         1747:            CLOSE IUCDBF00-IN-FILE
0    ELEMENT   IUCP9010
          125:            COPY IUCDB100.
          386:            COPY IUCBT1CP.
          431:            COPY IUCIAAJR.
          456:            COPY ITCIARAP.
0    ELEMENT   IUCP9016
           74: IP3257*         INCORPORATE IUCWSEC FOR UD004                          *
          529:        01  IUCIAAJR.
          530:            COPY IUCIAAJR
          584:                                   IUCIAAJR
          624:                                   IUCIAAJR
          648:                                      IUCIAAJR
          685:                                   IUCIAAJR
         1105:                                   IUCIAAJR
1        1689:                       IUCIAAJR.
         1696:                                      IUCIAAJR
0    ELEMENT   IUCP9018
           44:       *R16.5.1 08/25/2016  01.6  PD_113047 DJL: INITIALIZE ITCIAAI *00273000
          442:        01  IUCIAAJR-AREA.                                               03690000
          443:            03  IUCIAAJR-ID  PIC X.                                      03700000
          444:            03  IUCIAAJR.                                                03710000
          445:                COPY IUCIAAJR.                                           03720000
         1005:            MOVE SPACES       TO IUCIAAJR-AREA.                          09480000
         1639:                                       ITCIACP                           16750000
         1640:                                       IUCIAAJR                          16760000
         1642:                                       ITCIACO                           16780000
         1679:       *14.0   E_72114  KJO PASS ITCIAAI
0    ELEMENT   IUCP9038
           25:       *                                  IUCIAAJR IF NOT OVERRIDE      *
           54:       *                                  SURCHARGE FIELDS TO IULIACS   *
          150:       *R16.5   05/12/2016  17.5  E_112820  STW: QUALIFY IULDBF00   *00040024
          157: 131318*         ADD THE TIER INDICATORS IN ITCIACP (CLAIM AND LINE).   *00040024
          199:       *R16.5 E_112820 STW QUALIFY IULDBF00 STATEMENT.
          201: 001300     COPY IULDBF00 REPLACING ==:LDBF:== BY ==LDBF==.
         4366:        01  IUCIAAJR-OUT.
         4368:            02  IUCIAAJR.
         4369:            COPY IUCIAAJR.
         7346:            COPY ITCIARAP.
         7871:            MOVE CIARAP-RECON-RECORD TO IUCIAAJR-OUT.
0    ELEMENT   IUCP9102
          167:       *                                 TO SAVE ITCIACO AND RESTORE IT *
          195:       *                                 ITCIACO DUE TO RENAME OF       *
          296:       *                             SAVEDFAREA 1 MEG, SAVEITCIACO 277K *
          329:       *       - ALSO INCLUDES E_24765.  ADD ITCIAAI TO LINKAGE AND PASS*
          572:        01  IUCIAAJR.
          573:            COPY IUCIAAJR.
          707:                                 ITCIACP
          708:                                 IUCIAAJR
          710:                                 ITCIACO
          747:       *14.0   E_72114  KJO ADD ITCIAAI
         1071:            IF CIACO-TBL-ENTRY-CNT OF ITCIACO < +0 OR
         1073:               CIACO-TBL-ENTRY-CNT OF ITCIACO > +1098
         1178:            IF CIACO-TBL-ENTRY-CNT OF ITCIACO < +0 OR
         1180:               CIACO-TBL-ENTRY-CNT OF ITCIACO > +1098
         1266:                                           ITCIACP
         1268:                                           ITCIACO
         1273:                                           ITCIARD
         1290:                                           IUCIAAJR
         1342:       *14.0   E_72114  KJO PASS ITCIAAI
         1354:                                           ITCIACP
         1355:                                           IUCIAAJR
         1357:                                           ITCIACO
         1360:                                           WS-SAVE-ITCIACO
         1367:                                           ITCIARD
         1403:       *14.0   E_72114  KJO PASS ITCIAAI
         1420:                                           ITCIACP
         1421:                                           IUCIAAJR
         1423:                                           ITCIACO
         1426:                                           WS-SAVE-ITCIACO
         1433:                                           ITCIARD
         1469:       *14.0   E_72114  KJO PASS ITCIAAI
1    ELEMENT   IUCP9104
           39:       *                                 TO INITIALIZE ITCIARD AREA.    *
           49:       *                                 ADDED IUCWSEC COPYMEMBER       *
           72:       *         ALSO CHANGE CLAIM-LEVEL MOVES IN ITCIACO TO 158 TO BE  *
           82:       *R15.5   05/14/2015  09.6  E_95770   RDW: ADD ITCIAAI TO     *
          216:            COPY ITCIACO
          374:       *R15.5 E_95770 RDW BEGIN: ADD ITCIAAI TO SUPPORT ZERO PRICING
          389:        01  IUCIAAJR.
          390:            COPY IUCIAAJR.
          419:                                 IUCIAAJR
          421:                                 ITCIACP
          423:                                 ITCIACO
         1142:       *R15.5 E_95770 RDW ADD ITCIAAI TO SUPPORT ZERO PRICING
         1296:                                            ITCIACP
         1297:                                            WS-ITCIACO
         1299:                                            ITCIARD
         1300:       *R15.5 E_95770 RDW ADD ITCIAAI TO SUPPORT ZERO PRICING
0    ELEMENT   IUCP9106
           57: 117939*       ADD ITCIACP TO LINKAGE; POPULATE ACCOUNT ID AND IND.     *
          120:        01  IUCIAAJR.
          121:            COPY IUCIAAJR.
          134: 117939                          ITCIACP
          135:                                 IUCIAAJR
0    ELEMENT   IUCP9108
           82:       *         GROUPINGS - CHANGE MAX ENTRIES FIELD FOR ITCIACP       *00050013
0    ELEMENT   IUCP9110
           72:        01  IUCIAAJR.
           73:            COPY IUCIAAJR.
           86:                                 IUCIAAJR
0    ELEMENT   IUCP9112
           70:       *                                 ITCIACO BEFORE INVOKING        *
          193:       *       ALSO ADD ITCIAAI TO SUPPORT ZERO PRICING. COSMETIC CHGS  *
          206: 132363*         ADD EXISTING COPYBOOK ITCWSEC AND NEW COPYBOOK IUCWSDEL*
          657:            COPY ITCIACO
          802:        01  ITCWSMCD.
          803:            COPY ITCWSMCD.
          840:        01  IUCIAAJR.
          841:            COPY IUCIAAJR.
          860:                                 ITCIACP
          862:                                 ITCIACO
          865:                                 ITCIARD
          866:                                 IUCIAAJR
         4175:                                            ITCIACP
         4176:                                            WS-ITCIACO
         4178:                                            ITCIARD
         4179:       *R15.5 E_95770 RDW ADD ITCIAAI TO SUPPORT ZERO PRICING
0    ELEMENT   IUCP9116
          137: IP2214*         INCORPORATE ITCWSMCD.                                  *01047100
          311: IP2214 01  ITCWSMCD.                                                    02690000
          312: IP2214     COPY ITCWSMCD.                                               02700000
          386:        01  IUCIAAJR.
          387:            COPY IUCIAAJR.
          518:                                 ITCIACP
          520:                                 ITCIACO
          533:                                 IUCIAAJR
1        1949:                             BY REFERENCE  ITCIACP
         1951:                             BY REFERENCE  ITCIACO
         1958:                             BY REFERENCE  IUCIAAJR
         1972:                             BY REFERENCE  ITCIACP
         1974:                             BY REFERENCE  ITCIACO
         1981:                             BY REFERENCE  IUCIAAJR
         1997:                             BY REFERENCE  ITCIACP
         1999:                             BY REFERENCE  ITCIACO
         2006:                             BY REFERENCE  IUCIAAJR
         2055:                             BY REFERENCE  ITCIACP
         2056:                             BY REFERENCE  IUCIAAJR
         2058:                             BY REFERENCE  ITCIACO
         2076:                             BY REFERENCE  ITCIACP
         2077:                             BY REFERENCE  IUCIAAJR
         2079:                             BY REFERENCE  ITCIACO
         2119:                                           ITCIACP
         2133:                             BY REFERENCE  ITCIACP                       18969000
         2135:                             BY REFERENCE  ITCIACO                       18969200
         2141:                             BY REFERENCE  IUCIAAJR                      18970100
         2156:                             BY REFERENCE  ITCIACP                       18979000
         2158:                             BY REFERENCE  ITCIACO                       18979200
         2164:                             BY REFERENCE  IUCIAAJR                      18980100
         2194:                                           IUCIAAJR
         2212:                                           IUCIAAJR.
         2222:                                           ITCIACP
         2224:                                           ITCIACO
         2231:                                           IUCIAAJR
         2245:                             BY REFERENCE  ITCIACP                       19528000
         2247:                             BY REFERENCE  ITCIACO                       19529100
         2255:                             BY REFERENCE  IUCIAAJR                      19530100
         2275:                             BY REFERENCE  ITCIACP                       19740000
         2277:                             BY REFERENCE  ITCIACO                       19760000
         2285:                             BY REFERENCE  IUCIAAJR                      19820000
         2301:                             BY REFERENCE  ITCIACP                       19778000
         2303:                             BY REFERENCE  ITCIACO                       19779100
         2311:                             BY REFERENCE  IUCIAAJR                      19780200
         2329:                             BY REFERENCE  ITCIACP                       19860000
         2331:                             BY REFERENCE  ITCIACO                       19880000
         2336:                             BY REFERENCE  IUCIAAJR                      19895000
         2351:                             BY REFERENCE  ITCIACP                       19897500
         2353:                             BY REFERENCE  ITCIACO                       19897700
         2358:                             BY REFERENCE  IUCIAAJR                      19895000
0    ELEMENT   IUCP9118
          186:       *                                 PRICING METHOD IN ITCIACP FOR  *
          489:        01  ITCWSMCD.
          490:            COPY ITCWSMCD.
          536:        01  IUCIAAJR.
          537:            COPY IUCIAAJR.
          558:                                 ITCIACP
          560:                                 ITCIACO
          566:                                 IUCIAAJR
0    ELEMENT   IUCP9120
          574:        01  ITCWSMCD.
          575:            COPY ITCWSMCD.
          627:        01  IUCIAAJR.
          628:            COPY IUCIAAJR.
          654:                                 ITCIACP
          656:                                 ITCIACO
1         664:                                 IUCIAAJR
0    ELEMENT   IUCP9122
          238: 117939*       SET THE DF ELEMENTS FROM ITCIACP, IUCIAAJR AND IUCIAACS. *
          250: IP2214*         INCORPORATE ITCWSMCD.                                  *
          402: IP2214 01  ITCWSMCD.
          403: IP2214     COPY ITCWSMCD.
          448:        01  IUCIAAJR.
          449:            COPY IUCIAAJR.
          476:                                 ITCIACP
          478:                                 ITCIACO
          485:                                 IUCIAAJR
0    ELEMENT   IUCP9123
           78:                                 ITCIACP
0    ELEMENT   IUCP9124
          170:       *                                 TO ADD IUCIAAJR AS THE SECOND  *
          771:        01  IUCIAAJR.
          772:            COPY IUCIAAJR.
          822:                                 ITCIACP
          825:                                 ITCIACO
          827:                                 IUCIAAJR
         3079:            IF CIAAJR-COB OF IUCIAAJR
         5497:                                           IUCIAAJR
         5511:                                           IUCIAAJR
         5529:                                           ITCIACP
         5530:                                           ITCIACO
         5533:                                           IUCIAAJR
         5545:                                           IUCIAAJR
         5546:                                           ITCIACO
         5549:       *12.0   E_41233  KJO  PASS ITCIACP TO IUCP9162
         5560:                                           IUCIAAJR
0    ELEMENT   IUCP9128
          172:                                 ITCIACP
0    ELEMENT   IUCP9130
          190:        01  IUCIAAJR.
          191:            COPY IUCIAAJR.
          221:                                 ITCIACP
          223:                                 ITCIACO
          228:                                 IUCIAAJR
0    ELEMENT   IUCP9132
          412:       *         CWSMCD-VALID-MESSAGE-CD IN ITCWSMCD. ADD UE108 ERROR   *
         1333:        01  ITCWSMCD.
         1334:            COPY ITCWSMCD.
         1367:        01  IUCIAAJR.
         1368:            COPY IUCIAAJR.
         1401:                                 ITCIACP
         1403:                                 IUCIAAJR
         1410:       *14.0   E_72114  KJO ADD ITCIAAI
         1595:       *    CIAIF-CLASS-PROV BY INTERROGATING THE ITCIACP AREA.
0    ELEMENT   IUCP9134
          176:        01  IUCIAAJR.
          177:            COPY IUCIAAJR.
          209:                                 ITCIACP
          210:                                 IUCIAAJR
1         259: IP3511*    PLANS MUST MAP THE IUCIAAJR AND IUCIAPF INTERNALLY
0    ELEMENT   IUCP9146
          311:                                 ITCIACP
          825:                                           ITCIACP
0    ELEMENT   IUCP9150
          222:       *                    SAVEITCIACO 277K. COPYMEMBERS IUCIASV,      *
          476: IP3946*         ADD WS FOR IUCPDINV                                    *
         1179:        01  ITCWSMCD.
         1180:            COPY ITCWSMCD.
         1311:        01  IUCIAAJR.
         1312:            COPY IUCIAAJR.
         1475:                                 ITCIACP
         1476:                                 IUCIAAJR
         1478:                                 ITCIACO
         1481:                                 WS-SAVE-ITCIACO
         1488:                                 ITCIARD
         1524:       *R14.0  E_72114  KJO ADD ITCIAAI
         6304:            MOVE CIACP-TBL-ENTRY-CNT OF ITCIACP TO
         6305:                 CIAAJR-TBL-ENTRY-CNT OF IUCIAAJR.
         6310:                        CIAAJR-TBL-ENTRY-CNT OF IUCIAAJR.
         8380:            IF CIACO-TBL-ENTRY-CNT OF ITCIACO < +0
         8382:            OR CIACO-TBL-ENTRY-CNT OF ITCIACO > WS-1098
         8457:            IF CIACO-TBL-ENTRY-CNT OF ITCIACO < +0
         8459:            OR CIACO-TBL-ENTRY-CNT OF ITCIACO > WS-1098
         8663:            IF CIACO-TBL-ENTRY-CNT OF ITCIACO < +0
         8665:            OR CIACO-TBL-ENTRY-CNT OF ITCIACO > WS-1098
         8752:            IF CIACO-TBL-ENTRY-CNT OF ITCIACO < +0
         8754:            OR CIACO-TBL-ENTRY-CNT OF ITCIACO > WS-1098
         8794:            IF CIACO-TBL-ENTRY-CNT OF ITCIACO < +0
         8796:            OR CIACO-TBL-ENTRY-CNT OF ITCIACO > WS-1098
         8872:            IF CIACO-TBL-ENTRY-CNT OF ITCIACO < +0
         8874:            OR CIACO-TBL-ENTRY-CNT OF ITCIACO > WS-1098
         8935:            IF CIACO-TBL-ENTRY-CNT OF ITCIACO < +0
         8937:            OR CIACO-TBL-ENTRY-CNT OF ITCIACO > WS-1098
         9086:            IF CIACO-TBL-ENTRY-CNT OF ITCIACO < +0
         9088:            OR CIACO-TBL-ENTRY-CNT OF ITCIACO > WS-1098
         9199:            IF CIACO-TBL-ENTRY-CNT OF ITCIACO < +0
         9201:            OR CIACO-TBL-ENTRY-CNT OF ITCIACO > WS-1098
         0008:                                           ITCIACP
         0010:                                           ITCIACO
         0015:                                           ITCIARD
         0030:                                           IUCIAAJR
         0080:       *R14.0  E_72114  KJO PASS ITCIAAI TO IUCP9160
         0527:                PERFORM X420-RESTORE-ITCIACO
         1812: IP3511     COPY IUCPDINV.
0    ELEMENT   IUCP9152
          237: 002340*                    SAVEITCIACO 277K. COPYMEMBERS IUCIASV,      *
          544: IP3946*         ADD WS FOR IUCPDINV                                    *
         1295:        01  ITCWSMCD.
         1296:            COPY ITCWSMCD.
         1430:        01  IUCIAAJR.
         1431:            COPY IUCIAAJR.
         1446: R21011*01  WS-SAVE-ITCIACO                                              00013040
         1599:                                 ITCIACP
         1600:                                 IUCIAAJR
         1602:                                 ITCIACO
         1605:                                 WS-SAVE-ITCIACO
1        1612:                                 ITCIARD
         1648:       *R14.0  E_72114  KJO ADD ITCIAAI
         1745:       *    ITCIACP SO THAT IT CAN BE ACCESSIBLE TO ALIM.  THE
         3495:       *    CIAIF-CLASS-PROV BY INTERROGATING THE ITCIACP AREA.
         7743:            MOVE CIACP-TBL-ENTRY-CNT OF ITCIACP TO
         7744:                 CIAAJR-TBL-ENTRY-CNT OF IUCIAAJR.
         7749:                        CIAAJR-TBL-ENTRY-CNT OF IUCIAAJR.
         9282:            IF CIAAJR-CLM-REASON-CD OF IUCIAAJR (SUB)
         9772: 068860         PERFORM X420-RESTORE-ITCIACO                             00068860
         0537:            IF CIACO-TBL-ENTRY-CNT OF ITCIACO < +0
         0539:            OR CIACO-TBL-ENTRY-CNT OF ITCIACO > WS-1098                  00074510
         0775:            IF CIACO-TBL-ENTRY-CNT OF ITCIACO < +0
         0777:            OR CIACO-TBL-ENTRY-CNT OF ITCIACO > WS-1098                  00076820
         0843:            IF CIACP-TBL-ENTRY-CNT OF ITCIACP < +0
         0844:            OR CIACP-TBL-ENTRY-CNT OF ITCIACP > WS-999
         0847:            IF CIACO-TBL-ENTRY-CNT OF ITCIACO < +0
         0849:            OR CIACO-TBL-ENTRY-CNT OF ITCIACO > WS-1098                  00077510
         0890:            IF CIACO-TBL-ENTRY-CNT OF ITCIACO < +0
         0892:            OR CIACO-TBL-ENTRY-CNT OF ITCIACO > WS-1098                  00077920
         0979:            IF CIACO-TBL-ENTRY-CNT OF ITCIACO < +0
         0981:            OR CIACO-TBL-ENTRY-CNT OF ITCIACO > WS-1098                  00078780
         1150:            IF CIACO-TBL-ENTRY-CNT OF ITCIACO < +0
         1152:            OR CIACO-TBL-ENTRY-CNT OF ITCIACO > WS-1098                  00080450
         1218:            IF CIACO-TBL-ENTRY-CNT OF ITCIACO < +0
         1220:            OR CIACO-TBL-ENTRY-CNT OF ITCIACO > WS-1098                  00081100
         1941:            IF CIACO-TBL-ENTRY-CNT OF ITCIACO < +0
         1943:            OR CIACO-TBL-ENTRY-CNT OF ITCIACO > WS-1098                  00086680
         2004:            IF CIACO-TBL-ENTRY-CNT OF ITCIACO < +0
         2006:            OR CIACO-TBL-ENTRY-CNT OF ITCIACO > WS-1098                  00087280
         2385:                                           ITCIACP
         2387:                                           ITCIACO
         2392:                                           ITCIARD
         2407:                                           IUCIAAJR
         2455:       *R14.0  E_72114  KJO BEGIN - PASS ITCIAAI TO IUCP9160
         4141: IP3511     COPY IUCPDINV.
0    ELEMENT   IUCP9154
          184:        01  IUCIAAJR.
          185:            COPY IUCIAAJR.
          212:                                 ITCIACP
          213:                                 IUCIAAJR
          215:                                 ITCIACO
0    ELEMENT   IUCP9156
          237:        01  IUCIAAJR.
          238:            COPY IUCIAAJR.
          284:                                 ITCIACP
          285:                                 IUCIAAJR
          287:                                 ITCIACO
0    ELEMENT   IUCP9158
          104:       *                    SAVEDFAREA 1 MEG, SAVEITCIACO 277K,         *
          106:       *                    IUCIADF, ITCIASF, IUCIADR, ITCIARD          *
          170: IP2214*         INCORPORATE ITCWSMCD.  ADD DFMC 1329 PROCESSING TO BE  *
          467: IP2214 01  ITCWSMCD.
          468: IP2214     COPY ITCWSMCD.
          505:        01  IUCIAAJR.
          506:            COPY IUCIAAJR.
          622:                                 ITCIACP
          624:                                 IUCIAAJR
1        1412:                                           ITCIACP
0    ELEMENT   IUCP9160
           58:       *                           SAVEDFAREA 1 MEG, SAVEITCIACO 277K   *
           75:       *       - ALSO INCLUDES E_24765.  ADD ITCIAAI TO LINKAGE AND PASS*
           79:       *       PASS ITCIAAI INTO ITCP9700.                              *
           86:       *R15.5   05/14/2015  07.0  E_95770   RDW - ADD ITCIAAI TO    *
           90:       *         ADD ITCIAAI TO IUCP9158                                *
           95: 117939*         ITCIACP TO ARGUMENT LIST FOR IUCP9106; ADD ITCIAPP4    *
          267:        01  IUCIAAJR.
          268:            COPY IUCIAAJR.
          427:                                 ITCIACP
          429:                                 ITCIACO
          434:                                 ITCIARD
          449:                                 IUCIAAJR
          704:            IF CIACO-TBL-ENTRY-CNT OF ITCIACO < WS-0
          814:            IF CIACO-TBL-ENTRY-CNT OF ITCIACO < WS-0
          868:            IF CIACO-TBL-ENTRY-CNT OF ITCIACO < WS-0
          906:            IF CIACO-TBL-ENTRY-CNT OF ITCIACO < WS-0
          956:            IF CIACO-TBL-ENTRY-CNT OF ITCIACO < WS-0 OR > WS-1098
         1083:            IF CIACO-TBL-ENTRY-CNT OF ITCIACO < WS-0 OR > WS-1098
         1126:            IF CIACO-TBL-ENTRY-CNT OF ITCIACO < WS-0 OR > WS-1098
         1162:            IF CIACO-TBL-ENTRY-CNT OF ITCIACO < WS-0 OR > WS-1098
         1208:            IF CIACO-TBL-ENTRY-CNT OF ITCIACO < WS-0 OR > WS-1098
         1515:                                            ITCIACP
         1516:                                            ITCIACO
         1518:                                            ITCIARD
         1519:       *R15.5  E_95770 RDW ADD ITCIAAI FOR ZERO PRICING
         1561:                                           ITCIACP
         1563:                                           ITCIACO
         1582:                                           ITCIACP
         1584:                                           ITCIACO
         1586:                                           IUCIAAJR
         1605:                                           ITCIACO
         1607:                                           ITCIACP
         1613:                                           IUCIAAJR
         1626:                                           IUCIAAJR
         1628:                                           ITCIACP
         1630:                                           ITCIACO
         1646: 117939                                    ITCIACP
         1647:                                           IUCIAAJR
         1659:                                           ITCIACP
         1674:                                           IUCIAAJR
         1687:                                           ITCIACP
         1689:                                           ITCIACO
         1692:                                           ITCIARD
         1693:                                           IUCIAAJR
         1726:                                           ITCIACP
         1728:                                           ITCIACO
         1741:                                           IUCIAAJR
         1797:                                           ITCIACP
         1800:                                           ITCIACO
         1802:                                           IUCIAAJR
         1824:                                           ITCIACP
         1844:                                           ITCIACP
         1846:                                           IUCIAAJR
         1853:       *14.0   E_72114  KJO PASS ITCIAAI
         1865:                                           ITCIACP
         1866:                                           IUCIAAJR
         1899:                                           ITCIACP
1        1945:                                           ITCIACP
         1947:                                           IUCIAAJR
         1996:                                           ITCIACP
         1998:                                           ITCIACO
         2001:                                           ITCIARD
         2002:                                           IUCIAAJR
         2016:                                           ITCIACP
         2076:                                           ITCIAAI
0    ELEMENT   IUCP9162
           19:       *                    ITCIACO AND ITCIACOP                        *
           36:       *                               - ADDED IUCIAAJR TO LINKAGE AND  *
           40:       *                                 ITCIACO FOR NON-COB CLAIMS     *
           52:       *                                 C200-SET-FROM-ITCIACO FOR      *
           61:       *                                 C400-SET-FROM-ITCIACO          *
           62:       *                                 SO THAT ITCIACO REASON CODES   *
          181:        01   IUCIAAJR.
          182:            COPY IUCIAAJR.
          212:                                 IUCIAAJR
          213:                                 ITCIACO
          216:       *12.0   E_41233  KJO PASS IN ITCIACP FROM IUCP9124
          254:                PERFORM C200-SET-FROM-ITCIACO
          259:                PERFORM C200-SET-FROM-ITCIACO
0    ELEMENT   IUCP9164
           90:       *R15.5   05/14/2015  06.6  E_95770   RDW: ADD ITCIAAI TO     *
          407:        01  ITCWSMCD.
          408:            COPY ITCWSMCD.
          424:            COPY ITCIACO
          561:       *R15.5  E_95770 RDW BEGIN: ADD ITCIAAI TO SUPPORT ZERO PRICING
          595:        01  IUCIAAJR.
          596:            COPY IUCIAAJR.
          614:                                 ITCIACP
          616:                                 ITCIACO
          619:                                 ITCIARD
          620:                                 IUCIAAJR
         1979:       *R15.5 E_95770 RDW ADD ITCIAAI TO SUPPORT ZERO PRICING
         3245:                                            ITCIACP
         3246:                                            WS-ITCIACO
         3248:                                            ITCIARD
         3249:       *R15.5 E_95770 RDW ADD ITCIAAI TO SUPPORT ZERO PRICING
0    ELEMENT   IUCP9166
          166:        01  IUCIAAJR.
          167:            COPY IUCIAAJR.
          194:                                 IUCIAAJR
0    ELEMENT   IUCP9170
           71:        01  IUCIAAJR.
           72:            COPY IUCIAAJR.
           81:                                 IUCIAAJR.
          116:       *12.0   E_41233  DJL REMOVE IUCIAAJR BELOW
0    ELEMENT   IUCP9178
          333:        01  IUCIAAJR.
          334:            COPY IUCIAAJR.
          400:                                 IUCIAAJR
0    ELEMENT   IUCP9180
          261:        01  IUCIAAJR.
1         262:            COPY IUCIAAJR.
          276:                                 IUCIAAJR
0    ELEMENT   IUCP9184
           21:       *                 ACCESSED AND MAPPED TO THE ITCIAAI COPYBOOK.   *00020
          128:                                 ITCIAAI                                 00097
0    ELEMENT   IUCP9186
           92:                                 ITCIAAI
0    ELEMENT   IUCP9356
           18: 117939*                 DATA BASE ACCESS AND THE ITCIACP BUILD         *
          427:                                 ITCIACP
         1689:                                           ITCIACP
0    ELEMENT   IUCP9502
          104:       *                                 ITCIACI AND IUCIAAJR TO CALL   *
          745:        01  ITCWSMCD.
          746:            COPY ITCWSMCD.
          817:        01  IUCIAAJR.
          819:            COPY IUCIAAJR.
          843:                                 IUCIAAJR
          846:                                 ITCIACP
         8930:                                          IUCIAAJR
0    ELEMENT   IUCP9506
          108:       *                                 METHOD CHECK WHEN ITCIACP      *
          539:        01  IUCIAAJR.
          540:            05  IUCIAAJR-LENGTH            COMP    PIC S9(08).
          541:            COPY IUCIAAJR.
          565:                                 IUCIAAJR,
0    ELEMENT   IUCP9508
          371:        01  IUCIAAJR.
          372:            05  IUCIAAJR-LENGTH            COMP    PIC S9(08).
          373:            COPY IUCIAAJR.
          397:                                 IUCIAAJR,
0    ELEMENT   IUCP9512
          239:        01  IUCIAAJR.
          240:            05  IUCIAAJR-LENGTH            COMP    PIC S9(08).
          241:            COPY IUCIAAJR.
          254:                                 ITCIACO
          257:                                 IUCIAAJR.
0    ELEMENT   IUCP9514
          295:        01  IUCIAAJR.
          296:            05  IUCIAAJR-LENGTH            COMP    PIC S9(08).
          297:            COPY IUCIAAJR.
          310:                                 ITCIACO
          313:                                 IUCIAAJR.
0    ELEMENT   IUCP9518
          112:            05  WS-DB-IUCDB100              PIC X(08)  VALUE 'IUCDB100'.
          266:            05  WS-IUCIAAJR-LENGTH     COMP PIC S9(08) VALUE +0.
          370:            COPY IUCDB1CP.
          395:        01  IUCIAAJR.
          397:                COPY IUCIAAJR.
          837:            COMPUTE  WS-IUCIAAJR-LENGTH = CIAAJR-LENGTH        +
          840:            MOVE     WS-IUCIAAJR-LENGTH     TO  WS-REC-LEN.
1        1441:                           WS-IUCIAAJR-LENGTH
0    ELEMENT   IUCV9006
           52:            SELECT IUCDB100-IN-FILE    ASSIGN TO UT-S-IUCDB1IN.          00380001
           54:            SELECT IUCDB100-OT-FILE    ASSIGN TO UT-S-IUCDB1OT.          00400001
           73:        FD  IUCDB100-IN-FILE                                             00480001
           79:        01  IUCDB100-IN-RECORD          PIC X(17673).                    00510002
           81:        FD  IUCDB100-OT-FILE                                             00550001
           87:        01  IUCDB100-OT-RECORD          PIC X(15642).                    00630010
          404:            05  LK-PRE-IUCIAAJR                PIC X(211264).            01933001
          405:            05  LK-POST-IUCIAAJR               PIC X(264283).            01934001
          406:            05  FILLER REDEFINES LK-POST-IUCIAAJR.                       01934138
          440:                03  IUCIAAJR REDEFINES CI-CP-AJ-REC.                     01943214
          961:                03  ITCIACP REDEFINES CI-CP-AJ-REC.                      02008414
         1197:            COPY ITCIARAP.                                               02039146
         1348:                OPEN INPUT  IUCDB100-IN-FILE                             02091150
         1349:                OPEN OUTPUT IUCDB100-OT-FILE                             02091450
         1497:                CLOSE IUCDB100-IN-FILE                                   02842050
         1498:                      IUCDB100-OT-FILE                                   02843050
         1552:            MOVE IDB100-CIACI-AREA   TO IUCDB100-OT-RECORD.              02998943
         1562:            WRITE IUCDB100-OT-RECORD.                                    02999943
         1575:            MOVE IDB100-CIACP-AREA   TO IUCDB100-OT-RECORD.              03001243
         1587:            WRITE IUCDB100-OT-RECORD.                                    03002437
         1645:                 LK-PRE-IUCIAAJR(1:WS-REC-LEN).                          03008237
         1656:            MOVE LK-POST-IUCIAAJR(1:WS-REC-LEN)                          03009338
         1669:                WRITE IUCDB100-OT-RECORD FROM ODB100-CIAAJR-AREA         03011138
         1695:            MOVE IDB100-CIACIP-AREA  TO IUCDB100-OT-RECORD.              03013838
         1698:            WRITE IUCDB100-OT-RECORD.                                    03014138
         1711:            MOVE IDB100-CIAPF-AREA   TO IUCDB100-OT-RECORD.              03015438
         1714:            WRITE IUCDB100-OT-RECORD.                                    03015738
         1726:            READ IUCDB100-IN-FILE                                        03016938
         2002:            MOVE IUCIAAJR            TO LK-PRE-IUCIAAJR.                 03782656
         2011:            MOVE LK-POST-IUCIAAJR    TO ODB1T0-CIAAJR-DATA.              03783556
0    ELEMENT   IUCV9007
           56:            SELECT IUCDBF00-IN-FILE    ASSIGN TO UT-S-IUCDBFIN.          00380051
           58:            SELECT IUCDBF00-OT-FILE    ASSIGN TO UT-S-IUCDBFOT.          00400051
           77:        FD  IUCDBF00-IN-FILE                                             00480051
           83:        01  IUCDBF00-IN-RECORD          PIC X(23220).                    00510060
           85:        FD  IUCDBF00-OT-FILE                                             00550051
           91:        01  IUCDBF00-OT-RECORD          PIC X(23220).                    00630060
          390:            05  LK-PRE-IUCIAAJR              PIC X(211264).              01933085
          391:            05  LK-POST-IUCIAAJR             PIC X(264283).              01934085
          392:            05  FILLER REDEFINES LK-POST-IUCIAAJR.                       01934138
          418:                03  IUCIAAJR REDEFINES CI-CP-AJ-REC.                     01944385
          939:                03  ITCIACP REDEFINES CI-CP-AJ-REC.                      02008914
         1195:            COPY ITCIARAP.                                               02041265
         1356:                OPEN INPUT  IUCDBF00-IN-FILE                             02091151
         1357:                OPEN OUTPUT IUCDBF00-OT-FILE                             02091451
         1509:                CLOSE IUCDBF00-IN-FILE                                   02842051
         1510:                      IUCDBF00-OT-FILE                                   02843051
         1765:                 LK-PRE-IUCIAAJR(1:WS-REC-LEN).                          03019986
         1779:            MOVE LK-POST-IUCIAAJR(1:WS-REC-LEN)                          03021386
         1792:                WRITE IUCDBF00-OT-RECORD FROM ODBFAJ-CIAAJR-AREA         03022686
         1817:            MOVE INPUT-RECORD        TO IUCDBF00-OT-RECORD.              03025186
         1819:            WRITE IUCDBF00-OT-RECORD.                                    03025386
         1831:            MOVE WS-HOLD-RECON (SUBT) TO IUCDBF00-OT-RECORD.             03026586
         1834:            WRITE IUCDBF00-OT-RECORD.                                    03026886
         1846:            READ IUCDBF00-IN-FILE                                        03028086
         2138:                                        LK-PRE-IUCIAAJR.                 03788870
1        2147:            MOVE LK-POST-IUCIAAJR    TO ODB1T0-CIAAJR-AREA.              03789770
0    ELEMENT   IUCV9008
           51:            SELECT IUCDB100-IN-FILE    ASSIGN TO UT-S-IUCDB1IN.          00380000
           52:            SELECT IUCDB100-OT-FILE    ASSIGN TO UT-S-IUCDB1OT.          00400000
           73:        FD  IUCDB100-IN-FILE                                             00480000
           78:        01  IUCDB100-IN-RECORD.                                          00510000
           91:        FD  IUCDB100-OT-FILE                                             00550000
           96:        01  IUCDB100-OT-RECORD          PIC X(15642).                    00630000
          296:                03  ITCIACP REDEFINES CI-CP-AJ-REC.                      02008400
          678:                OPEN INPUT IUCDB100-IN-FILE                              02091102
          679:                    OUTPUT IUCDB100-OT-FILE                              02091402
          837:                CLOSE IUCDB100-IN-FILE                                   02842000
          838:                      IUCDB100-OT-FILE                                   02843000
          882:            MOVE IUCDB100-IN-RECORD TO IDB100-CIACP-AREA                 03001300
          885:            MOVE IDB100-CIACP-AREA TO IUCDB100-OT-RECORD                 03002800
          886:            WRITE IUCDB100-OT-RECORD                                     03002900
          919:            MOVE IUCDB100-IN-RECORD TO IUCDB100-OT-RECORD                03014900
          921:            WRITE IUCDB100-OT-RECORD                                     03015100
          931:            READ IUCDB100-IN-FILE                                        03017800
         1095:                    MOVE ITCIACP TO ODB1T0-CIACP-DATA                    03775305
0    ELEMENT   IUCV9009
           52:            SELECT IUCDBF00-IN-FILE ASSIGN TO UT-S-IUCDBFIN.             00290000
           53:            SELECT IUCDBF00-OT-FILE ASSIGN TO UT-S-IUCDBFOT.             00310000
           74:        FD  IUCDBF00-IN-FILE                                             00473000
           79:        01  IUCDBF00-IN-RECORD.                                          00479000
          110:        FD  IUCDBF00-OT-FILE                                             00490000
          115:        01  IUCDBF00-OT-RECORD          PIC X(23220).                    00550000
          668:                OPEN INPUT IUCDBF00-IN-FILE                              02082900
          669:                    OUTPUT IUCDBF00-OT-FILE                              02083000
          831:                CLOSE IUCDBF00-IN-FILE                                   02670000
          832:                      IUCDBF00-OT-FILE                                   02680000
          887:            MOVE IUCDBF00-IN-RECORD TO IDBFCP-AREA                       03007000
          901:            MOVE IDBFCP-AREA TO IUCDBF00-OT-RECORD                       03010000
          902:            WRITE IUCDBF00-OT-RECORD                                     03010100
          913:            MOVE IUCDBF00-IN-RECORD TO IUCDBF00-OT-RECORD                03027800
          915:            WRITE IUCDBF00-OT-RECORD                                     03028000
          925:            READ IUCDBF00-IN-FILE                                        03030700
0    ELEMENT   IUCV9014
           50:            SELECT IUCDBF00-IN-FILE    ASSIGN TO UT-S-IUCDBFIN           00380085
           53:            SELECT IUCDBF00-OT-FILE    ASSIGN TO UT-S-IUCDBFOT           00400085
           75:        FD  IUCDBF00-IN-FILE                                             00480000
           81:        01  IUCDBF00-IN-RECORD          PIC X(23220).                    00510000
           83:        FD  IUCDBF00-OT-FILE                                             00550000
           89:        01  IUCDBF00-OT-RECORD          PIC X(23220).                    00630000
          361:            COPY IULIACSC.                                               01140569
          784:            COPY IUCIAAJR.                                               01411000
          827:            COPY ITCIARAP.                                               02041200
         1019:                OPEN INPUT  IUCDBF00-IN-FILE                             02091100
         1025:                OPEN OUTPUT IUCDBF00-OT-FILE                             02091700
         1207:                CLOSE IUCDBF00-IN-FILE                                   02842000
         1208:                      IUCDBF00-OT-FILE                                   02843000
         1418:               MOVE OUTPUT-CO-AREA  TO IUCDBF00-OT-RECORD                03038677
         1420:               WRITE IUCDBF00-OT-RECORD                                  03038879
         1454:            MOVE INPUT-RECORD        TO IUCDBF00-OT-RECORD.              03048200
         1456:            WRITE IUCDBF00-OT-RECORD.                                    03048400
         1468:            READ IUCDBF00-IN-FILE                                        03050000
1    ELEMENT   IUCV9016
          199:        01  IUCIAAJR.
          200:            COPY IUCIAAJR.
          590:                                           ITCIACP
          591:                                           IUCIAAJR
          596:                                           ITCIACO
0    ELEMENT   IUCV9018
          201:        01  IUCIAAJR.
          202:            COPY IUCIAAJR.
          595:                                           ITCIACP
          596:                                           IUCIAAJR
          601:                                           ITCIACO
0    ELEMENT   IUCV9020
          201:        01  IUCIAAJR.
          202:            COPY IUCIAAJR.
          591:                                           ITCIACP
          592:                                           IUCIAAJR
          597:                                           ITCIACO
0    ELEMENT   IUCV9022
          199:        01  IUCIAAJR.
          200:            COPY IUCIAAJR.
          589:                                           ITCIACP
          590:                                           IUCIAAJR
          595:                                           ITCIACO
0    ELEMENT   IUCV9024
           46:            SELECT IUCDBF00-IN-FILE    ASSIGN TO UT-S-IUCDBFIN           00380000
           49:            SELECT IUCDBF00-OT-FILE    ASSIGN TO UT-S-IUCDBFOT           00400000
           71:        FD  IUCDBF00-IN-FILE                                             00480000
           77:        01  IUCDBF00-IN-RECORD          PIC X(23220).                    00510000
           79:        FD  IUCDBF00-OT-FILE                                             00550000
           85:        01  IUCDBF00-OT-RECORD          PIC X(23220).                    00630000
          609:            COPY ITCIARAP.                                               02041200
          777:                OPEN INPUT  IUCDBF00-IN-FILE                             02091100
          783:                OPEN OUTPUT IUCDBF00-OT-FILE                             02091700
          960:                CLOSE IUCDBF00-IN-FILE                                   02842000
          961:                      IUCDBF00-OT-FILE                                   02843000
         1030:            MOVE OUTPUT-CI-AREA     TO IUCDBF00-OT-RECORD                03038901
         1032:            WRITE IUCDBF00-OT-RECORD                                     03039101
         1049:            MOVE INPUT-RECORD        TO IUCDBF00-OT-RECORD.              03048200
         1051:            WRITE IUCDBF00-OT-RECORD.                                    03048400
         1063:            READ IUCDBF00-IN-FILE                                        03050000
0    ELEMENT   IUCV9026
           48:            SELECT IUCDB100-IN-FILE    ASSIGN TO UT-S-IUCDB1IN.          00380000
           49:            SELECT IUCDB100-OT-FILE    ASSIGN TO UT-S-IUCDB1OT.          00400000
           68:        FD  IUCDB100-IN-FILE                                             00480000
           73:        01  IUCDB100-IN-RECORD.                                          00510000
           86:        FD  IUCDB100-OT-FILE                                             00550000
           91:        01  IUCDB100-OT-RECORD          PIC X(15642).                    00630000
          374:            OPEN INPUT IUCDB100-IN-FILE                                  02091110
          375:                OUTPUT IUCDB100-OT-FILE                                  02091410
          507:            CLOSE IUCDB100-IN-FILE                                       02842010
          508:                  IUCDB100-OT-FILE                                       02843010
          552:            MOVE IUCDB100-IN-RECORD TO IDB100-CIACI-AREA                 03001300
          558:            MOVE ODB100-CIACI-AREA  TO IUCDB100-OT-RECORD                03003108
          559:            WRITE IUCDB100-OT-RECORD                                     03003208
1         586:            MOVE IUCDB100-IN-RECORD TO IUCDB100-OT-RECORD                03014900
          588:            WRITE IUCDB100-OT-RECORD                                     03015100
          598:            READ IUCDB100-IN-FILE                                        03017800
0    ELEMENT   IUCV9030
           24:       *                 ITCIACP - INITIALIZE ACCOUNT ID INDICATOR      *
           25:       *                 IUCIAAJR - INITIALIZE ACCOUNT ID AND EXPAND    *
          213:        01  IUCIAAJR.
          214:            COPY IUCIAAJR.
          732:                                           ITCIACP
          733:                                           IUCIAAJR
          738:                                           ITCIACO
0    ELEMENT   IUCV9032
           50:            SELECT IUCDBF00-IN-FILE    ASSIGN TO UT-S-IUCDBFIN           00380000
           53:            SELECT IUCDBF00-OT-FILE    ASSIGN TO UT-S-IUCDBFOT           00400000
           73:        FD  IUCDBF00-IN-FILE                                             00480000
           79:        01  IUCDBF00-IN-RECORD          PIC X(23220).                    00510000
           81:        FD  IUCDBF00-OT-FILE                                             00550000
           87:        01  IUCDBF00-OT-RECORD          PIC X(23220).                    00630000
          346:            COPY ITCIARAP.                                               02041200
          517:                OPEN INPUT  IUCDBF00-IN-FILE                             02091100
          523:                OPEN OUTPUT IUCDBF00-OT-FILE                             02091700
          697:                CLOSE IUCDBF00-IN-FILE                                   02842000
          698:                      IUCDBF00-OT-FILE                                   02843000
          749:            MOVE OUTPUT-CO-AREA     TO IUCDBF00-OT-RECORD                03038900
          751:            WRITE IUCDBF00-OT-RECORD                                     03039100
          767:            MOVE INPUT-RECORD        TO IUCDBF00-OT-RECORD.              03048200
          769:            WRITE IUCDBF00-OT-RECORD.                                    03048400
          779:            READ IUCDBF00-IN-FILE                                        03050000
0    ELEMENT   IUCV9034
           48:            SELECT IUCDBF00-IN-FILE    ASSIGN TO UT-S-IUCDBFIN           00300000
           51:            SELECT IUCDBF00-OT-FILE    ASSIGN TO UT-S-IUCDBFOT           00330000
           71:        FD  IUCDBF00-IN-FILE                                             00476000
           77:        01  IUCDBF00-IN-RECMIN          PIC X(00090).                    00500009
           79:        01  IUCDBF00-IN-RECORD          PIC X(23220).                    00502009
           81:        FD  IUCDBF00-OT-FILE                                             00520000
           87:        01  IUCDBF00-OT-RECORD          PIC X(23220).                    00580000
          808:             COPY ITCIACP                                                01290000
          818:             COPY IUCIAAJR                                               01300000
          877:            COPY ITCIARAP.                                               01890000
         1191:                OPEN INPUT  IUCDBF00-IN-FILE                             02075000
         1197:                OPEN OUTPUT IUCDBF00-OT-FILE                             02090000
         1431:                CLOSE IUCDBF00-IN-FILE                                   02780000
         1432:                      IUCDBF00-OT-FILE                                   02790000
         1493:            MOVE OUTPUT-CP-AREA      TO IUCDBF00-OT-RECORD               03033000
         1495:            WRITE IUCDBF00-OT-RECORD                                     03035000
         1541:               MOVE OUTPUT-AJR-AREA       TO IUCDBF00-OT-RECORD          03044208
         1543:               WRITE IUCDBF00-OT-RECORD                                  03045300
         1580:            MOVE OUTPUT-AJR-AREA     TO IUCDBF00-OT-RECORD.              03049100
         1582:            WRITE IUCDBF00-OT-RECORD.                                    03050100
         1592:            MOVE 'CONVERT IUCIAAJR'  TO WS-DET-MSG.                      03051200
         1613:               MOVE OUTPUT-ADR-AREA       TO IUCDBF00-OT-RECORD          03053308
         1615:               WRITE IUCDBF00-OT-RECORD                                  03054300
         1652:            MOVE OUTPUT-ADR-AREA     TO IUCDBF00-OT-RECORD               03058105
         1654:            WRITE IUCDBF00-OT-RECORD                                     03059100
         1674:            MOVE INPUT-RECORD        TO IUCDBF00-OT-RECORD.              03061215
         1676:            WRITE IUCDBF00-OT-RECORD.                                    03062215
         1691:            READ IUCDBF00-IN-FILE                                        03063815
1    ELEMENT   IUCV9036
           30:       *         INITIAL RELEASE FOR ITCIACP & IUCIAAJR-(EXPANDED) ON   *00220002
           47:            SELECT IUCDB100-IN-FILE    ASSIGN TO UT-S-IUCDB1IN           00372069
           49:            SELECT IUCDB100-OT-FILE    ASSIGN TO UT-S-IUCDB1OT           00373069
           60:        FD  IUCDB100-IN-FILE                                             00473000
           65:        01  IUCDB100-IN-RECORD.                                          00478000
           75:        FD  IUCDB100-OT-FILE                                             00518000
           80:        01  IUCDB100-OT-RECORD          PIC X(15642).                    00550011
          237:            COPY IUCIAAJR                                                01274121
          562:            OPEN INPUT IUCDB100-IN-FILE                                  02086700
          563:                OUTPUT IUCDB100-OT-FILE.                                 02086868
          675:            CLOSE IUCDB100-IN-FILE                                       02640000
          676:                  IUCDB100-OT-FILE                                       02650068
          721:            MOVE IUCDB100-IN-RECORD    TO IDB100-CIACP-AREA              03000051
          740:                MOVE ITCIACP            TO ODB100-CIACP-DATA             03003465
          742:                MOVE ODB100-CIACP-AREA  TO IUCDB100-OT-RECORD            03003659
          743:                WRITE IUCDB100-OT-RECORD                                 03003759
          756:            MOVE IUCDB100-IN-RECORD TO IDB100-CIAAJR-AREA                03007900
          785:               MOVE ODB100-CIAAJR-AREA TO IUCDB100-OT-RECORD             03011451
          786:               WRITE IUCDB100-OT-RECORD                                  03011551
          799:            MOVE IUCDB100-IN-RECORD TO IUCDB100-OT-RECORD.               03012968
          801:            WRITE IUCDB100-OT-RECORD.                                    03013168
          811:            READ IUCDB100-IN-FILE                                        03017200
0    ELEMENT   IUCV9104
          424:            05  LS-PRE-IUCIAAJR                PIC X(211264).            01949010
          425:            05  LS-POST-IUCIAAJR               PIC X(264283).            01949110
          471:            MOVE LS-PRE-IUCIAAJR     TO INPUT-CIAAJR-AREA.               03345010
          510:            MOVE OUTPUT-CIAAJR-AREA  TO LS-POST-IUCIAAJR.                03410010
0    ELEMENT   IUCV9108
          222:        01  LK-IUCIAAJR.                                                 01560000
          223:            COPY IUCIAAJR.                                               01570000
          252:                                 LK-ITCIACP                              01860000
          253:                                 LK-IUCIAAJR                             01870000
          258:                                 LK-ITCIACO                              01920000
          616:                                                   TO LK-ITCIACP         05401400
          626:                                                   TO LK-IUCIAAJR        05406000
          704:       *                                           TO LK-ITCIACO         05630000
          761:            AND (LK-ITCIACP  (1 : 1) > SPACES)                           05830000
          762:            AND (LK-IUCIAAJR (1 : 1) > SPACES)                           05840000
          767:            AND (LK-ITCIACO  (1 : 1) > SPACES)                           05890000
         1058:            MOVE LK-ITCIACP            TO WS-IA-WORK.                    08630000
         1068:            MOVE LK-IUCIAAJR           TO WS-IA-WORK.                    08730000
         1116:            MOVE LK-ITCIACO            TO WS-IA-WORK.                    09138000
0    ELEMENT   IUCV9110
          233:        01  LK-IUCIAAJR.
          234:            COPY IUCIAAJR.
          263:                                 LK-ITCIACP
          264:                                 LK-IUCIAAJR
          269:                                 LK-ITCIACO
          678:                                                   TO LK-ITCIACP
          688:                                                   TO LK-IUCIAAJR
          738:       *                                           TO LK-ITCIACO
          802:            AND (LK-ITCIACP  (1 : 1) > SPACES)
          803:            AND (LK-IUCIAAJR (1 : 1) > SPACES)
          808:            AND (LK-ITCIACO  (1 : 1) > SPACES)
         1099:            MOVE LK-ITCIACP            TO WS-IA-WORK.
         1109:            MOVE LK-IUCIAAJR           TO WS-IA-WORK.
1        1157:            MOVE LK-ITCIACO            TO WS-IA-WORK.
0    ELEMENT   IUCV9112
          240:        01  LK-IUCIAAJR.
          241:            COPY IUCIAAJR.
          270:                                 LK-ITCIACP
          271:                                 LK-IUCIAAJR
          276:                                 LK-ITCIACO
          603:                                                   TO LK-ITCIACP
          632:                                MOVE WS-IA-WORK TO LK-IUCIAAJR
          667:                                MOVE WS-IA-WORK TO LK-IUCIAAJR
          739:                                                   TO LK-ITCIACO
          935:            AND (LK-ITCIACP  (1 : 1) > SPACES)
          936:            AND (LK-IUCIAAJR (1 : 1) > SPACES)
          941:            AND (LK-ITCIACO  (1 : 1) > SPACES)
         1225:            MOVE LK-ITCIACP            TO WS-IA-WORK.
         1235:            MOVE LK-IUCIAAJR           TO WS-IA-WORK.
         1283:            MOVE LK-ITCIACO            TO WS-IA-WORK.
1ENVIRONMENT  BCBS01    SYSTEM  ITS       SUBSYSTEM  ITS
 TYPE  COBOL     STAGE NUMBER 2 .
0    ELEMENT   ITCA0011
           21:       *                     ITCIACP                                    *00210000
           22:       *                     IUCIAAJR                                   *00220000
          216:        01  IUCIAAJR.                                                    01920000
          217:            COPY IUCIAAJR.                                               01930000
          628:                                           ITCIACP                       06490000
          646:                                           ITCIACP                       06660000
          658:                                           ITCIACP                       06770000
          671:                                           ITCIACP                       06890000
          672:                                           IUCIAAJR                      06900000
          688:                                           ITCIACP                       07040000
          689:                                           IUCIAAJR                      07050000
          704:                                           ITCIACP                       07200000
          705:                                           IUCIAAJR                      07210000
          728:            COPY ITCAPD01.                                               07280000
0    ELEMENT   ITCA0012
           21:       *                     ITCIACP                                    *00210000
           22:       *                     IUCIAAJR                                   *00220000
          247:        01  IUCIAAJR.                                                    02080000
          248:            COPY IUCIAAJR.                                               02090000
         1097:                                           ITCIACP                       10550000
         1115:                                           ITCIACP                       10720000
         1127:                                           ITCIACP                       10830000
         1140:                                           ITCIACP                       10950000
         1141:                                           IUCIAAJR                      10960000
         1157:                                           ITCIACP                       11090000
         1174:                                           ITCIACP                       11260000
         1175:                                           IUCIAAJR                      11270000
         1190:                                           ITCIACP                       11420000
         1191:                                           IUCIAAJR                      11430000
         1199:            COPY ITCAPD01.                                               11500000
0    ELEMENT   ITCA0013
           31:       *       - ALSO INCLUDES E_24765.  ADD ITCIAAI TO LINKAGE AND PASS*00253000
           74:       *R16.5.1 08/25/2016  02.0  PD_113047 DJL: INITIALIZE ITCIAAI *00262100
          199:        01  IUCIAAJR-WITH-LEN.                                           01360000
          200:          03 IUCIAAJR-LEN                  PIC S9(08) COMP.              01370000
          201:          03 IUCIAAJR.                                                   01380000
          202:            COPY IUCIAAJR.                                               01390000
          805:            COMPUTE IUCIAAJR-LEN = CWSLN-AJR-FIXED +                     08660000
         1387:                                           ITCIACP                       13670000
         1388:                                           IUCIAAJR                      13680000
         1403:                                           ITCIACP                       13820000
         1404:                                           IUCIAAJR                      13830000
         1409:                                           ITCIACO                       13870000
         1422:                                           IUCIAAJR-WITH-LEN             14010000
         1435:                                           ITCIACP                       14130000
         1436:                                           IUCIAAJR                      14140000
         1438:                                           ITCIACO                       14160000
0    ELEMENT   ITCA0015
          130:        01  LK-IUCIAAJR.                                                 01160000
          132:          03  IUCIAAJR.                                                  01180000
          133:            COPY IUCIAAJR.                                               01190000
          150:                                 LK-ITCIACP                              01360000
          151:                                 LK-IUCIAAJR                             01370000
1         359:                                           ITCIACP                       03320000
          360:                                           IUCIAAJR                      03330000
          365:                                           ITCIACO                       03370000
0    ELEMENT   ITCA9178
          179:        01  LK-IUCIAAJR.                                                 01600000
          180:            COPY IUCIAAJR.                                               01610000
          197:                                 LK-IUCIAAJR                             01780000
          231:            MOVE CIAAJR-SCCF-SER-NUM OF LK-IUCIAAJR                      02120000
          233:            MOVE CIAAJR-BOID OF LK-IUCIAAJR                              02131004
          300:                                          OF LK-IUCIAAJR                 02780000
          303:                                         OF LK-IUCIAAJR                  02792000
          369:            MOVE CIAAJR-SCCF-SER-NUM OF LK-IUCIAAJR                      04220000
          371:            MOVE CIAAJR-BOID OF LK-IUCIAAJR                              04240000
          430:            MOVE CIAAJR-BOID OF LK-IUCIAAJR                              04760000
          436:            MOVE CIAAJR-BLUE2-USER-ID OF LK-IUCIAAJR                     04820000
          445:            IF CIAAJR-TRANSM-MODE-CD-OVR OF LK-IUCIAAJR                  05010000
          447:                MOVE CIAAJR-TRANSM-MODE-CD-OVR OF LK-IUCIAAJR            05030000
          450:            MOVE CIAAJR-SYS-UPDATER-CD OF LK-IUCIAAJR                    05080000
          452:            MOVE CIAAJR-BLUE2-USER-ID OF LK-IUCIAAJR                     05100000
0    ELEMENT   ITCP1170
           61:            COPY ITCDBERD.                                               00057
0    ELEMENT   ITCP1172
           61: 004800 01  ITCDBF00-OUT-DATA.                                           ITCP1172
           62: 004900     COPY ITCDBF00.                                               ITCP1172
           64: 005100 01  WS-FILE-NAME                    PIC X(8)  VALUE 'ITCDBF00'.  ITCP1172
          168: 011500                          ITCIACP                                 ITCP1172
          170:                                 ITCIACO                                 00161
0    ELEMENT   ITCP2170
           47:                SELECT ITCDBERD-VSAM-FILE    ASSIGN TO  AS-ITCDBE00      00043
           59:        FD  ITCDBERD-VSAM-FILE.                                          00055
           62:            COPY ITCDBERD.                                               00058
          225:            OPEN INPUT ITCDBERD-VSAM-FILE.                               00223
          287:            READ ITCDBERD-VSAM-FILE                                      00272
          722:            CLOSE ITCDBERD-VSAM-FILE.                                    00643
0    ELEMENT   ITCP2172
           39:       *                          FROM FD FOR ITCDBF00-VSAM-FILE        *00039
           61:                SELECT ITCDBF00-VSAM-FILE ASSIGN TO AS-ITCDBF00          00055
           67:        FD  ITCDBF00-VSAM-FILE                                           00061
           70:            DATA RECORD IS ITCDBF00-OUT-RECORD.                          00064
           72:        01  ITCDBF00-OUT-RECORD.                                         00066
           73:            COPY ITCDBF00.                                               00067
          189:                                 ITCIACP                                 00152
          191:                                 ITCIACO                                 00185
          281:            OPEN EXTEND ITCDBF00-VSAM-FILE.                              00232
          351:            MOVE SPACES                    TO ITCDBF00-OUT-RECORD.       00284
          376:            MOVE SPACES                    TO ITCDBF00-OUT-RECORD.       00309
          383:                MOVE SPACES                TO ITCDBF00-OUT-RECORD        00316
          419:            MOVE SPACES                    TO ITCDBF00-OUT-RECORD.       00405
          460:            MOVE SPACES                    TO ITCDBF00-OUT-RECORD.       00348
          547:            CLOSE ITCDBF00-VSAM-FILE.                                    00388
0    ELEMENT   ITCP9020
           23: IP3745*                 - MUST MODIFY ITCWSMCD TO CREATE THE INPUT     *00021
          238: IP3745*        ITCWSMCD THAT WILL NOW CONTROL SELECTION IN ITCP9184.   *
1    ELEMENT   ITCP9036
           91:            SELECT ITCDBF00-IN-FILE        ASSIGN TO ITCDBF00.           00070
          111: E52561 FD  ITCDBF00-IN-FILE                                             00090
          115: 00062  01  ITCDBF00-IN-RECORD.                                          ITCP9036
          116: 00063      COPY ITCDBF00.                                               ITCP9036
         1038:            COPY ITCIARAP.                                               00990
         1114: 00888      OPEN INPUT  ITCDBF00-IN-FILE.                                ITCP9036
         1160: 00921      READ ITCDBF00-IN-FILE                                        ITCP9036
         1223:                     READ ITCDBF00-IN-FILE
         1283:                     READ ITCDBF00-IN-FILE
         1387:                     READ ITCDBF00-IN-FILE
         1447:                     READ ITCDBF00-IN-FILE
         1541: 01030      CLOSE ITCDBF00-IN-FILE                                       ITCP9036
0    ELEMENT   ITCP9174
           43: 002300*                 ITCIAED IS AN IMPORTANT LINKAGE COPYBOOK       *00002300
          926:       *         - ADD ITCIAED TO ITCP9178 CALL CHAIN                   *
          972: BLD2  *       TO THE EDIT FOR DXR29 BY USING COPYBOOK ITCWSMCD.        *
         1316:        01  WS-ITCWSMCD.
         1317:            COPY ITCWSMCD.
         2245:            COPY ITCIAUNQ.
0    ELEMENT   ITCP9178
          302:       *         - ADD ITCIAED TO LINKAGE & SET THIS ERR SWITCH INSTEAD *
         1014:                                  ITCIAED
0    ELEMENT   ITCP9180
          177:       *         FOR 1086, NOW BEING HANDLED WITH ITCWSMCD.             *
          289: R18504*         NEW 88-LEVEL CREATED IN ITCWSMCD FOR DFMCS THAT CANNOT *
          361: R20502*        CWSMCD- 88-LEVELS (SEE COPYBOOK ITCWSMCD)              *
          554: 074102 01  ITCWSMCD-RECORD.                                             ITCP9180
          555: 074103      COPY ITCWSMCD.                                              ITCP9180
         1844:            COPY ITCIAUNQ.
         9612: *********      - ALWAYS-PROV-LIAB 88 LEVEL IN ITCWSMCD (NO EXCEPT)
         9614: *********      - PAR-PROV-LIAB 88 LEVEL IN ITCWSMCD
         3791: IP3745*    WARNINGS RECORDED ON ITCIAED THAT HAVE BEEN IGNORED.
         4520: 002630*                                    COPYMEMBER ITCWSMCD TO      *00263
0    ELEMENT   ITCP9182
           85: 006696*                             ITCIAED - ERROR INDICATORS SET HERE*ITCP9182
0    ELEMENT   ITCP9184
          182: IP3745*         INCORPORATE COPYBOOK ITCWSMCD IN THE SELECTION OF      *
         1166: IP3745 01  WS-ITCWSMCD.                                                 01010
         1167: IP3745     COPY ITCWSMCD.                                               01011
0    ELEMENT   ITCP9208
          181:       *         DFMC'S IN COPYBOOK ITCWSMCD (NO CHANGES TO ACCESS FEE) *
          365:            COPY ITCWSMCD.
0    ELEMENT   ITCP9396
         3189: 026042       'ON COMMON COPYBOOK ITCWSMCD                           '.  02604200
0    ELEMENT   ITCP9438
         4204: 031700      'ON COMMON COPYBOOK ITCWSMCD                           '.   02946
0    ELEMENT   ITCP9456
         3283: 320200      'ON COMMON COPYBOOK ITCWSMCD                           '.   03276
0    ELEMENT   ITCP9556
1         887: 169126*    ...FOLLOWING  SUBSCRIPTS USED ONLY BY COPYMEMBER ITCPDEI     00660500
0    ELEMENT   ITCP9558
          261: 008700*... FOLLOWING SUBSCRIPTS USED BY COPYMEMBER ITCPDEP              ITCP9558
0    ELEMENT   ITCVE00
           51:            COPY ITCDBERD.                                               00004800
0    ELEMENT   ITDRTE00
          110:        01  ITCDBERD-RECORD.
          111:            COPY ITCDBERD.
          140:                    INCLUDE ITDE00X2
          166:            COPY ITCIAUNQ.
0    ELEMENT   ITPCA002
          160:        01  LK-IUCIAAJR.                                                 01510000
          161:            COPY IUCIAAJR.                                               01520000
          181:                                 LK-ITCIACP                              01690000
          182:                                 LK-IUCIAAJR                             01700000
          317:            AND (LK-ITCIACP  (1 : 1) > SPACES)                           03390000
          318:            AND (LK-IUCIAAJR (1 : 1) > SPACES)                           03400000
          518:            MOVE LK-ITCIACP            TO WS-IA-WORK.                    05430000
          528:            MOVE LK-IUCIAAJR           TO WS-IA-WORK.                    05530000
0    ELEMENT   ITPCA003
           39:       *         SIZE OF ITCIACO AREA.                                  *00275004
          230:        01  LK-IUCIAAJR.                                                 01720000
          231:            COPY IUCIAAJR.                                               01730000
          260:                                 LK-ITCIACP                              01990000
          261:                                 LK-IUCIAAJR                             02000000
          266:                                 LK-ITCIACO                              02040000
          632:                                                   TO LK-ITCIACP         05430007
          642:                                                   TO LK-IUCIAAJR        05470007
          692:       *                                           TO LK-ITCIACO         05640007
          748:            AND (LK-ITCIACP  (1 : 1) > SPACES)                           05940000
          749:            AND (LK-IUCIAAJR (1 : 1) > SPACES)                           05950000
          754:            AND (LK-ITCIACO  (1 : 1) > SPACES)                           05990000
         1041:            MOVE LK-ITCIACP            TO WS-IA-WORK.                    08720000
         1051:            MOVE LK-IUCIAAJR           TO WS-IA-WORK.                    08820000
         1099:            MOVE LK-ITCIACO            TO WS-IA-WORK.                    09200000
1ENVIRONMENT  BCBS01    SYSTEM  ITS       SUBSYSTEM  ITSCONV
 TYPE  COBOL     STAGE NUMBER 2 .
0    ELEMENT   ITCP9206
           29:       *                               UPF OUTPUT AREA ITCIACO          *
          205:                                 ITCIACP
0    ELEMENT   ITCP9242
           99:       *         ITDRTE00 WHEN RULES NOT IN ITCIARD WS TABLE.  THIS WILL*
          442:            COPY ITCIAUNQ.                                               00041500
          455:                                 ITCIACP
          456:                                 ITCIACO
         1433:                                           ITCIACP
         1454:                                           ITCIACP
         1455:                                           ITCIACO
         1456:                                           ITCIARD                       00158100
         1471:                                           ITCIACP
         1472:                                           ITCIACO
         1487:                                           ITCIACO
         1489:       *12.0  E_41233  KJO ADD ITCIACP TO PASS PARAMETERS
         1508:                                           ITCIACP                       00162900
         1523:                                           ITCIACP
         1525:                                           ITCIACO
         1538:                                           ITCIACP
0    ELEMENT   ITCP9246
           47:       *                               ITCWSMR TABLE                    *
          696:                                 ITCIACP
          697:                                 ITCIACO
          698:                                 ITCIARD                                 00569
0    ELEMENT   ITCP9248
          323:                                 ITCIACP
          324:                                 ITCIACO
0    ELEMENT   ITCP9250
          444:                                 ITCIACO
          446:       *12.0   E_41233  KJO PASS ITCIACP FROM ITCP9242
0    ELEMENT   ITCP9258
          710: 055700                          ITCIACP                                 05570024
          712: 055900                          ITCIACO                                 05590024
         4858:                                         ITCIACP                         03250
         4860:                                         ITCIACO                         03252
0    ELEMENT   ITCP9286
          360:                                 ITCIACP
          362:                                 ITCIACO                                 00455
0    ELEMENT   ITCP9356
          199: 019100                          ITCIACP                                 ITCP9356
          418: 042800                                    ITCIACP                       ITCP9356
0    ELEMENT   ITCP9358
           18:       *   FUNCTION:     THIS MODULE BUILDS ITCIACP FROM THE            *
          121:                    'ITCP9358-BLD ITCIACP FROM FDB'.                     00100002
          278:                                 LS-ITCIACP
          377: TRIGON*TRIGON CHNAGES 14.5 REMOVED THE PLAN,STAN CODES FROM ITCIACP
          921: TRIGON*TRIGON CHANGES 14.5 REMOVED THE PLAN,STAN CODES FROM ITCIACP
1    ELEMENT   ITCP9700
          280: 017540     COPY ITCIAUNQ.                                               00137
          317:            COPY ITCIACP                                                 00199
          320:                 == DEPENDING ON CIACP-TBL-ENTRY-CNT OF WS-ITCIACP ==.   00202
          323:            COPY ITCIACO                                                 00205
          326:                 == DEPENDING ON CIACO-TBL-ENTRY-CNT OF WS-ITCIACO ==.   00208
          357:            COPY ITCIACP                                                 00240
          360:                 == DEPENDING ON CIACP-TBL-ENTRY-CNT OF ITCIACP ==.      00243
          370:            COPY ITCIACO                                                 00253
          373:                 == DEPENDING ON CIACO-TBL-ENTRY-CNT OF ITCIACO ==.      00256
          400:                                 ITCIACP                                 00423
          402:                                 ITCIACO                                 00425
          478: 053000         IF  CIACP-RULE-NUM-PRIM-CLM-4-6 OF ITCIACP               00509
          480: 053000             MOVE CIACP-RULE-NUM-PRIM-CLM-4-6 OF ITCIACP          00509
          487: 053000         IF  CIACP-RULE-NUM-SEC-CLM-4-6 OF ITCIACP                00509
          489: 053000             MOVE CIACP-RULE-NUM-SEC-CLM-4-6 OF ITCIACP           00509
          494: 053000                   UNTIL SUB > CIACP-TBL-ENTRY-CNT OF ITCIACP     00509
          495: 053000             IF  CIACP-RULE-NUM-LN-4-6 OF ITCIACP (SUB)           00509
          497: 053000                 MOVE CIACP-RULE-NUM-LN-4-6 OF ITCIACP (SUB)      00509
          635: 062000     IF CIACO-CLM-STAT-CD OF ITCIACO =                            00599
          673:                    IF CIACP-NBR-INCL-GRPS OF ITCIACP >= WS-01 AND
          674:                       CIACP-NBR-INCL-GRPS OF ITCIACP <= WS-99
          675:                       MOVE CIACP-NBR-INCL-GRPS-NUM OF ITCIACP TO
          782:            EVALUATE  CIACO-SUCCESSFUL OF ITCIACO                        00680
          925:            MOVE CIACP-SCCF-SER-NUM OF ITCIACP TO WS-CB-SCCF-SER-NUM.    00878
          967:            IF CIACO-CLM-STAT-CD OF ITCIACO = WS-UNABLE-TO-CALC          00844
         1050:            MOVE CIACP-SCCF-SER-NUM OF ITCIACP
         1142:            IF CIACO-CLM-ERR-MAX-IND OF ITCIACO NOT = WS-CONSTANT-YES    01016
         1198:                                            ITCIACP                      01069
         1199:                                            ITCIACO                      01070
         1236:                                           ITCIACP                       00162900
         1251:                                           ITCIACP                       00162900
         1252:                                           ITCIACO                       00163100
         1289:                                            ITCIACP                      01169
         1290:                                            WS-ITCIACP                   01170
         1292:                                            WS-ITCIACO                   01172
         1293:                                            ITCIACO                      01173
         1314:                                           ITCIACO                       01222
         1598:                 CIACP-SCCF-SER-NUM OF ITCIACP                           01505
         1599:                 CIACO-SCCF-SER-NUM OF ITCIACO                           01506
         1637:            MOVE CIACP-SCCF-SER-NUM OF ITCIACP                           01449
         1638:              TO CIACP-SCCF-SER-NUM OF WS-ITCIACP                        01450
         1639:            MOVE CIACP-FDB-INV-CD   OF ITCIACP                           01451
         1640:              TO CIACP-FDB-INV-CD   OF WS-ITCIACP                        01452
         1641:            MOVE CIACP-PRC-DATA-PRESENT-IND OF ITCIACP                   01453
         1642:              TO CIACP-PRC-DATA-PRESENT-IND OF WS-ITCIACP                01454
         1643:            MOVE CIACP-CLM-LVL-DATA OF ITCIACP                           01455
         1644:              TO CIACP-CLM-LVL-DATA OF WS-ITCIACP                        01456
         1645:            MOVE CIACP-COB-DATA-CLM OF ITCIACP                           01457
         1646:              TO CIACP-COB-DATA-CLM OF WS-ITCIACP                        01458
         1648:            MOVE CIACP-MEDICARE-AREA OF ITCIACP                          01653
         1649:              TO CIACP-MEDICARE-AREA OF WS-ITCIACP                       01654
         1653:            MOVE CIACP-OTHER-CLM-INFO OF ITCIACP                         01653
         1654:              TO CIACP-OTHER-CLM-INFO OF WS-ITCIACP                      01654
         1658: 171800     IF CIACP-TBL-ENTRY-CNT OF ITCIACP >= ZERO                    01656
         1659:                IF CIACP-TBL-ENTRY-CNT OF ITCIACP NOT >                  01461
         1661:                    MOVE CIACP-TBL-ENTRY-CNT OF ITCIACP TO               01463
         1662:                                  CIACP-TBL-ENTRY-CNT OF WS-ITCIACP      01464
         1665:                                  CIACP-TBL-ENTRY-CNT OF WS-ITCIACP      01467
         1672:            IF CIACP-TBL-ENTRY-CNT OF ITCIACP > ZERO                     01472
1        1674:                 UNTIL WS-S1 GREATER CIACP-TBL-ENTRY-CNT OF ITCIACP      01474
         1683:            MOVE CIACP-SCCF-SER-NUM OF WS-ITCIACP                        01483
         1684:              TO CIACP-SCCF-SER-NUM OF ITCIACP                           01484
         1685:            MOVE CIACP-FDB-INV-CD   OF WS-ITCIACP                        01485
         1686:              TO CIACP-FDB-INV-CD   OF ITCIACP                           01486
         1687:            MOVE CIACP-PRC-DATA-PRESENT-IND OF WS-ITCIACP                01487
         1688:              TO CIACP-PRC-DATA-PRESENT-IND OF ITCIACP                   01488
         1689:            MOVE CIACP-CLM-LVL-DATA OF WS-ITCIACP                        01489
         1690:              TO CIACP-CLM-LVL-DATA OF ITCIACP                           01490
         1691:            MOVE CIACP-COB-DATA-CLM OF WS-ITCIACP                        01491
         1692:              TO CIACP-COB-DATA-CLM OF ITCIACP                           01492
         1694:            MOVE CIACP-MEDICARE-AREA OF WS-ITCIACP
         1695:              TO CIACP-MEDICARE-AREA OF ITCIACP
         1699:            MOVE CIACP-OTHER-CLM-INFO OF WS-ITCIACP                      01653
         1700:              TO CIACP-OTHER-CLM-INFO OF ITCIACP                         01654
         1703:            MOVE CIACP-TBL-ENTRY-CNT OF WS-ITCIACP                       01493
         1706:            IF CIACP-TBL-ENTRY-CNT OF WS-ITCIACP > ZERO                  01496
         1708:                 UNTIL WS-S1 GREATER CIACP-TBL-ENTRY-CNT OF WS-ITCIACP   01498
         1717:            MOVE CIACO-SCCF-SER-NUM OF ITCIACO                           01507
         1719:            MOVE CIACO-CALC-RESULTS-CNTL-DATA OF ITCIACO                 01509
         1721:            MOVE CIACO-CALC-RESULTS-CLM-LVL OF ITCIACO                   01511
         1723:            MOVE CIACO-TBL-ENTRY-CNT OF ITCIACO                          01513
         1726:             UNTIL WS-S1 GREATER CIACO-TBL-ENTRY-CNT OF ITCIACO          01516
         1735:            MOVE CIACO-SCCF-SER-NUM OF WS-ITCIACO                        01525
         1737:            MOVE CIACO-CALC-RESULTS-CLM-LVL OF WS-ITCIACO                01529
         1739:            MOVE CIACO-TBL-ENTRY-CNT OF WS-ITCIACO                       01531
         1742:             UNTIL WS-S1 GREATER CIACO-TBL-ENTRY-CNT OF WS-ITCIACO       01534
0    ELEMENT   ITCP9702
           49:       *         ITDRTE00 WHEN RULES NOT IN ITCIARD WS TABLE.  THIS WILL*
          291:            COPY ITCIACO                                                 00185
          294:                 == DEPENDING ON CIACO-TBL-ENTRY-CNT OF CB-ITCIACO ==.   00188
          354:            COPY ITCIACP                                                 00240
          357:                 == DEPENDING ON CIACP-TBL-ENTRY-CNT OF ITCIACP ==.      00243
          362:            COPY ITCIACP                                                 00248
          365:                 == DEPENDING ON CIACP-TBL-ENTRY-CNT OF WS-ITCIACP ==.   00251
          371:            COPY ITCIACO                                                 00256
          374:                 == DEPENDING ON CIACO-TBL-ENTRY-CNT OF WS-ITCIACO ==.   00259
          378:       *LINKAGE INITIALIZED IN THIS PGM, THEN 'RESTORED' FROM WS-ITCIACO
          380:            COPY ITCIACO                                                 00264
          383:                 == DEPENDING ON CIACO-TBL-ENTRY-CNT OF ITCIACO ==.      00267
          413:            COPY ITCIAUNQ.                                               00041500
          426:                                 ITCIACP                                 00445
          427:                                 WS-ITCIACP                              00446
          429:                                 WS-ITCIACO                              00448
          430:                                 ITCIACO                                 00449
          564:                UNTIL SUB > CIACO-TBL-ENTRY-CNT OF CB-ITCIACO +          00619
          623:       *    INITIALIZE ITCIACP FIELDS                                    00739
          809:                       TO CIACO-CLM-STAT-CD OF ITCIACO
          812:                       TO CIACO-CLM-RSN-CD OF ITCIACO (1)
          895:            EVALUATE  CIACO-SUCCESSFUL OF ITCIACO                        00999
         1032:            MOVE CIACP-SCCF-SER-NUM OF ITCIACP TO WS-CB-SCCF-SER-NUM.    01142
         1245:            IF CIACO-CLM-ERR-MAX-IND OF ITCIACO NOT = WS-CONSTANT-YES    01431
         1257:                OR CIACO-CLM-RSN-CD OF ITCIACO (ERR-SUB1) = SPACES.      01458
         1325:                                           ITCIACP                       01629
         1326:                                           WS-ITCIACP                    01630
         1328:                                           ITCIACO                       01632
         1331:                                           ITCIARD                       01635
         1332:                                           WS-ITCIACO                    01636
         1333:                                           CB-ITCIACO                    01637
1        1351:                                           CB-ITCIACO                    01687
         1353:       *12.0  E_41233  KJO PASS ITCIACP TO ITCP9710
         1354:                                           ITCIACP                       01587
         1373:                                           ITCIACP                       00162900
         1390:                                           ITCIACP                       00162900
         1391:                                           ITCIACO                       00163100
         1406:                                           ITCIACP                       01743
         1408:                                           WS-ITCIACO                    01745
         1409:                                           CB-ITCIACO                    01746
         1410:                                           ITCIARD                       01747
         1439:                                           ITCIACO                       01890
         1703:                                  OF CB-ITCIACO
         1709:                 CIACO-SCCF-SER-NUM OF CB-ITCIACO                        01970
         1712:            MOVE ZEROES        TO CIACO-CLM-STAT-CD OF CB-ITCIACO        01973
         1713:                                  CIACO-CLM-STAT-CD OF ITCIACO           01974
         1714:                                  CIACO-DED-REM-1 OF CB-ITCIACO          01975
         1715:                                  CIACO-DED-REM-1 OF ITCIACO             01976
         1716:                                  CIACO-DED-REM-2 OF CB-ITCIACO          01977
         1717:                                  CIACO-DED-REM-2 OF ITCIACO             01978
         1718:                                  CIACO-DED-REM-3 OF CB-ITCIACO          01979
         1719:                                  CIACO-DED-REM-3 OF ITCIACO             01980
         1720:                                  CIACO-REM-OOP-MAX OF CB-ITCIACO        01981
         1721:                                  CIACO-REM-OOP-MAX OF ITCIACO           01982
         1722:                                  CIACO-BCBS-PMT-AMT OF CB-ITCIACO       01983
         1723:                                  CIACO-BCBS-PMT-AMT OF ITCIACO          01984
         1724:                                  CIACO-SUB-LIAB OF CB-ITCIACO           01985
         1725:                                  CIACO-SUB-LIAB OF ITCIACO              01986
         1726:                                  CIACO-PAY-MAX-REM-CLM-1 OF CB-ITCIACO  01987
         1727:                                  CIACO-PAY-MAX-REM-CLM-1 OF ITCIACO     01988
         1728:                                  CIACO-PAY-MAX-REM-CLM-2 OF CB-ITCIACO  01989
         1729:                                  CIACO-PAY-MAX-REM-CLM-2 OF ITCIACO     01990
         1730:                                  CIACO-PAY-MAX-REM-CLM-3 OF CB-ITCIACO  01991
         1733:            MOVE WS-CONSTANT-NO TO CIACO-CLM-ERR-MAX-IND OF CB-ITCIACO   01994
         1746:                         CIACO-TBL-ENTRY-CNT OF CB-ITCIACO               02001
         1747:                         CIACO-TBL-ENTRY-CNT OF ITCIACO                  02002
         1750:                    IF CIACP-NBR-INCL-GRPS OF ITCIACP >= WS-01 AND
         1751:                       CIACP-NBR-INCL-GRPS OF ITCIACP <= WS-99
         1752:                       MOVE CIACP-NBR-INCL-GRPS-NUM OF ITCIACP TO
         1765:                         CIACO-TBL-ENTRY-CNT OF CB-ITCIACO               01994
         1766:                         CIACO-TBL-ENTRY-CNT OF ITCIACO                  01995
         1769:                     CIACO-TBL-ENTRY-CNT OF CB-ITCIACO                   02009
         1807:                         CIACO-ACCUM-EXCL-SUB-REDS OF CB-ITCIACO (SUB)   02024
         1808:                         CIACO-ACCUM-EXCL-SUB-REDS OF ITCIACO (SUB)      02024
         1886:                         CIACO-BMFAP-EXCESS-PER-DAY-RED OF CB-ITCIACO    00200900
         1888:                         CIACO-BMFAP-EXCESS-PER-DAY-RED OF ITCIACO       00200900
         1890:                         CIACO-BMFAS-PROV-SANC-RED OF CB-ITCIACO (SUB)   00200900
         1891:                         CIACO-BMFAS-PROV-SANC-RED OF ITCIACO (SUB).     00200900
         1949:            MOVE CIACP-SCCF-SER-NUM OF WS-ITCIACP                        02165
         1950:              TO CIACP-SCCF-SER-NUM OF ITCIACP                           02166
         1951:            MOVE CIACP-FDB-INV-CD   OF WS-ITCIACP                        02167
         1952:              TO CIACP-FDB-INV-CD   OF ITCIACP                           02168
         1953:            MOVE CIACP-PRC-DATA-PRESENT-IND OF WS-ITCIACP                02169
         1954:              TO CIACP-PRC-DATA-PRESENT-IND OF ITCIACP                   02170
         1955:            MOVE CIACP-CLM-LVL-DATA OF WS-ITCIACP                        02171
         1956:              TO CIACP-CLM-LVL-DATA OF ITCIACP                           02172
         1957:            MOVE CIACP-COB-DATA-CLM OF WS-ITCIACP                        02173
         1958:              TO CIACP-COB-DATA-CLM OF ITCIACP                           02174
         1960:            MOVE CIACP-MEDICARE-AREA OF WS-ITCIACP
         1961:              TO CIACP-MEDICARE-AREA OF ITCIACP
         1965:            MOVE CIACP-OTHER-CLM-INFO OF WS-ITCIACP                      02166
1        1966:              TO CIACP-OTHER-CLM-INFO OF ITCIACP                         02167
         1969:            MOVE CIACP-TBL-ENTRY-CNT OF WS-ITCIACP                       02175
         1972:            IF CIACP-TBL-ENTRY-CNT OF WS-ITCIACP > ZERO                  02178
         1974:                  UNTIL WS-S1 GREATER CIACP-TBL-ENTRY-CNT OF WS-ITCIACP  02173
         1987:            MOVE CIACO-BCBS-PMT-AMT OF CB-ITCIACO
         1990:            MOVE CIACO-SCCF-SER-NUM OF WS-ITCIACO                        02284
         1992:            MOVE CIACO-CALC-RESULTS-CLM-LVL OF WS-ITCIACO                02288
         1994:            MOVE CIACO-TBL-ENTRY-CNT OF WS-ITCIACO                       02290
0    ELEMENT   ITCP9704
           54:       *       OF ITCIACO LINES PRIOR TO CALLING ITCP9248.              *00060001
          347:            COPY ITCIACP                                                 00267
          350:                 == DEPENDING ON CIACP-TBL-ENTRY-CNT OF ITCIACP ==.      00270
          355:            COPY ITCIACP                                                 00275
          358:                 == DEPENDING ON CIACP-TBL-ENTRY-CNT OF WS-ITCIACP ==.   00278
          368:            COPY ITCIACO                                                 00288
          371:                 == DEPENDING ON CIACO-TBL-ENTRY-CNT OF ITCIACO ==.      00291
          391:            COPY ITCIACO                                                 00311
          394:                 == DEPENDING ON CIACO-TBL-ENTRY-CNT OF WS-ITCIACO ==.   00314
          399:            COPY ITCIACO                                                 00319
          402:                 == DEPENDING ON CIACO-TBL-ENTRY-CNT OF CB-ITCIACO ==.   00322
          427:                                 ITCIACP                                 00485
          428:                                 WS-ITCIACP                              00486
          430:                                 ITCIACO                                 00488
          433:                                 ITCIARD                                 00491
          434:                                 WS-ITCIACO                              00492
          435:                                 CB-ITCIACO                              00493
          546:                IF CIACP-INV-FDB OF ITCIACP                              00658
          550:                  IF CIACP-NBR-INCL-GRPS OF ITCIACP < WS-01 OR
          551:                     CIACP-NBR-INCL-GRPS OF ITCIACP > WS-99
          623:       *    INITIALIZE ITCIACP FIELDS                                    00726
          655:                MOVE CIACP-SCCF-SER-NUM OF ITCIACP TO                    00758
          674:                          UNTIL SUB > CIACP-TBL-ENTRY-CNT OF ITCIACP
          675:              MOVE SPACES TO CIACP-INCL-GRP-PRIMARY-IND OF ITCIACP (SUB)
          676:              IF  CIACP-PRC-MTD-LN OF ITCIACP (SUB) = WS-MULT-SERV-ALLWD 00063700
          677:                  IF  CIACP-INCL-GROUPING-NBR OF ITCIACP (SUB) >
          681:                           CIACP-INCL-GRP-PRIMARY-IND OF ITCIACP (SUB)
          682:                      MOVE CIACP-INCL-GROUPING-NBR OF ITCIACP (SUB) TO
          684:                           CIACP-NBR-INCL-GRPS OF ITCIACP
          686:                  IF  CIACP-INCL-GROUPING-NBR OF ITCIACP (SUB) =
          689:                           CIACP-INCL-GROUPING-NBR OF ITCIACP (SUB)
          690:                           CIACP-NBR-INCL-GRPS OF ITCIACP
          693:              IF (CIACP-PRC-MTD-LN OF ITCIACP (SUB) =                    00063700
          697:                       CIACP-INCL-GRP-PRIMARY-IND OF ITCIACP (SUB)
          699:                  MOVE WS-01         TO CIACP-NBR-INCL-GRPS OF ITCIACP
          701:              IF  CIACP-PRC-MTD-LN OF ITCIACP (SUB) = SPACES AND         00063700
          703:                 (CIACP-PRC-MTD-CLM OF ITCIACP = WS-PER-DIEM OR
          707:                       CIACP-INCL-GRP-PRIMARY-IND OF ITCIACP (SUB)
          709:                  MOVE WS-01         TO CIACP-NBR-INCL-GRPS OF ITCIACP
          992:       *****COPY ITCIACO CLM STAT AND CLM RSN TO CIACOP                  01051
          993:       *****PUT CX002 IN WS-ITCIACO                                      01052
         1116:            IF CIACP-NBR-INCL-GRPS OF ITCIACP >= WS-01 AND
         1117:               CIACP-NBR-INCL-GRPS OF ITCIACP <= WS-99
         1119:                       CIACP-NBR-INCL-GRPS-NUM OF ITCIACP +
         1191:            IF CIACP-PRC-MTD-CLM OF ITCIACP = WS-PM-01                   01290
         1197:                   CIACP-TBL-ENTRY-CNT OF ITCIACP                        01296
         1211:            IF CIACP-PRC-MTD-CLM OF ITCIACP  = SPACES OR LOW-VALUES      01310
         1212:                MOVE SPACES  TO CIACP-PRC-MTD-CLM OF ITCIACP             01311
         1213:                MOVE SPACES  TO CIACP-RULE-NUM-PRIM-CLM OF ITCIACP       01312
         1232:            MOVE     CIACP-PRC-MTD-LN OF ITCIACP (SUB) TO                01382
1        1235:            MOVE     CIACP-PCT-FCTR-LN-X OF ITCIACP (SUB) TO             01385
         1238:            MOVE     CIACP-RULE-NUM-LN OF ITCIACP (SUB) TO               01388
         1242:                     CIACP-PRC-MTD-LN OF ITCIACP (SUB).                  01392
         1245:                     CIACP-PCT-FCTR-LN OF ITCIACP (SUB).                 01395
         1248:                     CIACP-RULE-NUM-LN-4-6 OF ITCIACP (SUB).             01398
         1250:            MOVE     CIACP-SF-MSG-CDS-LN OF ITCIACP (SUB) TO             01400
         1264:            MOVE CIACP-PRC-MTD-CLM OF ITCIACP                            01455
         1267:            MOVE CIACP-PCT-FCTR-CLM-X OF ITCIACP                         01458
         1270:            MOVE CIACP-RULE-NUM-PRIM-CLM OF ITCIACP                      01461
         1285:            IF CIACP-SF-MSG-CD-LN OF ITCIACP (SUB SUBM)                  01476
         1290:                 TO  CIACP-SF-MSG-CD-LN OF ITCIACP (SUB SUBM)            01481
         1291:               MOVE  CIACP-SPEC-PRC-COND-CD-CLM OF ITCIACP (SUBM)        01482
         1292:                     TO CIACP-SPEC-PRC-COND-CD-LN OF ITCIACP (SUB SUBM)  01483
         1293:               MOVE  CIACP-SPEC-PRC-COND-PCT-CLM OF ITCIACP (SUBM)       01484
         1294:                     TO CIACP-SPEC-PRC-COND-PCT-LN OF ITCIACP (SUB SUBM) 01485
         1304:            MOVE     CIACP-SF-MSG-CDS-CLM OF ITCIACP  TO                 01495
         1315:            IF CIACP-SF-MSG-CD-CLM OF ITCIACP (SUB)                      01506
         1318:                     CIACP-SF-MSG-CD-CLM OF ITCIACP (SUB).               01509
         1330:            IF CIACO-CLM-ERR-MAX-IND OF WS-ITCIACO                       01521
         1452:                                           ITCIACP                       01640
         1488:                                           ITCIACP                       01699
         1489:                                           ITCIACO                       01700
         1490:                                           ITCIARD                       01562
         1504:                                           ITCIACP                       01710
         1520:                                           ITCIACP                       01723
         1521:                                           ITCIACO                       01724
         1536:                                           ITCIACP                       01736
         1537:                                           ITCIACO                       01737
         1538:                                           WS-ITCIACO                    01738
         1539:                                           CB-ITCIACO                    01739
         1724:            MOVE CIACP-SCCF-SER-NUM OF ITCIACP                           01893
         1725:              TO CIACP-SCCF-SER-NUM OF WS-ITCIACP                        01894
         1726:            MOVE CIACP-FDB-INV-CD   OF ITCIACP                           01895
         1727:              TO CIACP-FDB-INV-CD   OF WS-ITCIACP                        01896
         1728:            MOVE CIACP-PRC-DATA-PRESENT-IND OF ITCIACP                   01897
         1729:              TO CIACP-PRC-DATA-PRESENT-IND OF WS-ITCIACP                01898
         1730:            MOVE CIACP-CLM-LVL-DATA OF ITCIACP                           01899
         1731:              TO CIACP-CLM-LVL-DATA OF WS-ITCIACP                        01900
         1732:            MOVE CIACP-COB-DATA-CLM OF ITCIACP                           01901
         1733:              TO CIACP-COB-DATA-CLM OF WS-ITCIACP                        01902
         1735:            MOVE CIACP-MEDICARE-AREA OF ITCIACP
         1736:              TO CIACP-MEDICARE-AREA OF WS-ITCIACP
         1740:            MOVE CIACP-OTHER-CLM-INFO OF ITCIACP                         01795
         1741:              TO CIACP-OTHER-CLM-INFO OF WS-ITCIACP                      01796
         1745:            IF CIACP-TBL-ENTRY-CNT OF ITCIACP >= ZERO                    01798
         1746:                IF CIACP-TBL-ENTRY-CNT OF ITCIACP NOT >                  01905
         1748:                    MOVE CIACP-TBL-ENTRY-CNT OF ITCIACP TO               01907
         1749:                                  CIACP-TBL-ENTRY-CNT OF WS-ITCIACP      01908
         1752:                                  CIACP-TBL-ENTRY-CNT OF WS-ITCIACP      01911
         1758:            IF CIACP-TBL-ENTRY-CNT OF ITCIACP > ZERO                     01916
         1760:                 UNTIL WS-S1 GREATER CIACP-TBL-ENTRY-CNT OF ITCIACP      01918
         1789:            MOVE ZEROES TO CIACO-CLM-STAT-CD OF ITCIACO                  01944
         1790:                           CIACO-DED-REM-1 OF ITCIACO                    01945
         1791:                           CIACO-DED-REM-2 OF ITCIACO                    01946
         1792:                           CIACO-DED-REM-3 OF ITCIACO                    01947
         1793:                           CIACO-REM-OOP-MAX OF ITCIACO                  01948
         1794:                           CIACO-BCBS-PMT-AMT OF ITCIACO                 01949
         1795:                           CIACO-SUB-LIAB OF ITCIACO                     01950
         1796:                           CIACO-PAY-MAX-REM-CLM-1 OF ITCIACO            01951
         1797:                           CIACO-PAY-MAX-REM-CLM-2 OF ITCIACO            01952
1        1806:                    TO CIACO-TBL-ENTRY-CNT OF ITCIACO                    01961
         1809:                         CIACO-TBL-ENTRY-CNT OF ITCIACO                  01964
         1834:                           CIACO-ACCUM-EXCL-SUB-REDS OF ITCIACO (SUB)    02024
         1877:                           CIACO-BMFAP-EXCESS-PER-DAY-RED OF ITCIACO     00200900
0    ELEMENT   ITCP9706
          189:                                 ITCIACP                                 00174
0    ELEMENT   ITCP9708
           18:       *   FUNCTION:     THIS MODULE EDITS AND BUILDS THE CB-ITCIACO    *00018
           35:       *         POPULATE SUPPLEMENTAL AMOUNT ON THE CB_ITCIACO         *
           42:       *         MAX IN CB-ITCIACO FROM WS-ITCIACO IN C500-EDIT-LN-AMTS.*
          233:            COPY ITCIACO                                                 00203
          236:                 == DEPENDING ON CIACO-TBL-ENTRY-CNT OF ITCIACO ==.      00206
          241:            COPY ITCIACO                                                 00211
          244:                 == DEPENDING ON CIACO-TBL-ENTRY-CNT OF WS-ITCIACO ==.   00214
          249:            COPY ITCIACO                                                 00219
          252:                 == DEPENDING ON CIACO-TBL-ENTRY-CNT OF CB-ITCIACO ==.   00222
          268:                                 ITCIACP                                 00238
          269:                                 ITCIACO                                 00239
          270:                                 WS-ITCIACO                              00240
          271:                                 CB-ITCIACO                              00241
          310:            IF CIACO-SCCF-SER-NUM OF WS-ITCIACO IS EQUAL TO              00280
          311:               CIACO-SCCF-SER-NUM OF ITCIACO                             00281
          312:                MOVE CIACO-SCCF-SER-NUM OF WS-ITCIACO                    00282
          313:                  TO CIACO-SCCF-SER-NUM OF CB-ITCIACO                    00283
          319:            IF CIACO-SUCCESSFUL OF WS-ITCIACO                            00288
          320:              OR  CIACO-UNABLE-TO-CALC OF WS-ITCIACO                     00289
          321:              OR  CIACO-CALC-WITH-EXCEPTION OF WS-ITCIACO                00290
          322:              OR  CIACO-NO-CALC-REQ OF WS-ITCIACO                        00291
          323:              OR  CIACO-SUB-LIAB-DIFF OF WS-ITCIACO                      00292
          324:                MOVE CIACO-CLM-STAT-CD OF WS-ITCIACO                     00286
          325:                  TO CIACO-CLM-STAT-CD  OF CB-ITCIACO                    00294
          351:                     CIACO-CLM-ERR-MAX-IND OF CB-ITCIACO                 00314
          356:            IF CIACO-CALC-TYPE-CD OF WS-ITCIACO IS EQUAL TO              00323
          357:               CIACO-CALC-TYPE-CD OF ITCIACO                             00324
          358:                MOVE CIACO-CALC-TYPE-CD OF WS-ITCIACO TO                 00321
          359:                     CIACO-CALC-TYPE-CD OF CB-ITCIACO                    00322
          366:                CIACO-DED-REM-1 OF CB-ITCIACO                            00332
          367:                CIACO-DED-REM-2 OF CB-ITCIACO                            00333
          368:                CIACO-DED-REM-3 OF CB-ITCIACO                            00334
          369:                CIACO-REM-OOP-MAX OF CB-ITCIACO                          00335
          370:                CIACO-PAY-MAX-REM-CLM-1 OF CB-ITCIACO                    00336
          371:                CIACO-PAY-MAX-REM-CLM-2 OF CB-ITCIACO                    00337
          374:            IF CIACO-BCBS-PMT-AMT OF WS-ITCIACO NUMERIC                  00340
          375:                MOVE CIACO-BCBS-PMT-AMT OF WS-ITCIACO TO                 00339
          376:                     CIACO-BCBS-PMT-AMT OF CB-ITCIACO                    00340
          382:            IF CIACO-SUB-LIAB OF WS-ITCIACO NUMERIC                      00347
          383:                MOVE CIACO-SUB-LIAB OF WS-ITCIACO TO                     00346
          384:                     CIACO-SUB-LIAB OF CB-ITCIACO                        00347
          391:            IF CIACO-TBL-ENTRY-CNT OF WS-ITCIACO >= ZERO                 00352
          417:            IF CIACO-BCBS-PMT-AMT OF WS-ITCIACO IS NOT EQUAL TO          00403
          424:            IF CIACO-SUB-LIAB OF WS-ITCIACO IS NOT EQUAL TO              00408
          439:            IF CIACO-TBL-ENTRY-CNT OF WS-ITCIACO EQUAL                   00384
          440:               CIACO-TBL-ENTRY-CNT OF ITCIACO                            00385
          441:                MOVE CIACO-TBL-ENTRY-CNT OF WS-ITCIACO                   00402
          442:                  TO CIACO-TBL-ENTRY-CNT OF CB-ITCIACO                   00387
          733:                MOVE CIACO-BMFAP-EXCESS-PER-DAY-RED OF WS-ITCIACO
          735:                  TO CIACO-BMFAP-EXCESS-PER-DAY-RED OF CB-ITCIACO
          836:            IF CIACO-INCLUSIVE-TYPE-CALC OF ITCIACO                      00613
1         843:            IF CIACO-TBL-ENTRY-CNT OF ITCIACO NOT =                      00620
          844:               CIACO-TBL-ENTRY-CNT OF WS-ITCIACO                         00621
          852:                    UNTIL NPLUS1-SUB > CIACO-TBL-ENTRY-CNT OF ITCIACO
          865:       *    MOVE CIACO-TBL-ENTRY-CNT OF ITCIACO TO NPLUS1-SUB.           00725
0    ELEMENT   ITCP9710
          189:                                 CB-ITCIACO                              00138
          191:       *12.0   E_41233  KJO  ADD PASSED ITCIACP                          00010007
          192:                                 ITCIACP                                 00122
          548:                                         ITCIACP                         00288
          550:                                         CB-ITCIACO                      00288
0    ELEMENT   ITCP9712
           52:       *         ADD ITCIAAI.  PASS ITCIAAI TO ITCP9718.                *00033
          216:            COPY ITCIACP                                                 00186
          219:                 == DEPENDING ON CIACP-TBL-ENTRY-CNT OF ITCIACP ==.      00189
          227:            COPY ITCIACO                                                 00200
          230:                 == DEPENDING ON CIACO-TBL-ENTRY-CNT OF WS-ITCIACO ==.   00203
          234:            COPY ITCIACO                                                 00208
          237:                 == DEPENDING ON CIACO-TBL-ENTRY-CNT OF CB-ITCIACO ==.   00211
          261:            COPY ITCIAUNQ.
          274:                                 ITCIACP                                 00389
          276:                                 WS-ITCIACO                              00391
          277:                                 CB-ITCIACO                              00392
          278:                                 ITCIARD                                 00393
          583:            IF CIACO-CLM-ERR-MAX-IND OF CB-ITCIACO NOT = WS-CONSTANT-YES 00770
          595:                OR CIACO-CLM-RSN-CD OF CB-ITCIACO (ERR-SUB1) = SPACES.   00783
          636:                                           ITCIACP                       00823
          639:                                           CB-ITCIACO                    00826
          640:                                           ITCIARD                       00827
          657:                                           ITCIACP                       00841
          658:                                           WS-ITCIACO                    00842
          679:                                           CB-ITCIACO                    00885
0    ELEMENT   ITCP9714
          550:                                 ITCIACP                                 00651
          553:                                 CB-ITCIACO                              00654
          554:                                 ITCIARD                                 00655
         2180:                                         ITCIACP                         02149
         2183:                                         CB-ITCIACO                      02152
0    ELEMENT   ITCP9716
          128:                                 ITCIACP                                 00419
          131:                                 CB-ITCIACO                              00422
0    ELEMENT   ITCP9718
           40:       *         ADD ITCIAAI AND PASS INTO ITCP9242.                    *00033
          219:            COPY ITCIACO                                                 00178
          222:                 == DEPENDING ON CIACO-TBL-ENTRY-CNT OF ITCIACO ==.      00181
          251:            COPY ITCIACO                                                 00206
          254:                 == DEPENDING ON CIACO-TBL-ENTRY-CNT OF WS-ITCIACO ==.   00209
          289:            COPY ITCIAUNQ.
          301:                                 ITCIACP                                 00393
          302:                                 WS-ITCIACO                              00394
          372:            IF  CIACP-RULE-NUM-PRIM-CLM-4-6 OF ITCIACP                   00509
          374:                MOVE CIACP-RULE-NUM-PRIM-CLM-4-6 OF ITCIACP              00509
          381:            IF  CIACP-RULE-NUM-SEC-CLM-4-6 OF ITCIACP                    00509
          383:                MOVE CIACP-RULE-NUM-SEC-CLM-4-6 OF ITCIACP               00509
          388:                      UNTIL SUB > CIACP-TBL-ENTRY-CNT OF ITCIACP         00509
          389:                IF  CIACP-RULE-NUM-LN-4-6 OF ITCIACP (SUB)               00509
1         391:                    MOVE CIACP-RULE-NUM-LN-4-6 OF ITCIACP (SUB)          00509
          796:            IF CIACO-CLM-ERR-MAX-IND OF WS-ITCIACO NOT = WS-CONSTANT-YES 00864
          859:                                           ITCIACP                       00982
          872:                                           ITCIACP                       00996
          873:                                           ITCIACO                       00997
          892:                                           ITCIACP                       01046
          894:                                           ITCIACO                       01048
0    ELEMENT   ITCP9720
           18:       *   FUNCTION:     THIS MODULE REBUILDS ITCIACI AND ITCIACP TO    *00018
          262:                                 ITCIACP                                 00204
0    ELEMENT   ITCP9722
          155:                                 ITCIACP                                 00180
          157:                                 ITCIACO                                 00182
0    ELEMENT   ITCP9724
          143:                                 CB-ITCIACO                              00127
0    ELEMENT   ITCP9726
           11:       *   NAME:         UPF COB ITCIACO AND ITCIACOP CROSS REFERENCE   *00011
           18:       *   FUNCTION:     THIS MODULE SETS THE ITCIACO STATUS AND REASON *00018
          145:                                 ITCIACO                                 00167
          189:                PERFORM B200-SET-FROM-ITCIACO                            00205
          196:                PERFORM B200-SET-FROM-ITCIACO                            00212
          213: 025800         PERFORM B200-SET-FROM-ITCIACO                            00257
          218:                PERFORM B200-SET-FROM-ITCIACO                            00223
0    ELEMENT   ITCP9732
          153:            COPY IULIACSC.
          228: 008800 01  IUCIAAJR.                                                          00
          229: 008900     COPY IUCIAAJR.                                                     00
          264: 011400                             ITCIACP                                    00
          265: 011500                             ITCIACO                                    00
          268: 011900                             IUCIAAJR                             00012900
          273: 012300                             IULIACS                              00012900
          438: 035100         MOVE LENGTH OF ITCIACP TO CIARPD-RECN-DATA-LNGTH         03510000
          439: 035200         MOVE ITCIACP TO CIARPD-RECN-DATA-TXT                     03520000
          451: 036000             MOVE LENGTH OF ITCIACO TO CIARPD-RECN-DATA-LNGTH     03600000
          452: 036100             MOVE ITCIACO TO CIARPD-RECN-DATA-TXT                 03610000
          480: 030438     MOVE LENGTH OF IUCIAAJR TO CIARPD-RECN-DATA-LNGTH
          481: 030439     MOVE IUCIAAJR TO CIARPD-RECN-DATA-TXT
0    ELEMENT   IUCP1002
          292:        01  IUCIAAJR.
          294:            COPY IUCIAAJR.
         1891:                                           IUCIAAJR
         1894:                                           ITCIACP
0    ELEMENT   IUCP1004
           67:       *                                 IUCP9356 TO BUILD ITCIACP AND  *
          700:        01  IUCIAAJR.
          704:            COPY IUCIAAJR.
          787:       *                      ITCIACP                             *
          788:       *                      IUCIAAJR                            *
         5963:                                    ITCIACP
         5964:                                    IUCIAAJR
         5980:                                    ITCIACP
         5981:                                    IUCIAAJR
         6017:                                    ITCIACP
1        6018:                                    IUCIAAJR
         6051:                                    ITCIACP
         6052:                                    IUCIAAJR
         6066:                                    ITCIACP
         6067:                                    IUCIAAJR
         6105:                                           ITCIACP
         6106:                                           IUCIAAJR
         6127:                                           ITCIACP
         6128:                                           IUCIAAJR
         6140:                                           ITCIACP
         6141:                                           IUCIAAJR
         6165:                                           IUCIAAJR
         6168:                                           ITCIACP
0    ELEMENT   IUCP1008
           26:       *                                 PROCESS DATA ON IUCIAAJR       *
          546:        01  IUCIAAJR.
          548:            03  IUCIAAJR-NO-LENGTH.
          549:            COPY IUCIAAJR.
         3827:                                  ITCIACP
         3828:                                  IUCIAAJR
         3846:                                    ITCIACP
         3847:                                    IUCIAAJR
         3911:                                  ITCIACP
         3912:                                  IUCIAAJR
         3952:                                    ITCIACP
         3953:                                    IUCIAAJR
         3970:                                           ITCIACP
         3971:                                           IUCIAAJR
         3985:                                           ITCIACO
         3988:                                           IUCIAAJR.
         3999:                                           ITCIACO
         4002:                                           IUCIAAJR.
         4014:                                          IUCIAAJR-NO-LENGTH
         4053:       *14.0   E_72114  KJO PASS ITCIAAI
         4065:                                    ITCIACP
         4066:                                    IUCIAAJR
0    ELEMENT   IUCP1102
           99:       *                                 WHEN THE IUCIAAJR IS READ AND  *
          159:            05  WS-DB-IUCDB100              PIC X(08)  VALUE 'IUCDB100'.
          268:            05  WS-IUCIAAJR-LENGTH     COMP PIC S9(04) VALUE +0.
          364:            COPY IUCDB1CP.
          392:        01  IUCIAAJR.
          394:                COPY IUCIAAJR.
         1116:                                         ITCIACP
         1117:                                         IUCIAAJR
         1491:            COMPUTE  WS-IUCIAAJR-LENGTH = CIAAJR-LENGTH        +
         1494:            MOVE     WS-IUCIAAJR-LENGTH    TO   WS-REC-LEN.
         1624:                                  ITCIACP
         1625:                                  IUCIAAJR
         1976:               DATASET   (WS-DB-IUCDB100)
         1986:                           DATASET  (WS-DB-IUCDB100)
         1999:                          DATASET  (WS-DB-IUCDB100)
         2013:                           DATASET   (WS-DB-IUCDB100)
         2030:                         DATASET  (WS-DB-IUCDB100)
         2043:                         DATASET  (WS-DB-IUCDB100)
         2058:                 ENDBR   DATASET  (WS-DB-IUCDB100)
         2069:               DATASET   (WS-DB-IUCDB100)
         2094:                         DATASET   (WS-DB-IUCDB100)
1        2109:                         DATASET  (WS-DB-IUCDB100)
         2135:                          DATASET  (WS-DB-IUCDB100)
         2165:                           DATASET   (WS-DB-IUCDB100)
         2180:                           DATASET   (WS-DB-IUCDB100)
         2199:               DATASET   (WS-DB-IUCDB100)
         2225:                           WS-IUCIAAJR-LENGTH
         2362:            MOVE CWSMC-IUCDB100-FILE-ERROR   TO SIAPC-RETURN-MESSAGE-CD.
         2376:            MOVE CWSMC-IUCDB100-FILE-ERROR   TO SIAPC-RETURN-MESSAGE-CD.
0    ELEMENT   IUCP1122
          216:        01  IUCIAAJR.
          217:            COPY IUCIAAJR.
          282:                                 IUCIAAJR
0    ELEMENT   IUCP1124
          163:        01  WS-IUCIAAJR.
          168:            COPY IUCIAAJR
          206:            COPY ITCIACP
          234:            COPY ITCIACO
          275:        01  IUCIAAJR.
          276:            COPY IUCIAAJR.
          317:                                 IUCIAAJR
          321:                                 ITCIACP
          324:                                 ITCIACO
          371:            IF  CIAAJR-FORCED-ERR-NA OF IUCIAAJR
          379:            IF CIAAJR-COB OF IUCIAAJR
          398:            MOVE CIAAJR-SCCF-SER-NUM OF IUCIAAJR TO WS-SCCF-KEY-17.
          417:            MOVE CIAAJR-SCCF-SER-NUM OF IUCIAAJR TO WS-SCCF-KEY-17.
          462:            IF CIAAJR-TBL-ENTRY-CNT OF IUCIAAJR NUMERIC
          463:                IF CIAAJR-TBL-ENTRY-CNT OF IUCIAAJR NOT GREATER WS-23
          467:                                           OF IUCIAAJR
          470:                                           OF IUCIAAJR.
          473:                 CIAAJR-SCCF-SER-NUM OF IUCIAAJR.
          475:            MOVE CIAAJR-DATA OF IUCIAAJR TO
          476:                 CIAAJR-DATA OF WS-IUCIAAJR.
          478:            MOVE CIAAJR-TBL-ENTRY-CNT OF IUCIAAJR TO
          480:              WS-CIAAJR-TBL-ENTRY-CNT OF WS-IUCIAAJR.
          484:                    UNTIL AJX > CIAAJR-TBL-ENTRY-CNT OF IUCIAAJR.
          489:                    CIAAJR-TBL-ENTRY-CNT OF IUCIAAJR) + 20.
          599:            IF CIACP-TBL-ENTRY-CNT OF ITCIACP NUMERIC
          600:                IF CIACP-TBL-ENTRY-CNT OF ITCIACP NOT GREATER WS-23
          604:                                        OF ITCIACP
          609:            MOVE CIACP-PRICING-DATA OF ITCIACP TO
          612:            MOVE CIACP-TBL-ENTRY-CNT OF ITCIACP TO
          667:            IF CIACO-TBL-ENTRY-CNT OF ITCIACO NUMERIC
          668:                IF CIACO-TBL-ENTRY-CNT OF ITCIACO NOT GREATER WS-24
          672:                                        OF ITCIACO
          677:            MOVE CIACO-CALC-RESULTS OF ITCIACO TO
          680:            IF CIAAJR-PAY-OVR-APPLIED OF IUCIAAJR
          681:                SUBTRACT WS-ONE  FROM  CIACO-TBL-ENTRY-CNT OF ITCIACO
          684:            MOVE CIACO-TBL-ENTRY-CNT OF ITCIACO TO
          858:            MOVE CIAAJR-PAY-OVR-LN-ITEM OF IUCIAAJR (AJX) TO
          859:                 CIAAJR-PAY-OVR-LN-ITEM OF WS-IUCIAAJR (AJX).
          891:            MOVE CIACP-LN-ITEM-ENTRY OF ITCIACP (CPX) TO
          892:                 CIACP-LN-ITEM-ENTRY OF WS-ITCIACP (CPX).
          902:            MOVE CIACO-CALC-RESULTS-LN-ITEM OF ITCIACO (COX) TO
          903:                 CIACO-CALC-RESULTS-LN-ITEM OF WS-ITCIACO (COX).
         1009:            EXEC CICS STARTBR FILE      (CWSNM-IUCDBF00-NAME)
         1026:            EXEC CICS READNEXT FILE      (CWSNM-IUCDBF00-NAME)
         1043:                      DATASET  (CWSNM-IUCDBF00-NAME)
1        1056:            EXEC CICS WRITE FILE      (CWSNM-IUCDBF00-NAME)
         1057:                            FROM      (WS-IUCIAAJR)
         1073:            EXEC CICS WRITE FILE      (CWSNM-IUCDBF00-NAME)
         1090:            EXEC CICS WRITE FILE      (CWSNM-IUCDBF00-NAME)
         1107:            EXEC CICS WRITE FILE      (CWSNM-IUCDBF00-NAME)
         1124:            EXEC CICS WRITE FILE      (CWSNM-IUCDBF00-NAME)
         1141:            EXEC CICS WRITE FILE      (CWSNM-IUCDBF00-NAME)
         1158:            EXEC CICS WRITE FILE      (CWSNM-IUCDBF00-NAME)
         1175:            EXEC CICS WRITE FILE      (CWSNM-IUCDBF00-NAME)
         1192:            EXEC CICS WRITE FILE      (CWSNM-IUCDBF00-NAME)
         1209:            EXEC CICS DELETE   FILE      (CWSNM-IUCDBF00-NAME)
0    ELEMENT   IUCP3102
          142:        01  IUCIAAJR.
          143:            COPY IUCIAAJR.
          161:                                 ITCIACP
          163:                                 ITCIACO
          165:                                 IUCIAAJR
0    ELEMENT   IUCP3104
           93:        01  IUCIAAJR.
           94:            COPY IUCIAAJR.
          115:                                 ITCIACP
          117:                                 ITCIACO
          123:                                 IUCIAAJR
0    ELEMENT   IUCP3106
           28:       *                                - ADDED ITCIACI AND IUCIAAJR    *
           31:       *                                - ADDED IUCIAAJR TO USING       *
           96:        01  IUCIAAJR.
           98:            COPY IUCIAAJR.
          121:                                 IUCIAAJR
0    ELEMENT   IUCP3108
           95:        01  IUCIAAJR.
           96:            COPY IUCIAAJR.
          210:                                 ITCIACP
          212:                                 ITCIACO
          218:                                 IUCIAAJR
0    ELEMENT   IUCP3110
           83:        01  IUCIAAJR.
           85:            COPY IUCIAAJR.
          105:                                 ITCIACP
          106:                                 IUCIAAJR
0    ELEMENT   IUCP3112
           85:        01  IUCIAAJR.
           87:            COPY IUCIAAJR.
          104:                                 ITCIACP
          105:                                 IUCIAAJR
0    ELEMENT   IUCP3114
           99:        01  IUCIAAJR.
          100:            COPY IUCIAAJR.
          116:                                 ITCIACO
          118:                                 ITCIACP
          123:                                 IUCIAAJR
0    ELEMENT   IUCP9102
1         169:       *                                 TO SAVE ITCIACO AND RESTORE IT *
          197:       *                                 ITCIACO DUE TO RENAME OF       *
          300:       *                             SAVEDFAREA 1 MEG, SAVEITCIACO 277K *
          335:       *       - ALSO INCLUDES E_24765.  ADD ITCIAAI TO LINKAGE AND PASS*
          552:        01  IUCIAAJR.
          553:            COPY IUCIAAJR.
          687:                                 ITCIACP
          688:                                 IUCIAAJR
          690:                                 ITCIACO
          727:       *14.0   E_72114  KJO ADD ITCIAAI
         1020:            IF CIACO-TBL-ENTRY-CNT OF ITCIACO < +0 OR
         1022:               CIACO-TBL-ENTRY-CNT OF ITCIACO > +1098
         1120:            IF CIACO-TBL-ENTRY-CNT OF ITCIACO < +0 OR
         1122:               CIACO-TBL-ENTRY-CNT OF ITCIACO > +1098
         1205:                                           ITCIACP
         1207:                                           ITCIACO
         1212:                                           ITCIARD
         1222:                                           IUCIAAJR
         1267:       *14.0   E_72114  KJO PASS ITCIAAI
         1279:                                           ITCIACP
         1280:                                           IUCIAAJR
         1282:                                           ITCIACO
         1285:                                           WS-SAVE-ITCIACO
         1292:                                           ITCIARD
         1328:       *14.0   E_72114  KJO PASS ITCIAAI
         1340:                                           ITCIACP
         1341:                                           IUCIAAJR
         1343:                                           ITCIACO
         1346:                                           WS-SAVE-ITCIACO
         1353:                                           ITCIARD
         1389:       *14.0   E_72114  KJO PASS ITCIAAI
0    ELEMENT   IUCP9104
           39:       *                                 TO INITIALIZE ITCIARD AREA.    *
           49:       *                                 ADDED IUCWSEC COPYMEMBER       *
           72:       *         ALSO CHANGE CLAIM-LEVEL MOVES IN ITCIACO TO 158 TO BE  *
          210:            COPY ITCIACO
          375:        01  IUCIAAJR.
          376:            COPY IUCIAAJR.
          405:                                 IUCIAAJR
          407:                                 ITCIACP
          409:                                 ITCIACO
         1279:                                            ITCIACP
         1280:                                            WS-ITCIACO
0    ELEMENT   IUCP9106
          110:        01  IUCIAAJR.
          111:            COPY IUCIAAJR.
          123:                                 IUCIAAJR
0    ELEMENT   IUCP9108
           82:       *         GROUPINGS - CHANGE MAX ENTRIES FIELD FOR ITCIACP       *00050013
0    ELEMENT   IUCP9110
           72:        01  IUCIAAJR.
           73:            COPY IUCIAAJR.
           86:                                 IUCIAAJR
0    ELEMENT   IUCP9112
           68:       *                                 ITCIACO BEFORE INVOKING        *
1         474:            COPY ITCIACO
          620:        01  ITCWSMCD.
          621:            COPY ITCWSMCD.
          653:        01  IUCIAAJR.
          654:            COPY IUCIAAJR.
          672:                                 ITCIACP
          674:                                 ITCIACO
          677:                                 ITCIARD
          678:                                 IUCIAAJR
         2820:                                            ITCIACP
         2821:                                            WS-ITCIACO
0    ELEMENT   IUCP9116
          352:        01  IUCIAAJR.
          353:            COPY IUCIAAJR.
          484:                                 ITCIACP
          486:                                 ITCIACO
          495:                                 IUCIAAJR
         1740:       *HC                   BY REFERENCE  ITCIACP
         1742:       *HC                   BY REFERENCE  ITCIACO
         1748:       *HC                   BY REFERENCE  IUCIAAJR
         1767:                             BY REFERENCE  ITCIACP
         1769:                             BY REFERENCE  ITCIACO
         1775:                             BY REFERENCE  IUCIAAJR
         1789:                             BY REFERENCE  ITCIACP
         1791:                             BY REFERENCE  ITCIACO
         1797:                             BY REFERENCE  IUCIAAJR
         1812:                             BY REFERENCE  ITCIACP
         1814:                             BY REFERENCE  ITCIACO
         1820:                             BY REFERENCE  IUCIAAJR
         1835:                             BY REFERENCE  ITCIACP
         1837:                             BY REFERENCE  ITCIACO
         1843:                             BY REFERENCE  IUCIAAJR
         1856:                             BY REFERENCE  ITCIACP
         1858:                             BY REFERENCE  ITCIACO
         1864:                             BY REFERENCE  IUCIAAJR
         1881:                             BY REFERENCE  ITCIACP
         1883:                             BY REFERENCE  ITCIACO
         1889:                             BY REFERENCE  IUCIAAJR
         1935:                             BY REFERENCE  ITCIACP
         1936:                             BY REFERENCE  IUCIAAJR
         1938:                             BY REFERENCE  ITCIACO
         1954:                             BY REFERENCE  ITCIACP
         1955:                             BY REFERENCE  IUCIAAJR
         1957:                             BY REFERENCE  ITCIACO
         1994:                                           ITCIACP
         2019:                                           IUCIAAJR
         2035:                                           IUCIAAJR.
         2043:                                           ITCIACP
         2045:                                           ITCIACO
         2051:                                           IUCIAAJR
         2066:                             BY REFERENCE  ITCIACP                       19740000
         2068:                             BY REFERENCE  ITCIACO                       19760000
         2074:                             BY REFERENCE  IUCIAAJR                      19820000
0    ELEMENT   IUCP9118
          180:       *                                 PRICING METHOD IN ITCIACP FOR  *
          408:        01  ITCWSMCD.
          409:            COPY ITCWSMCD.
          446:        01  IUCIAAJR.
1         447:            COPY IUCIAAJR.
          468:                                 ITCIACP
          470:                                 ITCIACO
          476:                                 IUCIAAJR
0    ELEMENT   IUCP9120
          472:        01  ITCWSMCD.
          473:            COPY ITCWSMCD.
          510:        01  IUCIAAJR.
          511:            COPY IUCIAAJR.
          537:                                 ITCIACP
          539:                                 ITCIACO
          545:                                 IUCIAAJR
0    ELEMENT   IUCP9122
          392:        01  IUCIAAJR.
          393:            COPY IUCIAAJR.
          419:                                 ITCIACP
          421:                                 ITCIACO
          427:                                 IUCIAAJR
0    ELEMENT   IUCP9123
           78:                                 ITCIACP
0    ELEMENT   IUCP9124
          170:       *                                 TO ADD IUCIAAJR AS THE SECOND  *
          655:        01  IUCIAAJR.
          656:            COPY IUCIAAJR.
          706:                                 ITCIACP
          709:                                 ITCIACO
          711:                                 IUCIAAJR
         2237:            IF CIAAJR-COB OF IUCIAAJR
         4469:                                           IUCIAAJR
         4483:                                           IUCIAAJR
         4501:                                           ITCIACP
         4502:                                           ITCIACO
         4505:                                           IUCIAAJR
         4517:                                           IUCIAAJR
         4518:                                           ITCIACO
         4521:       *12.0   E_41233  KJO  PASS ITCIACP TO IUCP9162
         4532:                                           IUCIAAJR
0    ELEMENT   IUCP9128
          170:                                 ITCIACP
0    ELEMENT   IUCP9130
          151:        01  IUCIAAJR.
          152:            COPY IUCIAAJR.
          173:                                 ITCIACP
          175:                                 ITCIACO
          181:                                 IUCIAAJR
0    ELEMENT   IUCP9132
          938:        01  ITCWSMCD.
          939:            COPY ITCWSMCD.
          972:        01  IUCIAAJR.
          973:            COPY IUCIAAJR.
         1005:                                 ITCIACP
         1007:                                 IUCIAAJR
         1014:       *14.0   E_72114  KJO ADD ITCIAAI
1    ELEMENT   IUCP9134
          196:        01  IUCIAAJR.
          197:            COPY IUCIAAJR.
          231:                                 ITCIACP
          232:                                 IUCIAAJR
0    ELEMENT   IUCP9146
          305:                                 ITCIACP
          805:                                           ITCIACP
0    ELEMENT   IUCP9150
          217:       *                    SAVEITCIACO 277K. COPYMEMBERS IUCIASV,      *
          944:        01  IUCIAAJR.
          945:            COPY IUCIAAJR.
         1109:                                 ITCIACP
         1110:                                 IUCIAAJR
         1112:                                 ITCIACO
         1115:                                 WS-SAVE-ITCIACO
         1122:                                 ITCIARD
         1158:       *R14.0  E_72114  KJO ADD ITCIAAI
         4594:            MOVE CIACP-TBL-ENTRY-CNT OF ITCIACP TO
         4595:                 CIAAJR-TBL-ENTRY-CNT OF IUCIAAJR.
         4600:                        CIAAJR-TBL-ENTRY-CNT OF IUCIAAJR.
         6538:            IF CIACO-TBL-ENTRY-CNT OF ITCIACO < +0
         6540:            OR CIACO-TBL-ENTRY-CNT OF ITCIACO > WS-1098
         6615:            IF CIACO-TBL-ENTRY-CNT OF ITCIACO < +0
         6617:            OR CIACO-TBL-ENTRY-CNT OF ITCIACO > WS-1098
         6821:            IF CIACO-TBL-ENTRY-CNT OF ITCIACO < +0
         6823:            OR CIACO-TBL-ENTRY-CNT OF ITCIACO > WS-1098
         6910:            IF CIACO-TBL-ENTRY-CNT OF ITCIACO < +0
         6912:            OR CIACO-TBL-ENTRY-CNT OF ITCIACO > WS-1098
         6952:            IF CIACO-TBL-ENTRY-CNT OF ITCIACO < +0
         6954:            OR CIACO-TBL-ENTRY-CNT OF ITCIACO > WS-1098
         7030:            IF CIACO-TBL-ENTRY-CNT OF ITCIACO < +0
         7032:            OR CIACO-TBL-ENTRY-CNT OF ITCIACO > WS-1098
         7093:            IF CIACO-TBL-ENTRY-CNT OF ITCIACO < +0
         7095:            OR CIACO-TBL-ENTRY-CNT OF ITCIACO > WS-1098
         7244:            IF CIACO-TBL-ENTRY-CNT OF ITCIACO < +0
         7246:            OR CIACO-TBL-ENTRY-CNT OF ITCIACO > WS-1098
         7336:            IF CIACO-TBL-ENTRY-CNT OF ITCIACO < +0
         7338:            OR CIACO-TBL-ENTRY-CNT OF ITCIACO > WS-1098
         8039:                                           ITCIACP
         8041:                                           ITCIACO
         8046:                                           ITCIARD
         8056:                                           IUCIAAJR
         8107:       *R14.0  E_72114  KJO PASS ITCIAAI TO IUCP9160
         8540:                PERFORM X420-RESTORE-ITCIACO
0    ELEMENT   IUCP9152
          234: 002340*                    SAVEITCIACO 277K. COPYMEMBERS IUCIASV,      *
          988:        01  IUCIAAJR.
          989:            COPY IUCIAAJR.
         1153:                                 ITCIACP
         1154:                                 IUCIAAJR
         1156:                                 ITCIACO
         1159:                                 WS-SAVE-ITCIACO
         1166:                                 ITCIARD
         1202:       *R14.0  E_72114  KJO ADD ITCIAAI
         5429:            MOVE CIACP-TBL-ENTRY-CNT OF ITCIACP TO
         5430:                 CIAAJR-TBL-ENTRY-CNT OF IUCIAAJR.
1        5435:                        CIAAJR-TBL-ENTRY-CNT OF IUCIAAJR.
         6843:            IF CIAAJR-CLM-REASON-CD OF IUCIAAJR (SUB)
         7265: 068860         PERFORM X420-RESTORE-ITCIACO                             00068860
         7866:            IF CIACO-TBL-ENTRY-CNT OF ITCIACO < +0
         7868:            OR CIACO-TBL-ENTRY-CNT OF ITCIACO > WS-1098                  00074510
         8099:            IF CIACO-TBL-ENTRY-CNT OF ITCIACO < +0
         8101:            OR CIACO-TBL-ENTRY-CNT OF ITCIACO > WS-1098                  00076820
         8166:            IF CIACP-TBL-ENTRY-CNT OF ITCIACP < +0
         8167:            OR CIACP-TBL-ENTRY-CNT OF ITCIACP > WS-999
         8170:            IF CIACO-TBL-ENTRY-CNT OF ITCIACO < +0
         8172:            OR CIACO-TBL-ENTRY-CNT OF ITCIACO > WS-1098                  00077510
         8212:            IF CIACO-TBL-ENTRY-CNT OF ITCIACO < +0
         8214:            OR CIACO-TBL-ENTRY-CNT OF ITCIACO > WS-1098                  00077920
         8299:            IF CIACO-TBL-ENTRY-CNT OF ITCIACO < +0
         8301:            OR CIACO-TBL-ENTRY-CNT OF ITCIACO > WS-1098                  00078780
         8466:            IF CIACO-TBL-ENTRY-CNT OF ITCIACO < +0
         8468:            OR CIACO-TBL-ENTRY-CNT OF ITCIACO > WS-1098                  00080450
         8533:            IF CIACO-TBL-ENTRY-CNT OF ITCIACO < +0
         8535:            OR CIACO-TBL-ENTRY-CNT OF ITCIACO > WS-1098                  00081100
         9089:            IF CIACO-TBL-ENTRY-CNT OF ITCIACO < +0
         9091:            OR CIACO-TBL-ENTRY-CNT OF ITCIACO > WS-1098                  00086680
         9150:            IF CIACO-TBL-ENTRY-CNT OF ITCIACO < +0
         9152:            OR CIACO-TBL-ENTRY-CNT OF ITCIACO > WS-1098                  00087280
         9506:                                           ITCIACP
         9508:                                           ITCIACO
         9513:                                           ITCIARD
         9523:                                           IUCIAAJR
         9572:       *R14.0  E_72114  KJO BEGIN - PASS ITCIAAI TO IUCP9160
0    ELEMENT   IUCP9154
          175:        01  IUCIAAJR.
          176:            COPY IUCIAAJR.
          203:                                 ITCIACP
          204:                                 IUCIAAJR
          206:                                 ITCIACO
0    ELEMENT   IUCP9156
          235:        01  IUCIAAJR.
          236:            COPY IUCIAAJR.
          282:                                 ITCIACP
          283:                                 IUCIAAJR
          285:                                 ITCIACO
0    ELEMENT   IUCP9158
          103:       *                    SAVEDFAREA 1 MEG, SAVEITCIACO 277K, ITCIADBD*
          105:       *                    IUCIADF, ITCIASF, IUCIADR, ITCIARD          *
          459:        01  IUCIAAJR.
          460:            COPY IUCIAAJR.
          572:                                 ITCIACP
          574:                                 IUCIAAJR
         1211:                                           ITCIACP
0    ELEMENT   IUCP9160
           63:       *                           SAVEDFAREA 1 MEG, SAVEITCIACO 277K   *
           80:       *       - ALSO INCLUDES E_24765.  ADD ITCIAAI TO LINKAGE AND PASS*
           84:       *       PASS ITCIAAI INTO ITCP9700.                              *
          246:        01  IUCIAAJR.
          247:            COPY IUCIAAJR.
          403:                                 ITCIACP
          405:                                 ITCIACO
1         410:                                 ITCIARD
          420:                                 IUCIAAJR
          662:            IF CIACO-TBL-ENTRY-CNT OF ITCIACO < WS-0
          769:            IF CIACO-TBL-ENTRY-CNT OF ITCIACO < WS-0
          846:            IF CIACO-TBL-ENTRY-CNT OF ITCIACO < WS-0
          883:            IF CIACO-TBL-ENTRY-CNT OF ITCIACO < WS-0
          932:            IF CIACO-TBL-ENTRY-CNT OF ITCIACO < WS-0 OR > WS-1098
         1055:            IF CIACO-TBL-ENTRY-CNT OF ITCIACO < WS-0 OR > WS-1098
         1097:            IF CIACO-TBL-ENTRY-CNT OF ITCIACO < WS-0 OR > WS-1098
         1132:            IF CIACO-TBL-ENTRY-CNT OF ITCIACO < WS-0 OR > WS-1098
         1177:            IF CIACO-TBL-ENTRY-CNT OF ITCIACO < WS-0 OR > WS-1098
         1465:                                            ITCIACP
         1466:                                            ITCIACO
         1506:                                           ITCIACP
         1508:                                           ITCIACO
         1541:                                           ITCIACP
         1543:                                           ITCIACO
         1545:                                           IUCIAAJR
         1563:                                           ITCIACO
         1565:                                           ITCIACP
         1570:                                           IUCIAAJR
         1582:                                           IUCIAAJR
         1584:                                           ITCIACP
         1586:                                           ITCIACO
         1600:                                           IUCIAAJR
         1611:                                           ITCIACP
         1625:                                           IUCIAAJR
         1637:                                           ITCIACP
         1639:                                           ITCIACO
         1642:                                           ITCIARD
         1643:                                           IUCIAAJR
         1670:                                           ITCIACP
         1672:                                           ITCIACO
         1681:                                           IUCIAAJR
         1736:                                           ITCIACP
         1739:                                           ITCIACO
         1741:                                           IUCIAAJR
         1762:                                           ITCIACP
         1781:                                           ITCIACP
         1783:                                           IUCIAAJR
         1790:       *14.0   E_72114  KJO PASS ITCIAAI
         1801:                                           ITCIACP
         1802:                                           IUCIAAJR
         1833:                                           ITCIACP
         1878:                                           ITCIACP
         1880:                                           IUCIAAJR
         1926:                                           ITCIACP
         1928:                                           ITCIACO
         1931:                                           ITCIARD
         1932:                                           IUCIAAJR
         1945:                                           ITCIACP
         2004:                                           ITCIAAI
0    ELEMENT   IUCP9162
           19:       *                    ITCIACO AND ITCIACOP                        *
           36:       *                               - ADDED IUCIAAJR TO LINKAGE AND  *
           40:       *                                 ITCIACO FOR NON-COB CLAIMS     *
           52:       *                                 C200-SET-FROM-ITCIACO FOR      *
           61:       *                                 C400-SET-FROM-ITCIACO          *
           62:       *                                 SO THAT ITCIACO REASON CODES   *
1         181:        01   IUCIAAJR.
          182:            COPY IUCIAAJR.
          212:                                 IUCIAAJR
          213:                                 ITCIACO
          216:       *12.0   E_41233  KJO PASS IN ITCIACP FROM IUCP9124
          254:                PERFORM C200-SET-FROM-ITCIACO
          259:                PERFORM C200-SET-FROM-ITCIACO
0    ELEMENT   IUCP9164
          329:            COPY ITCIACO
          490:        01  IUCIAAJR.
          491:            COPY IUCIAAJR.
          509:                                 ITCIACP
          511:                                 ITCIACO
          514:                                 ITCIARD
          515:                                 IUCIAAJR
         2580:                                            ITCIACP
         2581:                                            WS-ITCIACO
0    ELEMENT   IUCP9166
          166:        01  IUCIAAJR.
          167:            COPY IUCIAAJR.
          194:                                 IUCIAAJR
0    ELEMENT   IUCP9170
           71:        01  IUCIAAJR.
           72:            COPY IUCIAAJR.
           81:                                 IUCIAAJR.
          116:       *12.0   E_41233  DJL REMOVE IUCIAAJR BELOW
0    ELEMENT   IUCP9178
          331:        01  IUCIAAJR.
          332:            COPY IUCIAAJR.
          398:                                 IUCIAAJR
0    ELEMENT   IUCP9184
           21:       *                 ACCESSED AND MAPPED TO THE ITCIAAI COPYBOOK.   *00020
          126:                                 ITCIAAI                                 00097
0    ELEMENT   IUCP9356
          428:                                 ITCIACP
         1735:                                           ITCIACP
0    ELEMENT   IUCP9502
          104:       *                                 ITCIACI AND IUCIAAJR TO CALL   *
          745:        01  ITCWSMCD.
          746:            COPY ITCWSMCD.
          817:        01  IUCIAAJR.
          819:            COPY IUCIAAJR.
          843:                                 IUCIAAJR
          846:                                 ITCIACP
         8930:                                          IUCIAAJR
0    ELEMENT   IUCP9506
          108:       *                                 METHOD CHECK WHEN ITCIACP      *
          539:        01  IUCIAAJR.
          540:            05  IUCIAAJR-LENGTH            COMP    PIC S9(08).
          541:            COPY IUCIAAJR.
          565:                                 IUCIAAJR,
1    ELEMENT   IUCP9508
          371:        01  IUCIAAJR.
          372:            05  IUCIAAJR-LENGTH            COMP    PIC S9(08).
          373:            COPY IUCIAAJR.
          397:                                 IUCIAAJR,
0    ELEMENT   IUCP9512
          239:        01  IUCIAAJR.
          240:            05  IUCIAAJR-LENGTH            COMP    PIC S9(08).
          241:            COPY IUCIAAJR.
          254:                                 ITCIACO
          257:                                 IUCIAAJR.
0    ELEMENT   IUCP9514
          295:        01  IUCIAAJR.
          296:            05  IUCIAAJR-LENGTH            COMP    PIC S9(08).
          297:            COPY IUCIAAJR.
          310:                                 ITCIACO
          313:                                 IUCIAAJR.
0    ELEMENT   IUCP9518
          112:            05  WS-DB-IUCDB100              PIC X(08)  VALUE 'IUCDB100'.
          266:            05  WS-IUCIAAJR-LENGTH     COMP PIC S9(08) VALUE +0.
          370:            COPY IUCDB1CP.
          395:        01  IUCIAAJR.
          397:                COPY IUCIAAJR.
          837:            COMPUTE  WS-IUCIAAJR-LENGTH = CIAAJR-LENGTH        +
          840:            MOVE     WS-IUCIAAJR-LENGTH     TO  WS-REC-LEN.
         1441:                           WS-IUCIAAJR-LENGTH
1ENVIRONMENT  BCBS01    SYSTEM  ITS       SUBSYSTEM  UPF
 TYPE  COBOL     STAGE NUMBER 2 .
0    ELEMENT   ITCP6170
           57:            COPY ITCDBERD.
          183:        PROCEDURE DIVISION USING  ITSIAPC ITCIARD ITCPCE00.
0    ELEMENT   ITCP6172
           63:        01  ITCDBF00-OUT-DATA.
           64:            COPY ITCDBF00.
          181:                                 ITCIACP
          183:                                 ITCIACO
0    ELEMENT   ITCP9164
          269:       *         IN ITCIAAI COPYBOOK                                    *
          299:       *         INCORPORATE ITCWSMCD.                                  *00022507
         1276:        01 ITCWSMCD.                                                     00103700
         1277:            COPY ITCWSMCD.                                               00103800
         1331:            COPY ITCIAUNQ.
         2804: 105724*                   ITCIACO -UPF CALCULATOR OUTPUT                01164
         2812:       * TRANSLATE NEEDED DATES INTO ITCIAAI COPYBOOK
0    ELEMENT   ITCP9166
           19:       *                 LIABILITES(FULL COVERAGE). THE ENTIRE ITCIACO  *00019
           54:       *         ADD COPYBOOK ITCIAAI                                   *
          142:            COPY ITCIACO                                                 00086
          145:                 == DEPENDING ON CIACO-TBL-ENTRY-CNT OF WS-ITCIACO ==.   00089
          181:            COPY ITCIACO                                                 00151
          184:                 == DEPENDING ON CIACO-TBL-ENTRY-CNT OF ITCIACO ==.      00154
          191:            COPY ITCIAUNQ.
          215:                                 ITCIACO                                 00316
          253:               AND (CIACO-SUCCESSFUL OF ITCIACO                          00382
          258:                  AND (CIACO-SUCCESSFUL OF ITCIACO                       00387
          394:            MOVE CIACO-SCCF-SER-NUM OF ITCIACO                           00504
          396:            MOVE CIACO-CALC-RESULTS-CNTL-DATA OF ITCIACO                 00506
          398:            MOVE CIACO-CALC-RESULTS-CLM-LVL OF ITCIACO                   00508
          400:            MOVE CIACO-TBL-ENTRY-CNT OF ITCIACO                          00510
          403:             UNTIL WS-S1 GREATER CIACO-TBL-ENTRY-CNT OF ITCIACO          00513
          417:            IF CIACO-BCBS-PMT-AMT  OF WS-ITCIACO  NUMERIC                00527
          418:            AND CIACO-SUB-LIAB     OF WS-ITCIACO  NUMERIC                00528
          419:            AND CIACO-BCBS-PMT-AMT OF ITCIACO     NUMERIC                00529
          420:            AND CIACO-SUB-LIAB     OF ITCIACO     NUMERIC                00530
          421:               IF CIACO-BCBS-PMT-AMT OF WS-ITCIACO                       00531
          422:                  + CIACO-SUB-LIAB   OF WS-ITCIACO                       00532
          424:                  CIACO-BCBS-PMT-AMT OF ITCIACO                          00534
          425:                  + CIACO-SUB-LIAB   OF ITCIACO                          00535
          427:                  MOVE CIACO-SCCF-SER-NUM OF WS-ITCIACO                  00537
          428:                    TO CIACO-SCCF-SER-NUM OF ITCIACO                     00538
          429:                  MOVE CIACO-CALC-RESULTS-CNTL-DATA OF WS-ITCIACO        00539
          430:                    TO CIACO-CALC-RESULTS-CNTL-DATA OF ITCIACO           00540
          431:                  MOVE CIACO-CALC-RESULTS-CLM-LVL OF WS-ITCIACO          00541
          432:                    TO CIACO-CALC-RESULTS-CLM-LVL OF ITCIACO             00542
          433:                  MOVE CIACO-TBL-ENTRY-CNT OF WS-ITCIACO                 00543
          434:                    TO CIACO-TBL-ENTRY-CNT OF ITCIACO                    00544
          436:                   UNTIL WS-S1 GREATER CIACO-TBL-ENTRY-CNT OF WS-ITCIACO 00546
          448: 056700        MOVE SPACE TO CIACO-CALC-RESULTS               OF ITCIACO 00056700
          451:               MOVE SPACE TO CIACO-SCCF-SER-NUM              OF ITCIACO  00056712
          452:                             CIACO-CALC-RESULTS-CNTL-DATA    OF ITCIACO  00056713
          453:                             CIACO-CALC-RESULTS-CLM-LVL      OF ITCIACO  00056714
          458:            COMPUTE CIACO-TBL-ENTRY-CNT OF ITCIACO
1         461:            MOVE ZERO TO  CIACO-CLM-STAT-CD                   OF ITCIACO 00560
          462:                          CIACO-DED-REM-1                     OF ITCIACO 00561
          463:                          CIACO-DED-REM-2                     OF ITCIACO 00562
          464:                          CIACO-DED-REM-3                     OF ITCIACO 00563
          465:                          CIACO-REM-OOP-MAX                   OF ITCIACO 00564
          466:                          CIACO-BCBS-PMT-AMT                  OF ITCIACO 00565
          467:                          CIACO-PAY-MAX-REM-CLM-1             OF ITCIACO 00566
          468:                          CIACO-PAY-MAX-REM-CLM-2             OF ITCIACO 00567
          469:                          CIACO-PAY-MAX-REM-CLM-3             OF ITCIACO 00568
          473:             UNTIL WS-S1 GREATER CIACO-TBL-ENTRY-CNT OF ITCIACO          00563
          578:            IF CIACO-TBL-ENTRY-CNT OF ITCIACO < 0 OR                     00651
          579:               CIACO-TBL-ENTRY-CNT OF ITCIACO > 1000                     00651
          609:                                           ITCIACP                       00670
          621:                                           ITCIACP                       00679
          622:                                           ITCIACO                       00680
0    ELEMENT   ITCP9206
           29:       *                               UPF OUTPUT AREA ITCIACO          *
          205:                                 ITCIACP
0    ELEMENT   ITCP9242
           99:       *         ITDRTE00 WHEN RULES NOT IN ITCIARD WS TABLE.  THIS WILL*
          120:       *R15.5   05/14/2015  06.9  E_95770   RDW: ADD ITCIAAI TO     *
          457:            COPY ITCIAUNQ.                                               00041500
          470:                                 ITCIACP
          471:                                 ITCIACO
         1435:                                           ITCIACP
         1456:                                           ITCIACP
         1457:                                           ITCIACO
         1458:                                           ITCIARD                       00158100
         1473:                                           ITCIACP
         1474:                                           ITCIACO
         1476:                                           ITCIARD                       00159400
         1477:       *R15.5 E_95770 RDW ADD ITCIAAI TO SUPPORT ZERO PRICING            00159800
         1491:                                           ITCIACO
         1493:       *12.0  E_41233  KJO ADD ITCIACP TO PASS PARAMETERS
         1512:                                           ITCIACP                       00162900
         1527:                                           ITCIACP
         1529:                                           ITCIACO
         1542:                                           ITCIACP
0    ELEMENT   ITCP9246
           47:       *                               ITCWSMR TABLE                    *
          724:                                 ITCIACP
          725:                                 ITCIACO
          726:                                 ITCIARD                                 00569
0    ELEMENT   ITCP9248
           76:       *R15.5   05/14/2015  04.1  E_95770   RDW: ADD ITCIAAI TO     *
          384:       *R15.5  E_95770  RDW BEGIN: ADD ITCIAAI TO SUPPORT ZERO PRICING
          391:                                 ITCIACP
          392:                                 ITCIACO
          394:                                 ITCIARD                                 00279
          395:       *15.5  E_95770 RDW ADD ITCIAAI TO SUPPORT ZERO PRICING            00281
0    ELEMENT   ITCP9250
          444:                                 ITCIACO
          446:       *12.0   E_41233  KJO PASS ITCIACP FROM ITCP9242
0    ELEMENT   ITCP9258
1         737: 055700                          ITCIACP                                 05570024
          739: 055900                          ITCIACO                                 05590024
         4983:                                         ITCIACP                         03250
         4985:                                         ITCIACO                         03252
0    ELEMENT   ITCP9286
          360:                                 ITCIACP
          362:                                 ITCIACO                                 00455
0    ELEMENT   ITCP9356
          154: 019100                          ITCIACP                                 ITCP9356
          251: 042800                                    ITCIACP                       ITCP9356
0    ELEMENT   ITCP9358
           18: 001800*   FUNCTION    : THIS MODULE BUILDS ITCIACP FROM THE SF         *00001800
          128:                'UPF BUILD ITCIACP FROM FDB                        '.
          282:                                 LS-ITCIACP
0    ELEMENT   ITCP9700
          284: 017540     COPY ITCIAUNQ.                                               00137
          321:            COPY ITCIACP                                                 00199
          324:                 == DEPENDING ON CIACP-TBL-ENTRY-CNT OF WS-ITCIACP ==.   00202
          327:            COPY ITCIACO                                                 00205
          330:                 == DEPENDING ON CIACO-TBL-ENTRY-CNT OF WS-ITCIACO ==.   00208
          361:            COPY ITCIACP                                                 00240
          364:                 == DEPENDING ON CIACP-TBL-ENTRY-CNT OF ITCIACP ==.      00243
          374:            COPY ITCIACO                                                 00253
          377:                 == DEPENDING ON CIACO-TBL-ENTRY-CNT OF ITCIACO ==.      00256
          404:                                 ITCIACP                                 00423
          406:                                 ITCIACO                                 00425
          485:                IF  (CIACP-PRC-MTD-CLM OF ITCIACP = WS-01
          487:                     CIACP-PRC-MTD-LN OF ITCIACP (WS-1) = WS-01)
          496: 053000             IF  CIACP-RULE-NUM-PRIM-CLM-4-6 OF ITCIACP           00509
          498: 053000                 MOVE CIACP-RULE-NUM-PRIM-CLM-4-6 OF ITCIACP      00509
          505: 053000             IF  CIACP-RULE-NUM-SEC-CLM-4-6 OF ITCIACP            00509
          507: 053000                 MOVE CIACP-RULE-NUM-SEC-CLM-4-6 OF ITCIACP       00509
          512: 053000                     UNTIL SUB > CIACP-TBL-ENTRY-CNT OF ITCIACP   00509
          513: 053000                 IF  CIACP-RULE-NUM-LN-4-6 OF ITCIACP (SUB)       00509
          515: 053000                     MOVE CIACP-RULE-NUM-LN-4-6 OF ITCIACP (SUB)  00509
          655: 062000     IF CIACO-CLM-STAT-CD OF ITCIACO =                            00599
          693:                    IF CIACP-NBR-INCL-GRPS OF ITCIACP >= WS-01 AND
          694:                       CIACP-NBR-INCL-GRPS OF ITCIACP <= WS-99
          695:                       MOVE CIACP-NBR-INCL-GRPS-NUM OF ITCIACP TO
          802:            EVALUATE  CIACO-SUCCESSFUL OF ITCIACO                        00680
          945:            MOVE CIACP-SCCF-SER-NUM OF ITCIACP TO WS-CB-SCCF-SER-NUM.    00878
          987:            IF CIACO-CLM-STAT-CD OF ITCIACO = WS-UNABLE-TO-CALC          00844
         1070:            MOVE CIACP-SCCF-SER-NUM OF ITCIACP
         1162:            IF CIACO-CLM-ERR-MAX-IND OF ITCIACO NOT = WS-CONSTANT-YES    01016
         1218:                                            ITCIACP                      01069
         1219:                                            ITCIACO                      01070
         1256:                                           ITCIACP                       00162900
         1271:                                           ITCIACP                       00162900
         1272:                                           ITCIACO                       00163100
         1309:                                            ITCIACP                      01169
         1310:                                            WS-ITCIACP                   01170
         1312:                                            WS-ITCIACO                   01172
         1313:                                            ITCIACO                      01173
         1334:                                           ITCIACO                       01222
         1618:                 CIACP-SCCF-SER-NUM OF ITCIACP                           01505
         1619:                 CIACO-SCCF-SER-NUM OF ITCIACO                           01506
1        1657:            MOVE CIACP-SCCF-SER-NUM OF ITCIACP                           01449
         1658:              TO CIACP-SCCF-SER-NUM OF WS-ITCIACP                        01450
         1659:            MOVE CIACP-FDB-INV-CD   OF ITCIACP                           01451
         1660:              TO CIACP-FDB-INV-CD   OF WS-ITCIACP                        01452
         1661:            MOVE CIACP-PRC-DATA-PRESENT-IND OF ITCIACP                   01453
         1662:              TO CIACP-PRC-DATA-PRESENT-IND OF WS-ITCIACP                01454
         1663:            MOVE CIACP-CLM-LVL-DATA OF ITCIACP                           01455
         1664:              TO CIACP-CLM-LVL-DATA OF WS-ITCIACP                        01456
         1665:            MOVE CIACP-COB-DATA-CLM OF ITCIACP                           01457
         1666:              TO CIACP-COB-DATA-CLM OF WS-ITCIACP                        01458
         1668:            MOVE CIACP-MEDICARE-AREA OF ITCIACP                          01653
         1669:              TO CIACP-MEDICARE-AREA OF WS-ITCIACP                       01654
         1673:            MOVE CIACP-OTHER-CLM-INFO OF ITCIACP                         01653
         1674:              TO CIACP-OTHER-CLM-INFO OF WS-ITCIACP                      01654
         1678: 171800     IF CIACP-TBL-ENTRY-CNT OF ITCIACP >= ZERO                    01656
         1679:                IF CIACP-TBL-ENTRY-CNT OF ITCIACP NOT >                  01461
         1681:                    MOVE CIACP-TBL-ENTRY-CNT OF ITCIACP TO               01463
         1682:                                  CIACP-TBL-ENTRY-CNT OF WS-ITCIACP      01464
         1685:                                  CIACP-TBL-ENTRY-CNT OF WS-ITCIACP      01467
         1692:            IF CIACP-TBL-ENTRY-CNT OF ITCIACP > ZERO                     01472
         1694:                 UNTIL WS-S1 GREATER CIACP-TBL-ENTRY-CNT OF ITCIACP      01474
         1703:            MOVE CIACP-SCCF-SER-NUM OF WS-ITCIACP                        01483
         1704:              TO CIACP-SCCF-SER-NUM OF ITCIACP                           01484
         1705:            MOVE CIACP-FDB-INV-CD   OF WS-ITCIACP                        01485
         1706:              TO CIACP-FDB-INV-CD   OF ITCIACP                           01486
         1707:            MOVE CIACP-PRC-DATA-PRESENT-IND OF WS-ITCIACP                01487
         1708:              TO CIACP-PRC-DATA-PRESENT-IND OF ITCIACP                   01488
         1709:            MOVE CIACP-CLM-LVL-DATA OF WS-ITCIACP                        01489
         1710:              TO CIACP-CLM-LVL-DATA OF ITCIACP                           01490
         1711:            MOVE CIACP-COB-DATA-CLM OF WS-ITCIACP                        01491
         1712:              TO CIACP-COB-DATA-CLM OF ITCIACP                           01492
         1714:            MOVE CIACP-MEDICARE-AREA OF WS-ITCIACP                       01653
         1715:              TO CIACP-MEDICARE-AREA OF ITCIACP                          01654
         1719:            MOVE CIACP-OTHER-CLM-INFO OF WS-ITCIACP                      01653
         1720:              TO CIACP-OTHER-CLM-INFO OF ITCIACP                         01654
         1723:            MOVE CIACP-TBL-ENTRY-CNT OF WS-ITCIACP                       01493
         1726:            IF CIACP-TBL-ENTRY-CNT OF WS-ITCIACP > ZERO                  01496
         1728:                 UNTIL WS-S1 GREATER CIACP-TBL-ENTRY-CNT OF WS-ITCIACP   01498
         1737:            MOVE CIACO-SCCF-SER-NUM OF ITCIACO                           01507
         1739:            MOVE CIACO-CALC-RESULTS-CNTL-DATA OF ITCIACO                 01509
         1741:            MOVE CIACO-CALC-RESULTS-CLM-LVL OF ITCIACO                   01511
         1743:            MOVE CIACO-TBL-ENTRY-CNT OF ITCIACO                          01513
         1746:             UNTIL WS-S1 GREATER CIACO-TBL-ENTRY-CNT OF ITCIACO          01516
         1755:            MOVE CIACO-SCCF-SER-NUM OF WS-ITCIACO                        01525
         1757:            MOVE CIACO-CALC-RESULTS-CLM-LVL OF WS-ITCIACO                01529
         1759:            MOVE CIACO-TBL-ENTRY-CNT OF WS-ITCIACO                       01531
         1762:             UNTIL WS-S1 GREATER CIACO-TBL-ENTRY-CNT OF WS-ITCIACO       01534
0    ELEMENT   ITCP9702
           49:       *         ITDRTE00 WHEN RULES NOT IN ITCIARD WS TABLE.  THIS WILL*
          295:            COPY ITCIACO                                                 00185
          298:                 == DEPENDING ON CIACO-TBL-ENTRY-CNT OF CB-ITCIACO ==.   00188
          358:            COPY ITCIACP                                                 00240
          361:                 == DEPENDING ON CIACP-TBL-ENTRY-CNT OF ITCIACP ==.      00243
          366:            COPY ITCIACP                                                 00248
          369:                 == DEPENDING ON CIACP-TBL-ENTRY-CNT OF WS-ITCIACP ==.   00251
          375:            COPY ITCIACO                                                 00256
          378:                 == DEPENDING ON CIACO-TBL-ENTRY-CNT OF WS-ITCIACO ==.   00259
          382:       *LINKAGE INITIALIZED IN THIS PGM, THEN 'RESTORED' FROM WS-ITCIACO
          384:            COPY ITCIACO                                                 00264
1         387:                 == DEPENDING ON CIACO-TBL-ENTRY-CNT OF ITCIACO ==.      00267
          417:            COPY ITCIAUNQ.                                               00041500
          430:                                 ITCIACP                                 00445
          431:                                 WS-ITCIACP                              00446
          433:                                 WS-ITCIACO                              00448
          434:                                 ITCIACO                                 00449
          568:                UNTIL SUB > CIACO-TBL-ENTRY-CNT OF CB-ITCIACO +          00619
          627:       *    INITIALIZE ITCIACP FIELDS                                    00739
          813:                       TO CIACO-CLM-STAT-CD OF ITCIACO
          816:                       TO CIACO-CLM-RSN-CD OF ITCIACO (1)
          899:            EVALUATE  CIACO-SUCCESSFUL OF ITCIACO                        00999
         1036:            MOVE CIACP-SCCF-SER-NUM OF ITCIACP TO WS-CB-SCCF-SER-NUM.    01142
         1249:            IF CIACO-CLM-ERR-MAX-IND OF ITCIACO NOT = WS-CONSTANT-YES    01431
         1261:                OR CIACO-CLM-RSN-CD OF ITCIACO (ERR-SUB1) = SPACES.      01458
         1331:                                           ITCIACP                       01629
         1332:                                           WS-ITCIACP                    01630
         1334:                                           ITCIACO                       01632
         1337:                                           ITCIARD                       01635
         1338:                                           WS-ITCIACO                    01636
         1339:                                           CB-ITCIACO                    01637
         1357:                                           CB-ITCIACO                    01687
         1359:       *12.0  E_41233  KJO PASS ITCIACP TO ITCP9710
         1360:                                           ITCIACP                       01587
         1379:                                           ITCIACP                       00162900
         1396:                                           ITCIACP                       00162900
         1397:                                           ITCIACO                       00163100
         1412:                                           ITCIACP                       01743
         1414:                                           WS-ITCIACO                    01745
         1415:                                           CB-ITCIACO                    01746
         1416:                                           ITCIARD                       01747
         1445:                                           ITCIACO                       01890
         1709:                                  OF CB-ITCIACO
         1715:                 CIACO-SCCF-SER-NUM OF CB-ITCIACO                        01970
         1718:            MOVE ZEROES        TO CIACO-CLM-STAT-CD OF CB-ITCIACO        01973
         1719:                                  CIACO-CLM-STAT-CD OF ITCIACO           01974
         1720:                                  CIACO-DED-REM-1 OF CB-ITCIACO          01975
         1721:                                  CIACO-DED-REM-1 OF ITCIACO             01976
         1722:                                  CIACO-DED-REM-2 OF CB-ITCIACO          01977
         1723:                                  CIACO-DED-REM-2 OF ITCIACO             01978
         1724:                                  CIACO-DED-REM-3 OF CB-ITCIACO          01979
         1725:                                  CIACO-DED-REM-3 OF ITCIACO             01980
         1726:                                  CIACO-REM-OOP-MAX OF CB-ITCIACO        01981
         1727:                                  CIACO-REM-OOP-MAX OF ITCIACO           01982
         1728:                                  CIACO-BCBS-PMT-AMT OF CB-ITCIACO       01983
         1729:                                  CIACO-BCBS-PMT-AMT OF ITCIACO          01984
         1730:                                  CIACO-SUB-LIAB OF CB-ITCIACO           01985
         1731:                                  CIACO-SUB-LIAB OF ITCIACO              01986
         1732:                                  CIACO-PAY-MAX-REM-CLM-1 OF CB-ITCIACO  01987
         1733:                                  CIACO-PAY-MAX-REM-CLM-1 OF ITCIACO     01988
         1734:                                  CIACO-PAY-MAX-REM-CLM-2 OF CB-ITCIACO  01989
         1735:                                  CIACO-PAY-MAX-REM-CLM-2 OF ITCIACO     01990
         1736:                                  CIACO-PAY-MAX-REM-CLM-3 OF CB-ITCIACO  01991
         1739:            MOVE WS-CONSTANT-NO TO CIACO-CLM-ERR-MAX-IND OF CB-ITCIACO   01994
         1752:                         CIACO-TBL-ENTRY-CNT OF CB-ITCIACO               02001
         1753:                         CIACO-TBL-ENTRY-CNT OF ITCIACO                  02002
         1756:                    IF CIACP-NBR-INCL-GRPS OF ITCIACP >= WS-01 AND
         1757:                       CIACP-NBR-INCL-GRPS OF ITCIACP <= WS-99
         1758:                       MOVE CIACP-NBR-INCL-GRPS-NUM OF ITCIACP TO
         1771:                         CIACO-TBL-ENTRY-CNT OF CB-ITCIACO               01994
         1772:                         CIACO-TBL-ENTRY-CNT OF ITCIACO                  01995
1        1775:                     CIACO-TBL-ENTRY-CNT OF CB-ITCIACO                   02009
         1813:                         CIACO-ACCUM-EXCL-SUB-REDS OF CB-ITCIACO (SUB)   02024
         1814:                         CIACO-ACCUM-EXCL-SUB-REDS OF ITCIACO (SUB)      02024
         1892:                         CIACO-BMFAP-EXCESS-PER-DAY-RED OF CB-ITCIACO    00200900
         1894:                         CIACO-BMFAP-EXCESS-PER-DAY-RED OF ITCIACO       00200900
         1896:                         CIACO-BMFAS-PROV-SANC-RED OF CB-ITCIACO (SUB)   00200900
         1897:                         CIACO-BMFAS-PROV-SANC-RED OF ITCIACO (SUB)      00200900
         1900: 111518                  CIACO-DME-APPLIED-AMT-ACTUAL OF CB-ITCIACO      00200900
         1902: 111518                  CIACO-DME-APPLIED-AMT-ACTUAL OF ITCIACO (SUB).  00200900
         1960:            MOVE CIACP-SCCF-SER-NUM OF WS-ITCIACP                        02165
         1961:              TO CIACP-SCCF-SER-NUM OF ITCIACP                           02166
         1962:            MOVE CIACP-FDB-INV-CD   OF WS-ITCIACP                        02167
         1963:              TO CIACP-FDB-INV-CD   OF ITCIACP                           02168
         1964:            MOVE CIACP-PRC-DATA-PRESENT-IND OF WS-ITCIACP                02169
         1965:              TO CIACP-PRC-DATA-PRESENT-IND OF ITCIACP                   02170
         1966:            MOVE CIACP-CLM-LVL-DATA OF WS-ITCIACP                        02171
         1967:              TO CIACP-CLM-LVL-DATA OF ITCIACP                           02172
         1968:            MOVE CIACP-COB-DATA-CLM OF WS-ITCIACP                        02173
         1969:              TO CIACP-COB-DATA-CLM OF ITCIACP                           02174
         1971:            MOVE CIACP-MEDICARE-AREA OF WS-ITCIACP                       02166
         1972:              TO CIACP-MEDICARE-AREA OF ITCIACP                          02167
         1976:            MOVE CIACP-OTHER-CLM-INFO OF WS-ITCIACP                      02166
         1977:              TO CIACP-OTHER-CLM-INFO OF ITCIACP                         02167
         1980:            MOVE CIACP-TBL-ENTRY-CNT OF WS-ITCIACP                       02175
         1983:            IF CIACP-TBL-ENTRY-CNT OF WS-ITCIACP > ZERO                  02178
         1985:                  UNTIL WS-S1 GREATER CIACP-TBL-ENTRY-CNT OF WS-ITCIACP  02173
         1998:            MOVE CIACO-BCBS-PMT-AMT OF CB-ITCIACO
         2001:            MOVE CIACO-SCCF-SER-NUM OF WS-ITCIACO                        02284
         2003:            MOVE CIACO-CALC-RESULTS-CLM-LVL OF WS-ITCIACO                02288
         2005:            MOVE CIACO-TBL-ENTRY-CNT OF WS-ITCIACO                       02290
0    ELEMENT   ITCP9704
           54:       *       OF ITCIACO LINES PRIOR TO CALLING ITCP9248.              *00060001
           63:       *R15.5   05/14/2015  02.9  E_95770   RDW: ADD ITCIAAI TO     *
          350:            COPY ITCIACP                                                 00267
          353:                 == DEPENDING ON CIACP-TBL-ENTRY-CNT OF ITCIACP ==.      00270
          358:            COPY ITCIACP                                                 00275
          361:                 == DEPENDING ON CIACP-TBL-ENTRY-CNT OF WS-ITCIACP ==.   00278
          371:            COPY ITCIACO                                                 00288
          374:                 == DEPENDING ON CIACO-TBL-ENTRY-CNT OF ITCIACO ==.      00291
          394:            COPY ITCIACO                                                 00311
          397:                 == DEPENDING ON CIACO-TBL-ENTRY-CNT OF WS-ITCIACO ==.   00314
          402:            COPY ITCIACO                                                 00319
          405:                 == DEPENDING ON CIACO-TBL-ENTRY-CNT OF CB-ITCIACO ==.   00322
          430:                                 ITCIACP                                 00485
          431:                                 WS-ITCIACP                              00486
          433:                                 ITCIACO                                 00488
          436:                                 ITCIARD                                 00491
          437:                                 WS-ITCIACO                              00492
          438:                                 CB-ITCIACO                              00493
          549:                IF CIACP-INV-FDB OF ITCIACP                              00658
          553:                  IF CIACP-NBR-INCL-GRPS OF ITCIACP < WS-01 OR
          554:                     CIACP-NBR-INCL-GRPS OF ITCIACP > WS-99
          626:       *    INITIALIZE ITCIACP FIELDS                                    00726
          658:                MOVE CIACP-SCCF-SER-NUM OF ITCIACP TO                    00758
          677:                          UNTIL SUB > CIACP-TBL-ENTRY-CNT OF ITCIACP
          678:              MOVE SPACES TO CIACP-INCL-GRP-PRIMARY-IND OF ITCIACP (SUB)
          679:              IF  CIACP-PRC-MTD-LN OF ITCIACP (SUB) = WS-MULT-SERV-ALLWD 00063700
          680:                  IF  CIACP-INCL-GROUPING-NBR OF ITCIACP (SUB) >
          684:                           CIACP-INCL-GRP-PRIMARY-IND OF ITCIACP (SUB)
1         685:                      MOVE CIACP-INCL-GROUPING-NBR OF ITCIACP (SUB) TO
          687:                           CIACP-NBR-INCL-GRPS OF ITCIACP
          689:                  IF  CIACP-INCL-GROUPING-NBR OF ITCIACP (SUB) =
          692:                           CIACP-INCL-GROUPING-NBR OF ITCIACP (SUB)
          693:                           CIACP-NBR-INCL-GRPS OF ITCIACP
          696:              IF (CIACP-PRC-MTD-LN OF ITCIACP (SUB) =                    00063700
          700:                       CIACP-INCL-GRP-PRIMARY-IND OF ITCIACP (SUB)
          702:                  MOVE WS-01         TO CIACP-NBR-INCL-GRPS OF ITCIACP
          704:              IF  CIACP-PRC-MTD-LN OF ITCIACP (SUB) = SPACES AND         00063700
          706:                 (CIACP-PRC-MTD-CLM OF ITCIACP = WS-PER-DIEM OR
          710:                       CIACP-INCL-GRP-PRIMARY-IND OF ITCIACP (SUB)
          712:                  MOVE WS-01         TO CIACP-NBR-INCL-GRPS OF ITCIACP
          995:       *****COPY ITCIACO CLM STAT AND CLM RSN TO CIACOP                  01051
          996:       *****PUT CX002 IN WS-ITCIACO                                      01052
         1119:            IF CIACP-NBR-INCL-GRPS OF ITCIACP >= WS-01 AND
         1120:               CIACP-NBR-INCL-GRPS OF ITCIACP <= WS-99
         1122:                       CIACP-NBR-INCL-GRPS-NUM OF ITCIACP +
         1194:            IF CIACP-PRC-MTD-CLM OF ITCIACP = WS-PM-01                   01290
         1200:                   CIACP-TBL-ENTRY-CNT OF ITCIACP                        01296
         1214:            IF CIACP-PRC-MTD-CLM OF ITCIACP  = SPACES OR LOW-VALUES      01310
         1215:                MOVE SPACES  TO CIACP-PRC-MTD-CLM OF ITCIACP             01311
         1216:                MOVE SPACES  TO CIACP-RULE-NUM-PRIM-CLM OF ITCIACP       01312
         1235:            MOVE     CIACP-PRC-MTD-LN OF ITCIACP (SUB) TO                01382
         1238:            MOVE     CIACP-PCT-FCTR-LN-X OF ITCIACP (SUB) TO             01385
         1241:            MOVE     CIACP-RULE-NUM-LN OF ITCIACP (SUB) TO               01388
         1245:                     CIACP-PRC-MTD-LN OF ITCIACP (SUB).                  01392
         1248:                     CIACP-PCT-FCTR-LN OF ITCIACP (SUB).                 01395
         1251:                     CIACP-RULE-NUM-LN-4-6 OF ITCIACP (SUB).             01398
         1253:            MOVE     CIACP-SF-MSG-CDS-LN OF ITCIACP (SUB) TO             01400
         1267:            MOVE CIACP-PRC-MTD-CLM OF ITCIACP                            01455
         1270:            MOVE CIACP-PCT-FCTR-CLM-X OF ITCIACP                         01458
         1273:            MOVE CIACP-RULE-NUM-PRIM-CLM OF ITCIACP                      01461
         1288:            IF CIACP-SF-MSG-CD-LN OF ITCIACP (SUB SUBM)                  01476
         1293:                 TO  CIACP-SF-MSG-CD-LN OF ITCIACP (SUB SUBM)            01481
         1294:               MOVE  CIACP-SPEC-PRC-COND-CD-CLM OF ITCIACP (SUBM)        01482
         1295:                     TO CIACP-SPEC-PRC-COND-CD-LN OF ITCIACP (SUB SUBM)  01483
         1296:               MOVE  CIACP-SPEC-PRC-COND-PCT-CLM OF ITCIACP (SUBM)       01484
         1297:                     TO CIACP-SPEC-PRC-COND-PCT-LN OF ITCIACP (SUB SUBM) 01485
         1307:            MOVE     CIACP-SF-MSG-CDS-CLM OF ITCIACP  TO                 01495
         1318:            IF CIACP-SF-MSG-CD-CLM OF ITCIACP (SUB)                      01506
         1321:                     CIACP-SF-MSG-CD-CLM OF ITCIACP (SUB).               01509
         1333:            IF CIACO-CLM-ERR-MAX-IND OF WS-ITCIACO                       01521
         1455:                                           ITCIACP                       01640
         1491:                                           ITCIACP                       01699
         1492:                                           ITCIACO                       01700
         1493:                                           ITCIARD                       01562
         1507:                                           ITCIACP                       01710
         1523:                                           ITCIACP                       01723
         1524:                                           ITCIACO                       01724
         1526:                                           ITCIARD                       01726
         1527:       *R15.5 E_95770 RDW ADD ITCIAAI TO SUPPORT ZERO PRICING            01591
         1541:                                           ITCIACP                       01736
         1542:                                           ITCIACO                       01737
         1543:                                           WS-ITCIACO                    01738
         1544:                                           CB-ITCIACO                    01739
         1729:            MOVE CIACP-SCCF-SER-NUM OF ITCIACP                           01893
         1730:              TO CIACP-SCCF-SER-NUM OF WS-ITCIACP                        01894
         1731:            MOVE CIACP-FDB-INV-CD   OF ITCIACP                           01895
         1732:              TO CIACP-FDB-INV-CD   OF WS-ITCIACP                        01896
         1733:            MOVE CIACP-PRC-DATA-PRESENT-IND OF ITCIACP                   01897
1        1734:              TO CIACP-PRC-DATA-PRESENT-IND OF WS-ITCIACP                01898
         1735:            MOVE CIACP-CLM-LVL-DATA OF ITCIACP                           01899
         1736:              TO CIACP-CLM-LVL-DATA OF WS-ITCIACP                        01900
         1737:            MOVE CIACP-COB-DATA-CLM OF ITCIACP                           01901
         1738:              TO CIACP-COB-DATA-CLM OF WS-ITCIACP                        01902
         1740:            MOVE CIACP-MEDICARE-AREA OF ITCIACP                          01795
         1741:              TO CIACP-MEDICARE-AREA OF WS-ITCIACP                       01796
         1745:            MOVE CIACP-OTHER-CLM-INFO OF ITCIACP                         01795
         1746:              TO CIACP-OTHER-CLM-INFO OF WS-ITCIACP                      01796
         1750:            IF CIACP-TBL-ENTRY-CNT OF ITCIACP >= ZERO                    01798
         1751:                IF CIACP-TBL-ENTRY-CNT OF ITCIACP NOT >                  01905
         1753:                    MOVE CIACP-TBL-ENTRY-CNT OF ITCIACP TO               01907
         1754:                                  CIACP-TBL-ENTRY-CNT OF WS-ITCIACP      01908
         1757:                                  CIACP-TBL-ENTRY-CNT OF WS-ITCIACP      01911
         1763:            IF CIACP-TBL-ENTRY-CNT OF ITCIACP > ZERO                     01916
         1765:                 UNTIL WS-S1 GREATER CIACP-TBL-ENTRY-CNT OF ITCIACP      01918
         1794:            MOVE ZEROES TO CIACO-CLM-STAT-CD OF ITCIACO                  01944
         1795:                           CIACO-DED-REM-1 OF ITCIACO                    01945
         1796:                           CIACO-DED-REM-2 OF ITCIACO                    01946
         1797:                           CIACO-DED-REM-3 OF ITCIACO                    01947
         1798:                           CIACO-REM-OOP-MAX OF ITCIACO                  01948
         1799:                           CIACO-BCBS-PMT-AMT OF ITCIACO                 01949
         1800:                           CIACO-SUB-LIAB OF ITCIACO                     01950
         1801:                           CIACO-PAY-MAX-REM-CLM-1 OF ITCIACO            01951
         1802:                           CIACO-PAY-MAX-REM-CLM-2 OF ITCIACO            01952
         1811:                    TO CIACO-TBL-ENTRY-CNT OF ITCIACO                    01961
         1814:                         CIACO-TBL-ENTRY-CNT OF ITCIACO                  01964
         1839:                           CIACO-ACCUM-EXCL-SUB-REDS OF ITCIACO (SUB)    02024
         1882:                           CIACO-BMFAP-EXCESS-PER-DAY-RED OF ITCIACO     00200900
0    ELEMENT   ITCP9706
          189:                                 ITCIACP                                 00174
0    ELEMENT   ITCP9708
           18:       *   FUNCTION:     THIS MODULE EDITS AND BUILDS THE CB-ITCIACO    *00018
           35:       *         POPULATE SUPPLEMENTAL AMOUNT ON THE CB_ITCIACO         *
           42:       *         MAX IN CB-ITCIACO FROM WS-ITCIACO IN C500-EDIT-LN-AMTS.*
          233:            COPY ITCIACO                                                 00203
          236:                 == DEPENDING ON CIACO-TBL-ENTRY-CNT OF ITCIACO ==.      00206
          241:            COPY ITCIACO                                                 00211
          244:                 == DEPENDING ON CIACO-TBL-ENTRY-CNT OF WS-ITCIACO ==.   00214
          249:            COPY ITCIACO                                                 00219
          252:                 == DEPENDING ON CIACO-TBL-ENTRY-CNT OF CB-ITCIACO ==.   00222
          268:                                 ITCIACP                                 00238
          269:                                 ITCIACO                                 00239
          270:                                 WS-ITCIACO                              00240
          271:                                 CB-ITCIACO                              00241
          310:            IF CIACO-SCCF-SER-NUM OF WS-ITCIACO IS EQUAL TO              00280
          311:               CIACO-SCCF-SER-NUM OF ITCIACO                             00281
          312:                MOVE CIACO-SCCF-SER-NUM OF WS-ITCIACO                    00282
          313:                  TO CIACO-SCCF-SER-NUM OF CB-ITCIACO                    00283
          319:            IF CIACO-SUCCESSFUL OF WS-ITCIACO                            00288
          320:              OR  CIACO-UNABLE-TO-CALC OF WS-ITCIACO                     00289
          321:              OR  CIACO-CALC-WITH-EXCEPTION OF WS-ITCIACO                00290
          322:              OR  CIACO-NO-CALC-REQ OF WS-ITCIACO                        00291
          323:              OR  CIACO-SUB-LIAB-DIFF OF WS-ITCIACO                      00292
          324:                MOVE CIACO-CLM-STAT-CD OF WS-ITCIACO                     00286
          325:                  TO CIACO-CLM-STAT-CD  OF CB-ITCIACO                    00294
          351:                     CIACO-CLM-ERR-MAX-IND OF CB-ITCIACO                 00314
          356:            IF CIACO-CALC-TYPE-CD OF WS-ITCIACO IS EQUAL TO              00323
1         357:               CIACO-CALC-TYPE-CD OF ITCIACO                             00324
          358:                MOVE CIACO-CALC-TYPE-CD OF WS-ITCIACO TO                 00321
          359:                     CIACO-CALC-TYPE-CD OF CB-ITCIACO                    00322
          366:                CIACO-DED-REM-1 OF CB-ITCIACO                            00332
          367:                CIACO-DED-REM-2 OF CB-ITCIACO                            00333
          368:                CIACO-DED-REM-3 OF CB-ITCIACO                            00334
          369:                CIACO-REM-OOP-MAX OF CB-ITCIACO                          00335
          370:                CIACO-PAY-MAX-REM-CLM-1 OF CB-ITCIACO                    00336
          371:                CIACO-PAY-MAX-REM-CLM-2 OF CB-ITCIACO                    00337
          374:            IF CIACO-BCBS-PMT-AMT OF WS-ITCIACO NUMERIC                  00340
          375:                MOVE CIACO-BCBS-PMT-AMT OF WS-ITCIACO TO                 00339
          376:                     CIACO-BCBS-PMT-AMT OF CB-ITCIACO                    00340
          382:            IF CIACO-SUB-LIAB OF WS-ITCIACO NUMERIC                      00347
          383:                MOVE CIACO-SUB-LIAB OF WS-ITCIACO TO                     00346
          384:                     CIACO-SUB-LIAB OF CB-ITCIACO                        00347
          391:            IF CIACO-TBL-ENTRY-CNT OF WS-ITCIACO >= ZERO                 00352
          417:            IF CIACO-BCBS-PMT-AMT OF WS-ITCIACO IS NOT EQUAL TO          00403
          424:            IF CIACO-SUB-LIAB OF WS-ITCIACO IS NOT EQUAL TO              00408
          439:            IF CIACO-TBL-ENTRY-CNT OF WS-ITCIACO EQUAL                   00384
          440:               CIACO-TBL-ENTRY-CNT OF ITCIACO                            00385
          441:                MOVE CIACO-TBL-ENTRY-CNT OF WS-ITCIACO                   00402
          442:                  TO CIACO-TBL-ENTRY-CNT OF CB-ITCIACO                   00387
          733:                MOVE CIACO-BMFAP-EXCESS-PER-DAY-RED OF WS-ITCIACO
          735:                  TO CIACO-BMFAP-EXCESS-PER-DAY-RED OF CB-ITCIACO
          836:            IF CIACO-INCLUSIVE-TYPE-CALC OF ITCIACO                      00613
          843:            IF CIACO-TBL-ENTRY-CNT OF ITCIACO NOT =                      00620
          844:               CIACO-TBL-ENTRY-CNT OF WS-ITCIACO                         00621
          852:                    UNTIL NPLUS1-SUB > CIACO-TBL-ENTRY-CNT OF ITCIACO
          865:       *    MOVE CIACO-TBL-ENTRY-CNT OF ITCIACO TO NPLUS1-SUB.           00725
0    ELEMENT   ITCP9710
          189:                                 CB-ITCIACO                              00138
          191:       *12.0   E_41233  KJO  ADD PASSED ITCIACP                          00010007
          192:                                 ITCIACP                                 00122
          548:                                         ITCIACP                         00288
          550:                                         CB-ITCIACO                      00288
0    ELEMENT   ITCP9712
           52:       *         ADD ITCIAAI.  PASS ITCIAAI TO ITCP9718.                *00033
          216:            COPY ITCIACP                                                 00186
          219:                 == DEPENDING ON CIACP-TBL-ENTRY-CNT OF ITCIACP ==.      00189
          227:            COPY ITCIACO                                                 00200
          230:                 == DEPENDING ON CIACO-TBL-ENTRY-CNT OF WS-ITCIACO ==.   00203
          234:            COPY ITCIACO                                                 00208
          237:                 == DEPENDING ON CIACO-TBL-ENTRY-CNT OF CB-ITCIACO ==.   00211
          261:            COPY ITCIAUNQ.
          274:                                 ITCIACP                                 00389
          276:                                 WS-ITCIACO                              00391
          277:                                 CB-ITCIACO                              00392
          278:                                 ITCIARD                                 00393
          583:            IF CIACO-CLM-ERR-MAX-IND OF CB-ITCIACO NOT = WS-CONSTANT-YES 00770
          595:                OR CIACO-CLM-RSN-CD OF CB-ITCIACO (ERR-SUB1) = SPACES.   00783
          636:                                           ITCIACP                       00823
          639:                                           CB-ITCIACO                    00826
          640:                                           ITCIARD                       00827
          657:                                           ITCIACP                       00841
          658:                                           WS-ITCIACO                    00842
          679:                                           CB-ITCIACO                    00885
0    ELEMENT   ITCP9714
1         509:                                 ITCIACP                                 00651
          512:                                 CB-ITCIACO                              00654
          513:                                 ITCIARD                                 00655
         2165:                                         ITCIACP                         02149
         2168:                                         CB-ITCIACO                      02152
0    ELEMENT   ITCP9716
          128:                                 ITCIACP                                 00419
          131:                                 CB-ITCIACO                              00422
0    ELEMENT   ITCP9718
           40:       *         ADD ITCIAAI AND PASS INTO ITCP9242.                    *00033
          219:            COPY ITCIACO                                                 00178
          222:                 == DEPENDING ON CIACO-TBL-ENTRY-CNT OF ITCIACO ==.      00181
          251:            COPY ITCIACO                                                 00206
          254:                 == DEPENDING ON CIACO-TBL-ENTRY-CNT OF WS-ITCIACO ==.   00209
          289:            COPY ITCIAUNQ.
          301:                                 ITCIACP                                 00393
          302:                                 WS-ITCIACO                              00394
          372:            IF  CIACP-RULE-NUM-PRIM-CLM-4-6 OF ITCIACP                   00509
          374:                MOVE CIACP-RULE-NUM-PRIM-CLM-4-6 OF ITCIACP              00509
          381:            IF  CIACP-RULE-NUM-SEC-CLM-4-6 OF ITCIACP                    00509
          383:                MOVE CIACP-RULE-NUM-SEC-CLM-4-6 OF ITCIACP               00509
          388:                      UNTIL SUB > CIACP-TBL-ENTRY-CNT OF ITCIACP         00509
          389:                IF  CIACP-RULE-NUM-LN-4-6 OF ITCIACP (SUB)               00509
          391:                    MOVE CIACP-RULE-NUM-LN-4-6 OF ITCIACP (SUB)          00509
          796:            IF CIACO-CLM-ERR-MAX-IND OF WS-ITCIACO NOT = WS-CONSTANT-YES 00864
          859:                                           ITCIACP                       00982
          872:                                           ITCIACP                       00996
          873:                                           ITCIACO                       00997
          892:                                           ITCIACP                       01046
          894:                                           ITCIACO                       01048
0    ELEMENT   ITCP9720
           18:       *   FUNCTION    : THIS MODULE REBUILDS ITCIACI AND ITCIACP TO    *00018
          243:                                 ITCIACP                                 00204
0    ELEMENT   ITCP9722
          155:                                 ITCIACP                                 00180
          157:                                 ITCIACO                                 00182
0    ELEMENT   ITCP9724
          143:                                 CB-ITCIACO                              00127
0    ELEMENT   ITCP9726
           11:       *   NAME:         UPF COB ITCIACO AND ITCIACOP CROSS REFERENCE   *00011
           18:       *   FUNCTION:     THIS MODULE SETS THE ITCIACO STATUS AND REASON *00018
          145:                                 ITCIACO                                 00167
          189:                PERFORM B200-SET-FROM-ITCIACO                            00205
          196:                PERFORM B200-SET-FROM-ITCIACO                            00212
          213: 025800         PERFORM B200-SET-FROM-ITCIACO                            00257
          218:                PERFORM B200-SET-FROM-ITCIACO                            00223
0    ELEMENT   ITCP9728
           76: 460001     SELECT ITCDBF00-FILE             ASSIGN TO UT-S-ITCDBF00.    00390000
           99: 005300 FD  ITCDBF00-FILE                                                00090
          107: 006000 01  ITCDBF00-RECORD.
          108:            COPY IULDBF00 REPLACING ==:LDBF:== BY ==LDBF==.              00652026
          112: 720001     COPY IULDBFCS.                                               00741000
          138:            COPY IULDBF00 REPLACING ==:LDBF:== BY ==LEBF==.              00720428
1         312: 023400     COPY ITCIARAP.
          322:            COPY IULIACSC.                                               02303000
          397: 033900 01  IUCIAAJR.
          398: 034000     COPY IUCIAAJR.
          466: 056300           ITCDBF00-FILE.                                         00090
          485: 057600     OPEN OUTPUT ITCDBF00-FILE.                                   01052
         1351: 127000     INITIALIZE ITCDBF00-RECORD.                                  00092
         1416: 131800     MOVE CIARPD-RECN-DATA-TXT TO IUCIAAJR.
         1423: 132300     MOVE IUCIAAJR             TO CIARAP-RECON-REST-OF-REC.
         1551: 141700     MOVE IULIACS              TO CIARAP-RECON-REST-OF-REC.
         1575: 144100* REBUILD FROM WS-COMPRESS-LIACS-AREA INTO IULIACS
         1768: 149700     MOVE ITCIACP              TO CIARAP-RECON-REST-OF-REC.
         1810: 154200     MOVE ITCIACO              TO CIARAP-RECON-REST-OF-REC.
0    ELEMENT   ITCP9730
           39:       *         ITCIACO AND ITCIACOP.  REMOVE OLD COMMENTED CODE.      *
           40:       *         INCREASE FILLER IN THE ITCIARAP RECON REDEFINES FOR    *
           42:       *         CHANGE REDEFINES TO USE NEW 01 LEVEL IN ITCIARAP.      *
           43:       *R16.5   05/12/2016  02.4  E_112820  STW: QUALIFY  IULDBF00  *
          114:        01  IULDBF00.
          115:            COPY IULDBF00 REPLACING ==:LDBF:== BY ==LDBF==.
          119:            COPY IULDBFCS.
          290:            COPY IUCDB100.
          300:            COPY ITCIARAP.
          304:       *    FILLER (PROGRAM USES THE ITCIARAP AREAS)
          327:            COPY ITCIACP
          339:            COPY ITCIACO
          360:        01  IUCIAAJR-RE REDEFINES CIARAP-GENERIC-AREA.
          363:          03 IUCIAAJR.
          365:            COPY IUCIAAJR
          426:       *    FILLER (PROGRAM USES THE ITCIARAP AREA)
          435:        01  IUCDB1CP-RE REDEFINES CIARAP-GENERIC-AREA.
          437:          03 IUCDB1CP.
          438:            COPY IUCDB1CP.
          852:              MOVE LDBFCS-DATA      TO FIXED-IULIACS
0    ELEMENT   ITCP9732
          158:            COPY IULIACSC.
          234: 008800 01  IUCIAAJR.                                                          00
          235: 008900     COPY IUCIAAJR.                                                     00
          272: 011400                             ITCIACP                                    00
          273: 011500                             ITCIACO                                    00
          277: 011900                             IUCIAAJR                             00012900
          283: 012300                             IULIACS                              00012900
          470: 035100         MOVE LENGTH OF ITCIACP TO CIARPD-RECN-DATA-LNGTH         03510000
          471: 035200         MOVE ITCIACP TO CIARPD-RECN-DATA-TXT                     03520000
          483: 036000             MOVE LENGTH OF ITCIACO TO CIARPD-RECN-DATA-LNGTH     03600000
          484: 036100             MOVE ITCIACO TO CIARPD-RECN-DATA-TXT                 03610000
          516: 030438     MOVE LENGTH OF IUCIAAJR TO CIARPD-RECN-DATA-LNGTH
          517: 030439     MOVE IUCIAAJR TO CIARPD-RECN-DATA-TXT
